---
triple:          'arm64-apple-darwin'
binary-path:     '/Users/chenfeiyang/Documents/vscode/cfyserver/socket'
relocations:
  - { offsetInCU: 0x5C, offset: 0x5C, size: 0x8, addend: 0x0, symName: __ZNSt3__1L19piecewise_constructE, symObjAddr: 0x1889C, symBinAddr: 0x100028B9C, symSize: 0x0 }
  - { offsetInCU: 0x72DA, offset: 0x72DA, size: 0x8, addend: 0x0, symName: '__ZNSt3__110__function10__not_nullB7v160006INS_6__bindIZN7CoTrain11LogMannager5debugENS_10shared_ptrINS3_8LogEventEEEE3$_0JEEEEEbRKT_', symObjAddr: 0x5BEC, symBinAddr: 0x100006A2C, symSize: 0x18 }
  - { offsetInCU: 0x730B, offset: 0x730B, size: 0x8, addend: 0x0, symName: '__ZNSt3__110__function10__not_nullB7v160006INS_6__bindIZN7CoTrain11LogMannager4infoENS_10shared_ptrINS3_8LogEventEEEE3$_1JEEEEEbRKT_', symObjAddr: 0xA78C, symBinAddr: 0x10000B5CC, symSize: 0x18 }
  - { offsetInCU: 0x733C, offset: 0x733C, size: 0x8, addend: 0x0, symName: '__ZNSt3__110__function10__not_nullB7v160006INS_6__bindIZN7CoTrain11LogMannager4warnENS_10shared_ptrINS3_8LogEventEEEE3$_2JEEEEEbRKT_', symObjAddr: 0xC7AC, symBinAddr: 0x10000D5EC, symSize: 0x18 }
  - { offsetInCU: 0x736D, offset: 0x736D, size: 0x8, addend: 0x0, symName: '__ZNSt3__110__function10__not_nullB7v160006INS_6__bindIZN7CoTrain11LogMannager5errorENS_10shared_ptrINS3_8LogEventEEEE3$_3JEEEEEbRKT_', symObjAddr: 0xE7CC, symBinAddr: 0x10000F60C, symSize: 0x18 }
  - { offsetInCU: 0x739E, offset: 0x739E, size: 0x8, addend: 0x0, symName: '__ZNSt3__110__function10__not_nullB7v160006INS_6__bindIZN7CoTrain11LogMannager5fatalENS_10shared_ptrINS3_8LogEventEEEE3$_4JEEEEEbRKT_', symObjAddr: 0x107EC, symBinAddr: 0x10001162C, symSize: 0x18 }
  - { offsetInCU: 0x78FD, offset: 0x78FD, size: 0x8, addend: 0x0, symName: __ZNSt3__124__put_character_sequenceB7v160006IcNS_11char_traitsIcEEEERNS_13basic_ostreamIT_T0_EES7_PKS4_m, symObjAddr: 0x4850, symBinAddr: 0x100005690, symSize: 0x1EC }
  - { offsetInCU: 0x8776, offset: 0x8776, size: 0x8, addend: 0x0, symName: '__ZNSt3__14bindB7v160006IZN7CoTrain11LogMannager5debugENS_10shared_ptrINS1_8LogEventEEEE3$_0JEEENS_6__bindIT_JDpT0_EEEOS8_DpOS9_', symObjAddr: 0x57DC, symBinAddr: 0x10000661C, symSize: 0x38 }
  - { offsetInCU: 0xB66E, offset: 0xB66E, size: 0x8, addend: 0x0, symName: '__ZNSt3__14bindB7v160006IZN7CoTrain11LogMannager4infoENS_10shared_ptrINS1_8LogEventEEEE3$_1JEEENS_6__bindIT_JDpT0_EEEOS8_DpOS9_', symObjAddr: 0xA3F0, symBinAddr: 0x10000B230, symSize: 0x38 }
  - { offsetInCU: 0xC78E, offset: 0xC78E, size: 0x8, addend: 0x0, symName: '__ZNSt3__14bindB7v160006IZN7CoTrain11LogMannager4warnENS_10shared_ptrINS1_8LogEventEEEE3$_2JEEENS_6__bindIT_JDpT0_EEEOS8_DpOS9_', symObjAddr: 0xC410, symBinAddr: 0x10000D250, symSize: 0x38 }
  - { offsetInCU: 0xD8AE, offset: 0xD8AE, size: 0x8, addend: 0x0, symName: '__ZNSt3__14bindB7v160006IZN7CoTrain11LogMannager5errorENS_10shared_ptrINS1_8LogEventEEEE3$_3JEEENS_6__bindIT_JDpT0_EEEOS8_DpOS9_', symObjAddr: 0xE430, symBinAddr: 0x10000F270, symSize: 0x38 }
  - { offsetInCU: 0xE9CE, offset: 0xE9CE, size: 0x8, addend: 0x0, symName: '__ZNSt3__14bindB7v160006IZN7CoTrain11LogMannager5fatalENS_10shared_ptrINS1_8LogEventEEEE3$_4JEEENS_6__bindIT_JDpT0_EEEOS8_DpOS9_', symObjAddr: 0x10450, symBinAddr: 0x100011290, symSize: 0x38 }
  - { offsetInCU: 0x11A13, offset: 0x11A13, size: 0x8, addend: 0x0, symName: __ZNSt3__1neB7v160006ERKNS_15__list_iteratorINS_10shared_ptrIN7CoTrain11LogAppenderEEEPvEES8_, symObjAddr: 0x204, symBinAddr: 0x100001044, symSize: 0x34 }
  - { offsetInCU: 0x11A50, offset: 0x11A50, size: 0x8, addend: 0x0, symName: __ZNSt3__1eqB7v160006IN7CoTrain11LogAppenderES2_EEbRKNS_10shared_ptrIT_EERKNS3_IT0_EE, symObjAddr: 0x52C, symBinAddr: 0x10000136C, symSize: 0x48 }
  - { offsetInCU: 0x11A9F, offset: 0x11A9F, size: 0x8, addend: 0x0, symName: __ZNSt3__1lsB7v160006IcNS_11char_traitsIcEENS_9allocatorIcEEEERNS_13basic_ostreamIT_T0_EES9_RKNS_12basic_stringIS6_S7_T1_EE, symObjAddr: 0x89C, symBinAddr: 0x1000016DC, symSize: 0x4C }
  - { offsetInCU: 0x11AF7, offset: 0x11AF7, size: 0x8, addend: 0x0, symName: __ZNSt3__1lsB7v160006INS_11char_traitsIcEEEERNS_13basic_ostreamIcT_EES6_PKc, symObjAddr: 0x8E8, symBinAddr: 0x100001728, symSize: 0x48 }
  - { offsetInCU: 0x11B3D, offset: 0x11B3D, size: 0x8, addend: 0x0, symName: __ZNSt3__14endlB7v160006IcNS_11char_traitsIcEEEERNS_13basic_ostreamIT_T0_EES7_, symObjAddr: 0xA4C, symBinAddr: 0x10000188C, symSize: 0x58 }
  - { offsetInCU: 0x12499, offset: 0x12499, size: 0x8, addend: 0x0, symName: __ZNSt3__134__libcpp_atomic_refcount_incrementB7v160006IlEET_RS1_, symObjAddr: 0x28B0, symBinAddr: 0x1000036F0, symSize: 0x30 }
  - { offsetInCU: 0x124D0, offset: 0x124D0, size: 0x8, addend: 0x0, symName: __ZNSt3__14swapB7v160006IPN7CoTrain12LogFormatterEEENS_9enable_ifIXaasr21is_move_constructibleIT_EE5valuesr18is_move_assignableIS5_EE5valueEvE4typeERS5_S8_, symObjAddr: 0x28E0, symBinAddr: 0x100003720, symSize: 0x3C }
  - { offsetInCU: 0x12525, offset: 0x12525, size: 0x8, addend: 0x0, symName: __ZNSt3__14swapB7v160006IPNS_19__shared_weak_countEEENS_9enable_ifIXaasr21is_move_constructibleIT_EE5valuesr18is_move_assignableIS4_EE5valueEvE4typeERS4_S7_, symObjAddr: 0x291C, symBinAddr: 0x10000375C, symSize: 0x3C }
  - { offsetInCU: 0x1257A, offset: 0x1257A, size: 0x8, addend: 0x0, symName: __ZNSt3__119__debug_db_insert_cB7v160006INS_12basic_stringIcNS_11char_traitsIcEENS_9allocatorIcEEEEEEvPT_, symObjAddr: 0x2A60, symBinAddr: 0x1000038A0, symSize: 0x10 }
  - { offsetInCU: 0x125AC, offset: 0x125AC, size: 0x8, addend: 0x0, symName: __ZNSt3__1neB7v160006ERKNS_16__deque_iteratorIN7CoTrain4TaskEPS2_RS2_PS3_lLl102EEES8_, symObjAddr: 0x3054, symBinAddr: 0x100003E94, symSize: 0x34 }
  - { offsetInCU: 0x125EA, offset: 0x125EA, size: 0x8, addend: 0x0, symName: __ZNSt3__1eqB7v160006ERKNS_16__deque_iteratorIN7CoTrain4TaskEPS2_RS2_PS3_lLl102EEES8_, symObjAddr: 0x32E8, symBinAddr: 0x100004128, symSize: 0x30 }
  - { offsetInCU: 0x12628, offset: 0x12628, size: 0x8, addend: 0x0, symName: __ZNSt3__119__libcpp_deallocateB7v160006EPvmm, symObjAddr: 0x3408, symBinAddr: 0x100004248, symSize: 0x60 }
  - { offsetInCU: 0x1268F, offset: 0x1268F, size: 0x8, addend: 0x0, symName: __ZNSt3__124__is_overaligned_for_newB7v160006Em, symObjAddr: 0x3468, symBinAddr: 0x1000042A8, symSize: 0x20 }
  - { offsetInCU: 0x126BE, offset: 0x126BE, size: 0x8, addend: 0x0, symName: __ZNSt3__127__do_deallocate_handle_sizeB7v160006IJSt11align_val_tEEEvPvmDpT_, symObjAddr: 0x3488, symBinAddr: 0x1000042C8, symSize: 0x30 }
  - { offsetInCU: 0x12712, offset: 0x12712, size: 0x8, addend: 0x0, symName: __ZNSt3__127__do_deallocate_handle_sizeB7v160006IJEEEvPvmDpT_, symObjAddr: 0x34B8, symBinAddr: 0x1000042F8, symSize: 0x28 }
  - { offsetInCU: 0x12751, offset: 0x12751, size: 0x8, addend: 0x0, symName: __ZNSt3__124__libcpp_operator_deleteB7v160006IJPvSt11align_val_tEEEvDpT_, symObjAddr: 0x34E0, symBinAddr: 0x100004320, symSize: 0x2C }
  - { offsetInCU: 0x1279B, offset: 0x1279B, size: 0x8, addend: 0x0, symName: __ZNSt3__124__libcpp_operator_deleteB7v160006IJPvEEEvDpT_, symObjAddr: 0x350C, symBinAddr: 0x10000434C, symSize: 0x24 }
  - { offsetInCU: 0x127D1, offset: 0x127D1, size: 0x8, addend: 0x0, symName: __ZNSt3__112__to_addressB7v160006IPN7CoTrain4TaskEEEPT_S5_, symObjAddr: 0x3790, symBinAddr: 0x1000045D0, symSize: 0x14 }
  - { offsetInCU: 0x12808, offset: 0x12808, size: 0x8, addend: 0x0, symName: __ZNSt3__134__libcpp_atomic_refcount_decrementB7v160006IlEET_RS1_, symObjAddr: 0x3A48, symBinAddr: 0x100004888, symSize: 0x30 }
  - { offsetInCU: 0x1283F, offset: 0x1283F, size: 0x8, addend: 0x0, symName: __ZNSt3__119__debug_db_insert_cB7v160006INS_4listINS_10shared_ptrIN7CoTrain11LogAppenderEEENS_9allocatorIS5_EEEEEEvPT_, symObjAddr: 0x3C00, symBinAddr: 0x100004A40, symSize: 0x10 }
  - { offsetInCU: 0x128A5, offset: 0x128A5, size: 0x8, addend: 0x0, symName: __ZNSt3__1eqB7v160006ERKNS_15__list_iteratorINS_10shared_ptrIN7CoTrain11LogAppenderEEEPvEES8_, symObjAddr: 0x3ED4, symBinAddr: 0x100004D14, symSize: 0x30 }
  - { offsetInCU: 0x12900, offset: 0x12900, size: 0x8, addend: 0x0, symName: __ZNSt3__117__libcpp_allocateB7v160006Emm, symObjAddr: 0x435C, symBinAddr: 0x10000519C, symSize: 0x60 }
  - { offsetInCU: 0x1295B, offset: 0x1295B, size: 0x8, addend: 0x0, symName: __ZNSt3__121__libcpp_operator_newB7v160006IJmSt11align_val_tEEEPvDpT_, symObjAddr: 0x43D0, symBinAddr: 0x100005210, symSize: 0x2C }
  - { offsetInCU: 0x129A8, offset: 0x129A8, size: 0x8, addend: 0x0, symName: __ZNSt3__121__libcpp_operator_newB7v160006IJmEEEPvDpT_, symObjAddr: 0x43FC, symBinAddr: 0x10000523C, symSize: 0x24 }
  - { offsetInCU: 0x129E1, offset: 0x129E1, size: 0x8, addend: 0x0, symName: __ZNSt3__116__pad_and_outputB7v160006IcNS_11char_traitsIcEEEENS_19ostreambuf_iteratorIT_T0_EES6_PKS4_S8_S8_RNS_8ios_baseES4_, symObjAddr: 0x4AD4, symBinAddr: 0x100005914, symSize: 0x240 }
  - { offsetInCU: 0x12AB1, offset: 0x12AB1, size: 0x8, addend: 0x0, symName: __ZNSt3__112__to_addressB7v160006IcEEPT_S2_, symObjAddr: 0x4F4C, symBinAddr: 0x100005D8C, symSize: 0x14 }
  - { offsetInCU: 0x12B1A, offset: 0x12B1A, size: 0x8, addend: 0x0, symName: __ZNSt3__19use_facetB7v160006INS_5ctypeIcEEEERKT_RKNS_6localeE, symObjAddr: 0x51CC, symBinAddr: 0x10000600C, symSize: 0x2C }
  - { offsetInCU: 0x12FEA, offset: 0x12FEA, size: 0x8, addend: 0x0, symName: __ZNSt3__112__to_addressB7v160006IKcEEPT_S3_, symObjAddr: 0x5264, symBinAddr: 0x1000060A4, symSize: 0x14 }
  - { offsetInCU: 0x13054, offset: 0x13054, size: 0x8, addend: 0x0, symName: __ZNSt3__118__constexpr_strlenB7v160006EPKc, symObjAddr: 0x53C0, symBinAddr: 0x100006200, symSize: 0x24 }
  - { offsetInCU: 0x136C9, offset: 0x136C9, size: 0x8, addend: 0x0, symName: '__ZNSt3__116forward_as_tupleB7v160006IJNS_6__bindIZN7CoTrain11LogMannager5debugENS_10shared_ptrINS2_8LogEventEEEE3$_0JEEEEEENS_5tupleIJDpOT_EEESC_', symObjAddr: 0x6420, symBinAddr: 0x100007260, symSize: 0x2C }
  - { offsetInCU: 0x13702, offset: 0x13702, size: 0x8, addend: 0x0, symName: '__ZNSt3__116forward_as_tupleB7v160006IJNS_9allocatorINS_6__bindIZN7CoTrain11LogMannager5debugENS_10shared_ptrINS3_8LogEventEEEE3$_0JEEEEEEEENS_5tupleIJDpOT_EEESE_', symObjAddr: 0x644C, symBinAddr: 0x10000728C, symSize: 0x2C }
  - { offsetInCU: 0x13780, offset: 0x13780, size: 0x8, addend: 0x0, symName: '__ZNSt3__13getB7v160006ILm0EJONS_6__bindIZN7CoTrain11LogMannager5debugENS_10shared_ptrINS2_8LogEventEEEE3$_0JEEEEEERNS_13tuple_elementIXT_ENS_5tupleIJDpT0_EEEE4typeERSE_', symObjAddr: 0x67B8, symBinAddr: 0x1000075F8, symSize: 0x24 }
  - { offsetInCU: 0x137C3, offset: 0x137C3, size: 0x8, addend: 0x0, symName: '__ZNSt3__13getB7v160006ILm0EJONS_9allocatorINS_6__bindIZN7CoTrain11LogMannager5debugENS_10shared_ptrINS3_8LogEventEEEE3$_0JEEEEEEEERNS_13tuple_elementIXT_ENS_5tupleIJDpT0_EEEE4typeERSG_', symObjAddr: 0x685C, symBinAddr: 0x10000769C, symSize: 0x24 }
  - { offsetInCU: 0x13993, offset: 0x13993, size: 0x8, addend: 0x0, symName: '__ZNSt3__116forward_as_tupleB7v160006IJRKNS_6__bindIZN7CoTrain11LogMannager5debugENS_10shared_ptrINS2_8LogEventEEEE3$_0JEEEEEENS_5tupleIJDpOT_EEESE_', symObjAddr: 0x6D24, symBinAddr: 0x100007B64, symSize: 0x2C }
  - { offsetInCU: 0x139E1, offset: 0x139E1, size: 0x8, addend: 0x0, symName: '__ZNSt3__13getB7v160006ILm0EJRKNS_6__bindIZN7CoTrain11LogMannager5debugENS_10shared_ptrINS2_8LogEventEEEE3$_0JEEEEEERNS_13tuple_elementIXT_ENS_5tupleIJDpT0_EEEE4typeERSF_', symObjAddr: 0x6F14, symBinAddr: 0x100007D54, symSize: 0x24 }
  - { offsetInCU: 0x13A24, offset: 0x13A24, size: 0x8, addend: 0x0, symName: '__ZNSt3__116forward_as_tupleB7v160006IJRKNS_9allocatorINS_6__bindIZN7CoTrain11LogMannager5debugENS_10shared_ptrINS3_8LogEventEEEE3$_0JEEEEEEEENS_5tupleIJDpOT_EEESG_', symObjAddr: 0x7358, symBinAddr: 0x100008198, symSize: 0x2C }
  - { offsetInCU: 0x13A72, offset: 0x13A72, size: 0x8, addend: 0x0, symName: '__ZNSt3__13getB7v160006ILm0EJRKNS_9allocatorINS_6__bindIZN7CoTrain11LogMannager5debugENS_10shared_ptrINS3_8LogEventEEEE3$_0JEEEEEEEERNS_13tuple_elementIXT_ENS_5tupleIJDpT0_EEEE4typeERSH_', symObjAddr: 0x7564, symBinAddr: 0x1000083A4, symSize: 0x24 }
  - { offsetInCU: 0x13B5C, offset: 0x13B5C, size: 0x8, addend: 0x0, symName: '__ZNSt3__18__invokeB7v160006IRNS_6__bindIZN7CoTrain11LogMannager5debugENS_10shared_ptrINS2_8LogEventEEEE3$_0JEEEJEEEDTclclsr3stdE7declvalIT_EEspclsr3stdE7declvalIT0_EEEEOSA_DpOSB_', symObjAddr: 0x7634, symBinAddr: 0x100008474, symSize: 0x24 }
  - { offsetInCU: 0x13BEC, offset: 0x13BEC, size: 0x8, addend: 0x0, symName: '__ZNSt3__115__apply_functorB7v160006IZN7CoTrain11LogMannager5debugENS_10shared_ptrINS1_8LogEventEEEE3$_0NS_5tupleIJEEEJES8_EENS_13__bind_returnIT_T0_T2_Xsr22__is_valid_bind_returnISA_SB_SC_EE5valueEE4typeERSA_RSB_NS_15__tuple_indicesIJXspT1_EEEEOSC_', symObjAddr: 0x7688, symBinAddr: 0x1000084C8, symSize: 0x2C }
  - { offsetInCU: 0x13C65, offset: 0x13C65, size: 0x8, addend: 0x0, symName: '__ZNSt3__18__invokeB7v160006IRZN7CoTrain11LogMannager5debugENS_10shared_ptrINS1_8LogEventEEEE3$_0JEEEDTclclsr3stdE7declvalIT_EEspclsr3stdE7declvalIT0_EEEEOS8_DpOS9_', symObjAddr: 0x76B4, symBinAddr: 0x1000084F4, symSize: 0x24 }
  - { offsetInCU: 0x13C9E, offset: 0x13C9E, size: 0x8, addend: 0x0, symName: __ZNSt3__13maxB7v160006ImEERKT_S3_S3_, symObjAddr: 0x8580, symBinAddr: 0x1000093C0, symSize: 0x2C }
  - { offsetInCU: 0x1413D, offset: 0x1413D, size: 0x8, addend: 0x0, symName: __ZNSt3__14swapB7v160006IPPN7CoTrain4TaskEEENS_9enable_ifIXaasr21is_move_constructibleIT_EE5valuesr18is_move_assignableIS6_EE5valueEvE4typeERS6_S9_, symObjAddr: 0x8B90, symBinAddr: 0x1000099D0, symSize: 0x3C }
  - { offsetInCU: 0x14192, offset: 0x14192, size: 0x8, addend: 0x0, symName: __ZNSt3__14moveB7v160006IPPN7CoTrain4TaskES4_EET0_T_S6_S5_, symObjAddr: 0x8C74, symBinAddr: 0x100009AB4, symSize: 0x40 }
  - { offsetInCU: 0x141F0, offset: 0x141F0, size: 0x8, addend: 0x0, symName: __ZNSt3__16__moveB7v160006INS_17_ClassicAlgPolicyEPPN7CoTrain4TaskES5_S5_EENS_4pairIT0_T2_EES7_T1_S8_, symObjAddr: 0x8E18, symBinAddr: 0x100009C58, symSize: 0x44 }
  - { offsetInCU: 0x14260, offset: 0x14260, size: 0x8, addend: 0x0, symName: __ZNSt3__123__dispatch_copy_or_moveB7v160006INS_17_ClassicAlgPolicyENS_11__move_loopIS1_EENS_14__move_trivialEPPN7CoTrain4TaskES8_S8_EENS_4pairIT2_T4_EESA_T3_SB_, symObjAddr: 0x8E5C, symBinAddr: 0x100009C9C, symSize: 0x44 }
  - { offsetInCU: 0x142E2, offset: 0x142E2, size: 0x8, addend: 0x0, symName: __ZNSt3__121__unwrap_and_dispatchB7v160006INS_10__overloadINS_11__move_loopINS_17_ClassicAlgPolicyEEENS_14__move_trivialEEEPPN7CoTrain4TaskESA_SA_Li0EEENS_4pairIT0_T2_EESC_T1_SD_, symObjAddr: 0x8EA0, symBinAddr: 0x100009CE0, symSize: 0xB4 }
  - { offsetInCU: 0x14376, offset: 0x14376, size: 0x8, addend: 0x0, symName: __ZNSt3__114__unwrap_rangeB7v160006IPPN7CoTrain4TaskES4_EENS_4pairIT0_S6_EET_S8_, symObjAddr: 0x8F54, symBinAddr: 0x100009D94, symSize: 0x60 }
  - { offsetInCU: 0x1453D, offset: 0x1453D, size: 0x8, addend: 0x0, symName: __ZNSt3__113__unwrap_iterB7v160006IPPN7CoTrain4TaskENS_18__unwrap_iter_implIS4_Lb1EEELi0EEEDTclsrT0_8__unwrapclsr3stdE7declvalIT_EEEES8_, symObjAddr: 0x8FFC, symBinAddr: 0x100009E3C, symSize: 0x24 }
  - { offsetInCU: 0x14582, offset: 0x14582, size: 0x8, addend: 0x0, symName: __ZNSt3__19make_pairB7v160006IPPN7CoTrain4TaskES4_EENS_4pairINS_18__unwrap_ref_decayIT_E4typeENS6_IT0_E4typeEEEOS7_OSA_, symObjAddr: 0x9020, symBinAddr: 0x100009E60, symSize: 0x38 }
  - { offsetInCU: 0x145D2, offset: 0x145D2, size: 0x8, addend: 0x0, symName: __ZNSt3__114__rewrap_rangeB7v160006IPPN7CoTrain4TaskES4_EET_S5_T0_, symObjAddr: 0x9058, symBinAddr: 0x100009E98, symSize: 0x2C }
  - { offsetInCU: 0x14621, offset: 0x14621, size: 0x8, addend: 0x0, symName: __ZNSt3__113__rewrap_iterB7v160006IPPN7CoTrain4TaskES4_NS_18__unwrap_iter_implIS4_Lb1EEEEET_S7_T0_, symObjAddr: 0x9084, symBinAddr: 0x100009EC4, symSize: 0x3C }
  - { offsetInCU: 0x14679, offset: 0x14679, size: 0x8, addend: 0x0, symName: __ZNSt3__119__copy_trivial_implB7v160006IPN7CoTrain4TaskES3_EENS_4pairIPT_PT0_EES6_S6_S8_, symObjAddr: 0x90C0, symBinAddr: 0x100009F00, symSize: 0x84 }
  - { offsetInCU: 0x146E5, offset: 0x146E5, size: 0x8, addend: 0x0, symName: __ZNSt3__19make_pairB7v160006IRPPN7CoTrain4TaskES4_EENS_4pairINS_18__unwrap_ref_decayIT_E4typeENS7_IT0_E4typeEEEOS8_OSB_, symObjAddr: 0x9144, symBinAddr: 0x100009F84, symSize: 0x38 }
  - { offsetInCU: 0x14788, offset: 0x14788, size: 0x8, addend: 0x0, symName: __ZNSt3__18distanceB7v160006INS_13move_iteratorIPPN7CoTrain4TaskEEEEENS_15iterator_traitsIT_E15difference_typeES8_S8_, symObjAddr: 0x92D0, symBinAddr: 0x10000A110, symSize: 0x3C }
  - { offsetInCU: 0x147CE, offset: 0x147CE, size: 0x8, addend: 0x0, symName: __ZNSt3__110__distanceB7v160006INS_13move_iteratorIPPN7CoTrain4TaskEEEEENS_15iterator_traitsIT_E15difference_typeES8_S8_NS_26random_access_iterator_tagE, symObjAddr: 0x9408, symBinAddr: 0x10000A248, symSize: 0x30 }
  - { offsetInCU: 0x1481D, offset: 0x1481D, size: 0x8, addend: 0x0, symName: __ZNSt3__1miB7v160006IPPN7CoTrain4TaskES4_EEDTmicldtfp_4baseEcldtfp0_4baseEERKNS_13move_iteratorIT_EERKNS6_IT0_EE, symObjAddr: 0x9438, symBinAddr: 0x10000A278, symSize: 0x48 }
  - { offsetInCU: 0x1486D, offset: 0x1486D, size: 0x8, addend: 0x0, symName: __ZNSt3__113move_backwardB7v160006IPPN7CoTrain4TaskES4_EET0_T_S6_S5_, symObjAddr: 0x9644, symBinAddr: 0x10000A484, symSize: 0x40 }
  - { offsetInCU: 0x148CB, offset: 0x148CB, size: 0x8, addend: 0x0, symName: __ZNSt3__115__move_backwardB7v160006INS_17_ClassicAlgPolicyEPPN7CoTrain4TaskES5_S5_EENS_4pairIT0_T2_EES7_T1_S8_, symObjAddr: 0x9684, symBinAddr: 0x10000A4C4, symSize: 0x44 }
  - { offsetInCU: 0x1493B, offset: 0x1493B, size: 0x8, addend: 0x0, symName: __ZNSt3__123__dispatch_copy_or_moveB7v160006INS_17_ClassicAlgPolicyENS_20__move_backward_loopIS1_EENS_23__move_backward_trivialEPPN7CoTrain4TaskES8_S8_EENS_4pairIT2_T4_EESA_T3_SB_, symObjAddr: 0x96C8, symBinAddr: 0x10000A508, symSize: 0x44 }
  - { offsetInCU: 0x149BD, offset: 0x149BD, size: 0x8, addend: 0x0, symName: __ZNSt3__121__unwrap_and_dispatchB7v160006INS_10__overloadINS_20__move_backward_loopINS_17_ClassicAlgPolicyEEENS_23__move_backward_trivialEEEPPN7CoTrain4TaskESA_SA_Li0EEENS_4pairIT0_T2_EESC_T1_SD_, symObjAddr: 0x970C, symBinAddr: 0x10000A54C, symSize: 0xB4 }
  - { offsetInCU: 0x14A97, offset: 0x14A97, size: 0x8, addend: 0x0, symName: __ZNSt3__128__copy_backward_trivial_implB7v160006IPN7CoTrain4TaskES3_EENS_4pairIPT_PT0_EES6_S6_S8_, symObjAddr: 0x9808, symBinAddr: 0x10000A648, symSize: 0x94 }
  - { offsetInCU: 0x14B03, offset: 0x14B03, size: 0x8, addend: 0x0, symName: __ZNSt3__19make_pairB7v160006IRPPN7CoTrain4TaskES5_EENS_4pairINS_18__unwrap_ref_decayIT_E4typeENS7_IT0_E4typeEEEOS8_OSB_, symObjAddr: 0x989C, symBinAddr: 0x10000A6DC, symSize: 0x38 }
  - { offsetInCU: 0x14B53, offset: 0x14B53, size: 0x8, addend: 0x0, symName: __ZNSt3__13maxB7v160006ImNS_6__lessImmEEEERKT_S5_S5_T0_, symObjAddr: 0x9944, symBinAddr: 0x10000A784, symSize: 0x54 }
  - { offsetInCU: 0x14BEC, offset: 0x14BEC, size: 0x8, addend: 0x0, symName: __ZNSt3__119__allocate_at_leastB7v160006INS_9allocatorIPN7CoTrain4TaskEEEEENS_19__allocation_resultINS_16allocator_traitsIT_E7pointerEEERS8_m, symObjAddr: 0x9ADC, symBinAddr: 0x10000A91C, symSize: 0x40 }
  - { offsetInCU: 0x1526E, offset: 0x1526E, size: 0x8, addend: 0x0, symName: '__ZNSt3__116forward_as_tupleB7v160006IJNS_6__bindIZN7CoTrain11LogMannager4infoENS_10shared_ptrINS2_8LogEventEEEE3$_1JEEEEEENS_5tupleIJDpOT_EEESC_', symObjAddr: 0xAF68, symBinAddr: 0x10000BDA8, symSize: 0x2C }
  - { offsetInCU: 0x152A7, offset: 0x152A7, size: 0x8, addend: 0x0, symName: '__ZNSt3__116forward_as_tupleB7v160006IJNS_9allocatorINS_6__bindIZN7CoTrain11LogMannager4infoENS_10shared_ptrINS3_8LogEventEEEE3$_1JEEEEEEEENS_5tupleIJDpOT_EEESE_', symObjAddr: 0xAF94, symBinAddr: 0x10000BDD4, symSize: 0x2C }
  - { offsetInCU: 0x1530A, offset: 0x1530A, size: 0x8, addend: 0x0, symName: '__ZNSt3__13getB7v160006ILm0EJONS_6__bindIZN7CoTrain11LogMannager4infoENS_10shared_ptrINS2_8LogEventEEEE3$_1JEEEEEERNS_13tuple_elementIXT_ENS_5tupleIJDpT0_EEEE4typeERSE_', symObjAddr: 0xB300, symBinAddr: 0x10000C140, symSize: 0x24 }
  - { offsetInCU: 0x1534D, offset: 0x1534D, size: 0x8, addend: 0x0, symName: '__ZNSt3__13getB7v160006ILm0EJONS_9allocatorINS_6__bindIZN7CoTrain11LogMannager4infoENS_10shared_ptrINS3_8LogEventEEEE3$_1JEEEEEEEERNS_13tuple_elementIXT_ENS_5tupleIJDpT0_EEEE4typeERSG_', symObjAddr: 0xB3A4, symBinAddr: 0x10000C1E4, symSize: 0x24 }
  - { offsetInCU: 0x1551D, offset: 0x1551D, size: 0x8, addend: 0x0, symName: '__ZNSt3__116forward_as_tupleB7v160006IJRKNS_6__bindIZN7CoTrain11LogMannager4infoENS_10shared_ptrINS2_8LogEventEEEE3$_1JEEEEEENS_5tupleIJDpOT_EEESE_', symObjAddr: 0xB86C, symBinAddr: 0x10000C6AC, symSize: 0x2C }
  - { offsetInCU: 0x1556B, offset: 0x1556B, size: 0x8, addend: 0x0, symName: '__ZNSt3__13getB7v160006ILm0EJRKNS_6__bindIZN7CoTrain11LogMannager4infoENS_10shared_ptrINS2_8LogEventEEEE3$_1JEEEEEERNS_13tuple_elementIXT_ENS_5tupleIJDpT0_EEEE4typeERSF_', symObjAddr: 0xBA5C, symBinAddr: 0x10000C89C, symSize: 0x24 }
  - { offsetInCU: 0x155AE, offset: 0x155AE, size: 0x8, addend: 0x0, symName: '__ZNSt3__116forward_as_tupleB7v160006IJRKNS_9allocatorINS_6__bindIZN7CoTrain11LogMannager4infoENS_10shared_ptrINS3_8LogEventEEEE3$_1JEEEEEEEENS_5tupleIJDpOT_EEESG_', symObjAddr: 0xBEA0, symBinAddr: 0x10000CCE0, symSize: 0x2C }
  - { offsetInCU: 0x155FC, offset: 0x155FC, size: 0x8, addend: 0x0, symName: '__ZNSt3__13getB7v160006ILm0EJRKNS_9allocatorINS_6__bindIZN7CoTrain11LogMannager4infoENS_10shared_ptrINS3_8LogEventEEEE3$_1JEEEEEEEERNS_13tuple_elementIXT_ENS_5tupleIJDpT0_EEEE4typeERSH_', symObjAddr: 0xC0AC, symBinAddr: 0x10000CEEC, symSize: 0x24 }
  - { offsetInCU: 0x1563F, offset: 0x1563F, size: 0x8, addend: 0x0, symName: '__ZNSt3__18__invokeB7v160006IRNS_6__bindIZN7CoTrain11LogMannager4infoENS_10shared_ptrINS2_8LogEventEEEE3$_1JEEEJEEEDTclclsr3stdE7declvalIT_EEspclsr3stdE7declvalIT0_EEEEOSA_DpOSB_', symObjAddr: 0xC17C, symBinAddr: 0x10000CFBC, symSize: 0x24 }
  - { offsetInCU: 0x156B1, offset: 0x156B1, size: 0x8, addend: 0x0, symName: '__ZNSt3__115__apply_functorB7v160006IZN7CoTrain11LogMannager4infoENS_10shared_ptrINS1_8LogEventEEEE3$_1NS_5tupleIJEEEJES8_EENS_13__bind_returnIT_T0_T2_Xsr22__is_valid_bind_returnISA_SB_SC_EE5valueEE4typeERSA_RSB_NS_15__tuple_indicesIJXspT1_EEEEOSC_', symObjAddr: 0xC1D0, symBinAddr: 0x10000D010, symSize: 0x2C }
  - { offsetInCU: 0x1572A, offset: 0x1572A, size: 0x8, addend: 0x0, symName: '__ZNSt3__18__invokeB7v160006IRZN7CoTrain11LogMannager4infoENS_10shared_ptrINS1_8LogEventEEEE3$_1JEEEDTclclsr3stdE7declvalIT_EEspclsr3stdE7declvalIT0_EEEEOS8_DpOS9_', symObjAddr: 0xC1FC, symBinAddr: 0x10000D03C, symSize: 0x24 }
  - { offsetInCU: 0x15D9F, offset: 0x15D9F, size: 0x8, addend: 0x0, symName: '__ZNSt3__116forward_as_tupleB7v160006IJNS_6__bindIZN7CoTrain11LogMannager4warnENS_10shared_ptrINS2_8LogEventEEEE3$_2JEEEEEENS_5tupleIJDpOT_EEESC_', symObjAddr: 0xCF88, symBinAddr: 0x10000DDC8, symSize: 0x2C }
  - { offsetInCU: 0x15DD8, offset: 0x15DD8, size: 0x8, addend: 0x0, symName: '__ZNSt3__116forward_as_tupleB7v160006IJNS_9allocatorINS_6__bindIZN7CoTrain11LogMannager4warnENS_10shared_ptrINS3_8LogEventEEEE3$_2JEEEEEEEENS_5tupleIJDpOT_EEESE_', symObjAddr: 0xCFB4, symBinAddr: 0x10000DDF4, symSize: 0x2C }
  - { offsetInCU: 0x15E3B, offset: 0x15E3B, size: 0x8, addend: 0x0, symName: '__ZNSt3__13getB7v160006ILm0EJONS_6__bindIZN7CoTrain11LogMannager4warnENS_10shared_ptrINS2_8LogEventEEEE3$_2JEEEEEERNS_13tuple_elementIXT_ENS_5tupleIJDpT0_EEEE4typeERSE_', symObjAddr: 0xD320, symBinAddr: 0x10000E160, symSize: 0x24 }
  - { offsetInCU: 0x15E7E, offset: 0x15E7E, size: 0x8, addend: 0x0, symName: '__ZNSt3__13getB7v160006ILm0EJONS_9allocatorINS_6__bindIZN7CoTrain11LogMannager4warnENS_10shared_ptrINS3_8LogEventEEEE3$_2JEEEEEEEERNS_13tuple_elementIXT_ENS_5tupleIJDpT0_EEEE4typeERSG_', symObjAddr: 0xD3C4, symBinAddr: 0x10000E204, symSize: 0x24 }
  - { offsetInCU: 0x1604E, offset: 0x1604E, size: 0x8, addend: 0x0, symName: '__ZNSt3__116forward_as_tupleB7v160006IJRKNS_6__bindIZN7CoTrain11LogMannager4warnENS_10shared_ptrINS2_8LogEventEEEE3$_2JEEEEEENS_5tupleIJDpOT_EEESE_', symObjAddr: 0xD88C, symBinAddr: 0x10000E6CC, symSize: 0x2C }
  - { offsetInCU: 0x1609C, offset: 0x1609C, size: 0x8, addend: 0x0, symName: '__ZNSt3__13getB7v160006ILm0EJRKNS_6__bindIZN7CoTrain11LogMannager4warnENS_10shared_ptrINS2_8LogEventEEEE3$_2JEEEEEERNS_13tuple_elementIXT_ENS_5tupleIJDpT0_EEEE4typeERSF_', symObjAddr: 0xDA7C, symBinAddr: 0x10000E8BC, symSize: 0x24 }
  - { offsetInCU: 0x160DF, offset: 0x160DF, size: 0x8, addend: 0x0, symName: '__ZNSt3__116forward_as_tupleB7v160006IJRKNS_9allocatorINS_6__bindIZN7CoTrain11LogMannager4warnENS_10shared_ptrINS3_8LogEventEEEE3$_2JEEEEEEEENS_5tupleIJDpOT_EEESG_', symObjAddr: 0xDEC0, symBinAddr: 0x10000ED00, symSize: 0x2C }
  - { offsetInCU: 0x1612D, offset: 0x1612D, size: 0x8, addend: 0x0, symName: '__ZNSt3__13getB7v160006ILm0EJRKNS_9allocatorINS_6__bindIZN7CoTrain11LogMannager4warnENS_10shared_ptrINS3_8LogEventEEEE3$_2JEEEEEEEERNS_13tuple_elementIXT_ENS_5tupleIJDpT0_EEEE4typeERSH_', symObjAddr: 0xE0CC, symBinAddr: 0x10000EF0C, symSize: 0x24 }
  - { offsetInCU: 0x16170, offset: 0x16170, size: 0x8, addend: 0x0, symName: '__ZNSt3__18__invokeB7v160006IRNS_6__bindIZN7CoTrain11LogMannager4warnENS_10shared_ptrINS2_8LogEventEEEE3$_2JEEEJEEEDTclclsr3stdE7declvalIT_EEspclsr3stdE7declvalIT0_EEEEOSA_DpOSB_', symObjAddr: 0xE19C, symBinAddr: 0x10000EFDC, symSize: 0x24 }
  - { offsetInCU: 0x161E2, offset: 0x161E2, size: 0x8, addend: 0x0, symName: '__ZNSt3__115__apply_functorB7v160006IZN7CoTrain11LogMannager4warnENS_10shared_ptrINS1_8LogEventEEEE3$_2NS_5tupleIJEEEJES8_EENS_13__bind_returnIT_T0_T2_Xsr22__is_valid_bind_returnISA_SB_SC_EE5valueEE4typeERSA_RSB_NS_15__tuple_indicesIJXspT1_EEEEOSC_', symObjAddr: 0xE1F0, symBinAddr: 0x10000F030, symSize: 0x2C }
  - { offsetInCU: 0x1625B, offset: 0x1625B, size: 0x8, addend: 0x0, symName: '__ZNSt3__18__invokeB7v160006IRZN7CoTrain11LogMannager4warnENS_10shared_ptrINS1_8LogEventEEEE3$_2JEEEDTclclsr3stdE7declvalIT_EEspclsr3stdE7declvalIT0_EEEEOS8_DpOS9_', symObjAddr: 0xE21C, symBinAddr: 0x10000F05C, symSize: 0x24 }
  - { offsetInCU: 0x168D0, offset: 0x168D0, size: 0x8, addend: 0x0, symName: '__ZNSt3__116forward_as_tupleB7v160006IJNS_6__bindIZN7CoTrain11LogMannager5errorENS_10shared_ptrINS2_8LogEventEEEE3$_3JEEEEEENS_5tupleIJDpOT_EEESC_', symObjAddr: 0xEFA8, symBinAddr: 0x10000FDE8, symSize: 0x2C }
  - { offsetInCU: 0x16909, offset: 0x16909, size: 0x8, addend: 0x0, symName: '__ZNSt3__116forward_as_tupleB7v160006IJNS_9allocatorINS_6__bindIZN7CoTrain11LogMannager5errorENS_10shared_ptrINS3_8LogEventEEEE3$_3JEEEEEEEENS_5tupleIJDpOT_EEESE_', symObjAddr: 0xEFD4, symBinAddr: 0x10000FE14, symSize: 0x2C }
  - { offsetInCU: 0x1696C, offset: 0x1696C, size: 0x8, addend: 0x0, symName: '__ZNSt3__13getB7v160006ILm0EJONS_6__bindIZN7CoTrain11LogMannager5errorENS_10shared_ptrINS2_8LogEventEEEE3$_3JEEEEEERNS_13tuple_elementIXT_ENS_5tupleIJDpT0_EEEE4typeERSE_', symObjAddr: 0xF340, symBinAddr: 0x100010180, symSize: 0x24 }
  - { offsetInCU: 0x169AF, offset: 0x169AF, size: 0x8, addend: 0x0, symName: '__ZNSt3__13getB7v160006ILm0EJONS_9allocatorINS_6__bindIZN7CoTrain11LogMannager5errorENS_10shared_ptrINS3_8LogEventEEEE3$_3JEEEEEEEERNS_13tuple_elementIXT_ENS_5tupleIJDpT0_EEEE4typeERSG_', symObjAddr: 0xF3E4, symBinAddr: 0x100010224, symSize: 0x24 }
  - { offsetInCU: 0x16B7F, offset: 0x16B7F, size: 0x8, addend: 0x0, symName: '__ZNSt3__116forward_as_tupleB7v160006IJRKNS_6__bindIZN7CoTrain11LogMannager5errorENS_10shared_ptrINS2_8LogEventEEEE3$_3JEEEEEENS_5tupleIJDpOT_EEESE_', symObjAddr: 0xF8AC, symBinAddr: 0x1000106EC, symSize: 0x2C }
  - { offsetInCU: 0x16BCD, offset: 0x16BCD, size: 0x8, addend: 0x0, symName: '__ZNSt3__13getB7v160006ILm0EJRKNS_6__bindIZN7CoTrain11LogMannager5errorENS_10shared_ptrINS2_8LogEventEEEE3$_3JEEEEEERNS_13tuple_elementIXT_ENS_5tupleIJDpT0_EEEE4typeERSF_', symObjAddr: 0xFA9C, symBinAddr: 0x1000108DC, symSize: 0x24 }
  - { offsetInCU: 0x16C10, offset: 0x16C10, size: 0x8, addend: 0x0, symName: '__ZNSt3__116forward_as_tupleB7v160006IJRKNS_9allocatorINS_6__bindIZN7CoTrain11LogMannager5errorENS_10shared_ptrINS3_8LogEventEEEE3$_3JEEEEEEEENS_5tupleIJDpOT_EEESG_', symObjAddr: 0xFEE0, symBinAddr: 0x100010D20, symSize: 0x2C }
  - { offsetInCU: 0x16C5E, offset: 0x16C5E, size: 0x8, addend: 0x0, symName: '__ZNSt3__13getB7v160006ILm0EJRKNS_9allocatorINS_6__bindIZN7CoTrain11LogMannager5errorENS_10shared_ptrINS3_8LogEventEEEE3$_3JEEEEEEEERNS_13tuple_elementIXT_ENS_5tupleIJDpT0_EEEE4typeERSH_', symObjAddr: 0x100EC, symBinAddr: 0x100010F2C, symSize: 0x24 }
  - { offsetInCU: 0x16CA1, offset: 0x16CA1, size: 0x8, addend: 0x0, symName: '__ZNSt3__18__invokeB7v160006IRNS_6__bindIZN7CoTrain11LogMannager5errorENS_10shared_ptrINS2_8LogEventEEEE3$_3JEEEJEEEDTclclsr3stdE7declvalIT_EEspclsr3stdE7declvalIT0_EEEEOSA_DpOSB_', symObjAddr: 0x101BC, symBinAddr: 0x100010FFC, symSize: 0x24 }
  - { offsetInCU: 0x16D13, offset: 0x16D13, size: 0x8, addend: 0x0, symName: '__ZNSt3__115__apply_functorB7v160006IZN7CoTrain11LogMannager5errorENS_10shared_ptrINS1_8LogEventEEEE3$_3NS_5tupleIJEEEJES8_EENS_13__bind_returnIT_T0_T2_Xsr22__is_valid_bind_returnISA_SB_SC_EE5valueEE4typeERSA_RSB_NS_15__tuple_indicesIJXspT1_EEEEOSC_', symObjAddr: 0x10210, symBinAddr: 0x100011050, symSize: 0x2C }
  - { offsetInCU: 0x16D8C, offset: 0x16D8C, size: 0x8, addend: 0x0, symName: '__ZNSt3__18__invokeB7v160006IRZN7CoTrain11LogMannager5errorENS_10shared_ptrINS1_8LogEventEEEE3$_3JEEEDTclclsr3stdE7declvalIT_EEspclsr3stdE7declvalIT0_EEEEOS8_DpOS9_', symObjAddr: 0x1023C, symBinAddr: 0x10001107C, symSize: 0x24 }
  - { offsetInCU: 0x17401, offset: 0x17401, size: 0x8, addend: 0x0, symName: '__ZNSt3__116forward_as_tupleB7v160006IJNS_6__bindIZN7CoTrain11LogMannager5fatalENS_10shared_ptrINS2_8LogEventEEEE3$_4JEEEEEENS_5tupleIJDpOT_EEESC_', symObjAddr: 0x10FC8, symBinAddr: 0x100011E08, symSize: 0x2C }
  - { offsetInCU: 0x1743A, offset: 0x1743A, size: 0x8, addend: 0x0, symName: '__ZNSt3__116forward_as_tupleB7v160006IJNS_9allocatorINS_6__bindIZN7CoTrain11LogMannager5fatalENS_10shared_ptrINS3_8LogEventEEEE3$_4JEEEEEEEENS_5tupleIJDpOT_EEESE_', symObjAddr: 0x10FF4, symBinAddr: 0x100011E34, symSize: 0x2C }
  - { offsetInCU: 0x1749D, offset: 0x1749D, size: 0x8, addend: 0x0, symName: '__ZNSt3__13getB7v160006ILm0EJONS_6__bindIZN7CoTrain11LogMannager5fatalENS_10shared_ptrINS2_8LogEventEEEE3$_4JEEEEEERNS_13tuple_elementIXT_ENS_5tupleIJDpT0_EEEE4typeERSE_', symObjAddr: 0x11360, symBinAddr: 0x1000121A0, symSize: 0x24 }
  - { offsetInCU: 0x174E0, offset: 0x174E0, size: 0x8, addend: 0x0, symName: '__ZNSt3__13getB7v160006ILm0EJONS_9allocatorINS_6__bindIZN7CoTrain11LogMannager5fatalENS_10shared_ptrINS3_8LogEventEEEE3$_4JEEEEEEEERNS_13tuple_elementIXT_ENS_5tupleIJDpT0_EEEE4typeERSG_', symObjAddr: 0x11404, symBinAddr: 0x100012244, symSize: 0x24 }
  - { offsetInCU: 0x176B0, offset: 0x176B0, size: 0x8, addend: 0x0, symName: '__ZNSt3__116forward_as_tupleB7v160006IJRKNS_6__bindIZN7CoTrain11LogMannager5fatalENS_10shared_ptrINS2_8LogEventEEEE3$_4JEEEEEENS_5tupleIJDpOT_EEESE_', symObjAddr: 0x118CC, symBinAddr: 0x10001270C, symSize: 0x2C }
  - { offsetInCU: 0x176FE, offset: 0x176FE, size: 0x8, addend: 0x0, symName: '__ZNSt3__13getB7v160006ILm0EJRKNS_6__bindIZN7CoTrain11LogMannager5fatalENS_10shared_ptrINS2_8LogEventEEEE3$_4JEEEEEERNS_13tuple_elementIXT_ENS_5tupleIJDpT0_EEEE4typeERSF_', symObjAddr: 0x11ABC, symBinAddr: 0x1000128FC, symSize: 0x24 }
  - { offsetInCU: 0x17741, offset: 0x17741, size: 0x8, addend: 0x0, symName: '__ZNSt3__116forward_as_tupleB7v160006IJRKNS_9allocatorINS_6__bindIZN7CoTrain11LogMannager5fatalENS_10shared_ptrINS3_8LogEventEEEE3$_4JEEEEEEEENS_5tupleIJDpOT_EEESG_', symObjAddr: 0x11F00, symBinAddr: 0x100012D40, symSize: 0x2C }
  - { offsetInCU: 0x1778F, offset: 0x1778F, size: 0x8, addend: 0x0, symName: '__ZNSt3__13getB7v160006ILm0EJRKNS_9allocatorINS_6__bindIZN7CoTrain11LogMannager5fatalENS_10shared_ptrINS3_8LogEventEEEE3$_4JEEEEEEEERNS_13tuple_elementIXT_ENS_5tupleIJDpT0_EEEE4typeERSH_', symObjAddr: 0x1210C, symBinAddr: 0x100012F4C, symSize: 0x24 }
  - { offsetInCU: 0x177D2, offset: 0x177D2, size: 0x8, addend: 0x0, symName: '__ZNSt3__18__invokeB7v160006IRNS_6__bindIZN7CoTrain11LogMannager5fatalENS_10shared_ptrINS2_8LogEventEEEE3$_4JEEEJEEEDTclclsr3stdE7declvalIT_EEspclsr3stdE7declvalIT0_EEEEOSA_DpOSB_', symObjAddr: 0x121DC, symBinAddr: 0x10001301C, symSize: 0x24 }
  - { offsetInCU: 0x17844, offset: 0x17844, size: 0x8, addend: 0x0, symName: '__ZNSt3__115__apply_functorB7v160006IZN7CoTrain11LogMannager5fatalENS_10shared_ptrINS1_8LogEventEEEE3$_4NS_5tupleIJEEEJES8_EENS_13__bind_returnIT_T0_T2_Xsr22__is_valid_bind_returnISA_SB_SC_EE5valueEE4typeERSA_RSB_NS_15__tuple_indicesIJXspT1_EEEEOSC_', symObjAddr: 0x12230, symBinAddr: 0x100013070, symSize: 0x2C }
  - { offsetInCU: 0x178BD, offset: 0x178BD, size: 0x8, addend: 0x0, symName: '__ZNSt3__18__invokeB7v160006IRZN7CoTrain11LogMannager5fatalENS_10shared_ptrINS1_8LogEventEEEE3$_4JEEEDTclclsr3stdE7declvalIT_EEspclsr3stdE7declvalIT0_EEEEOS8_DpOS9_', symObjAddr: 0x1225C, symBinAddr: 0x10001309C, symSize: 0x24 }
  - { offsetInCU: 0x18313, offset: 0x18313, size: 0x8, addend: 0x0, symName: __ZNSt3__118__debug_db_erase_cB7v160006INS_10__list_impINS_10shared_ptrIN7CoTrain11LogAppenderEEENS_9allocatorIS5_EEEEEEvPT_, symObjAddr: 0x12E0C, symBinAddr: 0x100013C4C, symSize: 0x10 }
  - { offsetInCU: 0x18346, offset: 0x18346, size: 0x8, addend: 0x0, symName: __ZNSt3__125__debug_db_invalidate_allB7v160006INS_10__list_impINS_10shared_ptrIN7CoTrain11LogAppenderEEENS_9allocatorIS5_EEEEEEvPT_, symObjAddr: 0x12E50, symBinAddr: 0x100013C90, symSize: 0x10 }
  - { offsetInCU: 0x18503, offset: 0x18503, size: 0x8, addend: 0x0, symName: __ZNSt3__14swapB7v160006IPN7CoTrain6LoggerEEENS_9enable_ifIXaasr21is_move_constructibleIT_EE5valuesr18is_move_assignableIS5_EE5valueEvE4typeERS5_S8_, symObjAddr: 0x131F0, symBinAddr: 0x100014030, symSize: 0x3C }
  - { offsetInCU: 0x1A0A4, offset: 0x1A0A4, size: 0x8, addend: 0x0, symName: __ZNSt3__122__libcpp_thread_createB7v160006EPP17_opaque_pthread_tPFPvS3_ES3_, symObjAddr: 0x14B84, symBinAddr: 0x1000159C4, symSize: 0x38 }
  - { offsetInCU: 0x1A0F0, offset: 0x1A0F0, size: 0x8, addend: 0x0, symName: '__ZNSt3__114__thread_proxyB7v160006INS_5tupleIJNS_10unique_ptrINS_15__thread_structENS_14default_deleteIS3_EEEEZN7CoTrain11LogMannager4initEvE3$_5EEEEEPvSB_', symObjAddr: 0x14BBC, symBinAddr: 0x1000159FC, symSize: 0x90 }
  - { offsetInCU: 0x1A237, offset: 0x1A237, size: 0x8, addend: 0x0, symName: '__ZNSt3__13getB7v160006ILm0EJNS_10unique_ptrINS_15__thread_structENS_14default_deleteIS2_EEEEZN7CoTrain11LogMannager4initEvE3$_5EEERNS_13tuple_elementIXT_ENS_5tupleIJDpT0_EEEE4typeERSD_', symObjAddr: 0x15270, symBinAddr: 0x1000160B0, symSize: 0x24 }
  - { offsetInCU: 0x1A280, offset: 0x1A280, size: 0x8, addend: 0x0, symName: '__ZNSt3__116__thread_executeB7v160006INS_10unique_ptrINS_15__thread_structENS_14default_deleteIS2_EEEEZN7CoTrain11LogMannager4initEvE3$_5JEJEEEvRNS_5tupleIJT_T0_DpT1_EEENS_15__tuple_indicesIJXspT2_EEEE', symObjAddr: 0x15294, symBinAddr: 0x1000160D4, symSize: 0x28 }
  - { offsetInCU: 0x1A2D2, offset: 0x1A2D2, size: 0x8, addend: 0x0, symName: __ZNSt3__116__libcpp_tls_setB7v160006EmPv, symObjAddr: 0x152BC, symBinAddr: 0x1000160FC, symSize: 0x2C }
  - { offsetInCU: 0x1A310, offset: 0x1A310, size: 0x8, addend: 0x0, symName: '__ZNSt3__18__invokeB7v160006IZN7CoTrain11LogMannager4initEvE3$_5JEEEDTclclsr3stdE7declvalIT_EEspclsr3stdE7declvalIT0_EEEEOS4_DpOS5_', symObjAddr: 0x152FC, symBinAddr: 0x10001613C, symSize: 0x24 }
  - { offsetInCU: 0x1A348, offset: 0x1A348, size: 0x8, addend: 0x0, symName: '__ZNSt3__13getB7v160006ILm1EJNS_10unique_ptrINS_15__thread_structENS_14default_deleteIS2_EEEEZN7CoTrain11LogMannager4initEvE3$_5EEERNS_13tuple_elementIXT_ENS_5tupleIJDpT0_EEEE4typeERSD_', symObjAddr: 0x15320, symBinAddr: 0x100016160, symSize: 0x28 }
  - { offsetInCU: 0x1A391, offset: 0x1A391, size: 0x8, addend: 0x0, symName: __ZNSt3__112__to_addressB7v160006IN7CoTrain4TaskEEEPT_S4_, symObjAddr: 0x15870, symBinAddr: 0x1000166B0, symSize: 0x14 }
  - { offsetInCU: 0x1A3C8, offset: 0x1A3C8, size: 0x8, addend: 0x0, symName: __ZNSt3__125__throw_bad_function_callB7v160006Ev, symObjAddr: 0x159DC, symBinAddr: 0x10001681C, symSize: 0x38 }
  - { offsetInCU: 0x1AFC0, offset: 0x1AFC0, size: 0x8, addend: 0x0, symName: __ZNSt3__14swapB7v160006IPN7CoTrain6ThreadEEENS_9enable_ifIXaasr21is_move_constructibleIT_EE5valuesr18is_move_assignableIS5_EE5valueEvE4typeERS5_S8_, symObjAddr: 0x16A20, symBinAddr: 0x100017860, symSize: 0x3C }
  - { offsetInCU: 0x1C1E3, offset: 0x1C1E3, size: 0x8, addend: 0x0, symName: __ZSt28__throw_bad_array_new_lengthB7v160006v, symObjAddr: 0x4328, symBinAddr: 0x100005168, symSize: 0x34 }
  - { offsetInCU: 0x1D6E1, offset: 0x1D6E1, size: 0x8, addend: 0x0, symName: __ZN7CoTrain11LogMannager5debugENSt3__110shared_ptrINS_8LogEventEEE, symObjAddr: 0xE30, symBinAddr: 0x100001C70, symSize: 0x108 }
  - { offsetInCU: 0x1DAB1, offset: 0x1DAB1, size: 0x8, addend: 0x0, symName: __ZN7CoTrain11LogMannager4infoENSt3__110shared_ptrINS_8LogEventEEE, symObjAddr: 0x1058, symBinAddr: 0x100001E98, symSize: 0x108 }
  - { offsetInCU: 0x1DDA5, offset: 0x1DDA5, size: 0x8, addend: 0x0, symName: __ZN7CoTrain11LogMannager4warnENSt3__110shared_ptrINS_8LogEventEEE, symObjAddr: 0x11C8, symBinAddr: 0x100002008, symSize: 0x108 }
  - { offsetInCU: 0x1E099, offset: 0x1E099, size: 0x8, addend: 0x0, symName: __ZN7CoTrain11LogMannager5errorENSt3__110shared_ptrINS_8LogEventEEE, symObjAddr: 0x1338, symBinAddr: 0x100002178, symSize: 0x108 }
  - { offsetInCU: 0x1E38D, offset: 0x1E38D, size: 0x8, addend: 0x0, symName: __ZN7CoTrain11LogMannager5fatalENSt3__110shared_ptrINS_8LogEventEEE, symObjAddr: 0x14A8, symBinAddr: 0x1000022E8, symSize: 0x108 }
  - { offsetInCU: 0x1E8B6, offset: 0x1E8B6, size: 0x8, addend: 0x0, symName: __ZN7CoTrain11LogMannager4initEv, symObjAddr: 0x1618, symBinAddr: 0x100002458, symSize: 0x3F4 }
  - { offsetInCU: 0x20B9F, offset: 0x20B9F, size: 0x8, addend: 0x0, symName: __ZN7CoTrain6LoggerC2ERKNSt3__112basic_stringIcNS1_11char_traitsIcEENS1_9allocatorIcEEEE, symObjAddr: 0x0, symBinAddr: 0x100000E40, symSize: 0x40 }
  - { offsetInCU: 0x20BDA, offset: 0x20BDA, size: 0x8, addend: 0x0, symName: __ZNSt3__14listINS_10shared_ptrIN7CoTrain11LogAppenderEEENS_9allocatorIS4_EEEC1B7v160006Ev, symObjAddr: 0x40, symBinAddr: 0x100000E80, symSize: 0x2C }
  - { offsetInCU: 0x20C04, offset: 0x20C04, size: 0x8, addend: 0x0, symName: __ZN7CoTrain6LoggerC1ERKNSt3__112basic_stringIcNS1_11char_traitsIcEENS1_9allocatorIcEEEE, symObjAddr: 0x6C, symBinAddr: 0x100000EAC, symSize: 0x34 }
  - { offsetInCU: 0x20C3F, offset: 0x20C3F, size: 0x8, addend: 0x0, symName: __ZN7CoTrain6Logger3logENS_8LogLevel5LevelENSt3__110shared_ptrINS_8LogEventEEE, symObjAddr: 0xA0, symBinAddr: 0x100000EE0, symSize: 0x10C }
  - { offsetInCU: 0x20CC8, offset: 0x20CC8, size: 0x8, addend: 0x0, symName: __ZNSt3__14listINS_10shared_ptrIN7CoTrain11LogAppenderEEENS_9allocatorIS4_EEE5beginB7v160006Ev, symObjAddr: 0x1AC, symBinAddr: 0x100000FEC, symSize: 0x2C }
  - { offsetInCU: 0x20CEE, offset: 0x20CEE, size: 0x8, addend: 0x0, symName: __ZNSt3__14listINS_10shared_ptrIN7CoTrain11LogAppenderEEENS_9allocatorIS4_EEE3endB7v160006Ev, symObjAddr: 0x1D8, symBinAddr: 0x100001018, symSize: 0x2C }
  - { offsetInCU: 0x20D14, offset: 0x20D14, size: 0x8, addend: 0x0, symName: __ZNKSt3__115__list_iteratorINS_10shared_ptrIN7CoTrain11LogAppenderEEEPvEdeB7v160006Ev, symObjAddr: 0x238, symBinAddr: 0x100001078, symSize: 0x2C }
  - { offsetInCU: 0x20D3A, offset: 0x20D3A, size: 0x8, addend: 0x0, symName: __ZNKSt3__110shared_ptrIN7CoTrain11LogAppenderEEptB7v160006Ev, symObjAddr: 0x264, symBinAddr: 0x1000010A4, symSize: 0x18 }
  - { offsetInCU: 0x20D60, offset: 0x20D60, size: 0x8, addend: 0x0, symName: __ZNSt3__110shared_ptrIN7CoTrain8LogEventEEC1B7v160006ERKS3_, symObjAddr: 0x27C, symBinAddr: 0x1000010BC, symSize: 0x34 }
  - { offsetInCU: 0x20D99, offset: 0x20D99, size: 0x8, addend: 0x0, symName: __ZNSt3__110shared_ptrIN7CoTrain8LogEventEED1B7v160006Ev, symObjAddr: 0x2B0, symBinAddr: 0x1000010F0, symSize: 0x2C }
  - { offsetInCU: 0x20DC3, offset: 0x20DC3, size: 0x8, addend: 0x0, symName: __ZNSt3__115__list_iteratorINS_10shared_ptrIN7CoTrain11LogAppenderEEEPvEppB7v160006Ev, symObjAddr: 0x2DC, symBinAddr: 0x10000111C, symSize: 0x20 }
  - { offsetInCU: 0x20DE9, offset: 0x20DE9, size: 0x8, addend: 0x0, symName: __ZN7CoTrain6Logger11addAppenderENSt3__110shared_ptrINS_11LogAppenderEEE, symObjAddr: 0x2FC, symBinAddr: 0x10000113C, symSize: 0x30 }
  - { offsetInCU: 0x20E21, offset: 0x20E21, size: 0x8, addend: 0x0, symName: __ZNSt3__14listINS_10shared_ptrIN7CoTrain11LogAppenderEEENS_9allocatorIS4_EEE9push_backERKS4_, symObjAddr: 0x32C, symBinAddr: 0x10000116C, symSize: 0xF4 }
  - { offsetInCU: 0x20E76, offset: 0x20E76, size: 0x8, addend: 0x0, symName: __ZN7CoTrain6Logger11delAppenderENSt3__110shared_ptrINS_11LogAppenderEEE, symObjAddr: 0x420, symBinAddr: 0x100001260, symSize: 0xDC }
  - { offsetInCU: 0x20ECC, offset: 0x20ECC, size: 0x8, addend: 0x0, symName: __ZNKSt3__110shared_ptrIN7CoTrain11LogAppenderEEcvbB7v160006Ev, symObjAddr: 0x4FC, symBinAddr: 0x10000133C, symSize: 0x30 }
  - { offsetInCU: 0x20EF2, offset: 0x20EF2, size: 0x8, addend: 0x0, symName: __ZNSt3__14listINS_10shared_ptrIN7CoTrain11LogAppenderEEENS_9allocatorIS4_EEE5eraseENS_21__list_const_iteratorIS4_PvEE, symObjAddr: 0x574, symBinAddr: 0x1000013B4, symSize: 0xA4 }
  - { offsetInCU: 0x20F65, offset: 0x20F65, size: 0x8, addend: 0x0, symName: __ZNSt3__121__list_const_iteratorINS_10shared_ptrIN7CoTrain11LogAppenderEEEPvEC1B7v160006ERKNS_15__list_iteratorIS4_S5_EE, symObjAddr: 0x618, symBinAddr: 0x100001458, symSize: 0x34 }
  - { offsetInCU: 0x20F9E, offset: 0x20F9E, size: 0x8, addend: 0x0, symName: __ZNSt3__115__list_iteratorINS_10shared_ptrIN7CoTrain11LogAppenderEEEPvEppB7v160006Ei, symObjAddr: 0x64C, symBinAddr: 0x10000148C, symSize: 0x34 }
  - { offsetInCU: 0x20FDF, offset: 0x20FDF, size: 0x8, addend: 0x0, symName: __ZN7CoTrain6Logger8setLevelENS_8LogLevel5LevelE, symObjAddr: 0x680, symBinAddr: 0x1000014C0, symSize: 0x98 }
  - { offsetInCU: 0x2106A, offset: 0x2106A, size: 0x8, addend: 0x0, symName: __ZN7CoTrain11LogAppender8setLevelENS_8LogLevel5LevelE, symObjAddr: 0x718, symBinAddr: 0x100001558, symSize: 0x20 }
  - { offsetInCU: 0x2109F, offset: 0x2109F, size: 0x8, addend: 0x0, symName: __ZN7CoTrain17StdOutLogAppender3logENS_8LogLevel5LevelENSt3__110shared_ptrINS_8LogEventEEE, symObjAddr: 0x738, symBinAddr: 0x100001578, symSize: 0x164 }
  - { offsetInCU: 0x210E6, offset: 0x210E6, size: 0x8, addend: 0x0, symName: __ZN7CoTrain11LogAppender14getLevelStringENS_8LogLevel5LevelE, symObjAddr: 0x930, symBinAddr: 0x100001770, symSize: 0xC4 }
  - { offsetInCU: 0x2111D, offset: 0x2111D, size: 0x8, addend: 0x0, symName: __ZNKSt3__110shared_ptrIN7CoTrain12LogFormatterEEptB7v160006Ev, symObjAddr: 0xA08, symBinAddr: 0x100001848, symSize: 0x18 }
  - { offsetInCU: 0x21143, offset: 0x21143, size: 0x8, addend: 0x0, symName: __ZNSt3__113basic_ostreamIcNS_11char_traitsIcEEElsB7v160006EPFRS3_S4_E, symObjAddr: 0xA20, symBinAddr: 0x100001860, symSize: 0x2C }
  - { offsetInCU: 0x21178, offset: 0x21178, size: 0x8, addend: 0x0, symName: __ZN7CoTrain15StdLogFormatter6formatENSt3__110shared_ptrINS_8LogEventEEE, symObjAddr: 0xAA4, symBinAddr: 0x1000018E4, symSize: 0x15C }
  - { offsetInCU: 0x212C9, offset: 0x212C9, size: 0x8, addend: 0x0, symName: __ZNSt3__118basic_stringstreamIcNS_11char_traitsIcEENS_9allocatorIcEEEC1B7v160006Ev, symObjAddr: 0xC00, symBinAddr: 0x100001A40, symSize: 0x104 }
  - { offsetInCU: 0x212F3, offset: 0x212F3, size: 0x8, addend: 0x0, symName: __ZNKSt3__110shared_ptrIN7CoTrain8LogEventEEptB7v160006Ev, symObjAddr: 0xD04, symBinAddr: 0x100001B44, symSize: 0x18 }
  - { offsetInCU: 0x21319, offset: 0x21319, size: 0x8, addend: 0x0, symName: __ZN7CoTrain8LogEvent11getThreadIdEv, symObjAddr: 0xD1C, symBinAddr: 0x100001B5C, symSize: 0x18 }
  - { offsetInCU: 0x2133F, offset: 0x2133F, size: 0x8, addend: 0x0, symName: __ZN7CoTrain8LogEvent7gettimeEv, symObjAddr: 0xD34, symBinAddr: 0x100001B74, symSize: 0x1C }
  - { offsetInCU: 0x21365, offset: 0x21365, size: 0x8, addend: 0x0, symName: __ZN7CoTrain8LogEvent10getcontentEv, symObjAddr: 0xD50, symBinAddr: 0x100001B90, symSize: 0x3C }
  - { offsetInCU: 0x2138B, offset: 0x2138B, size: 0x8, addend: 0x0, symName: __ZNKSt3__118basic_stringstreamIcNS_11char_traitsIcEENS_9allocatorIcEEE3strB7v160006Ev, symObjAddr: 0xD8C, symBinAddr: 0x100001BCC, symSize: 0x30 }
  - { offsetInCU: 0x213B7, offset: 0x213B7, size: 0x8, addend: 0x0, symName: __ZNSt3__118basic_stringstreamIcNS_11char_traitsIcEENS_9allocatorIcEEED1Ev, symObjAddr: 0xDBC, symBinAddr: 0x100001BFC, symSize: 0x40 }
  - { offsetInCU: 0x213EA, offset: 0x213EA, size: 0x8, addend: 0x0, symName: __ZNSt3__112basic_stringIcNS_11char_traitsIcEENS_9allocatorIcEEEC1B7v160006IDnEEPKc, symObjAddr: 0xDFC, symBinAddr: 0x100001C3C, symSize: 0x34 }
  - { offsetInCU: 0x21428, offset: 0x21428, size: 0x8, addend: 0x0, symName: __ZNSt3__111unique_lockINS_5mutexEEC1B7v160006ERS1_, symObjAddr: 0xF38, symBinAddr: 0x100001D78, symSize: 0x34 }
  - { offsetInCU: 0x21461, offset: 0x21461, size: 0x8, addend: 0x0, symName: __ZNSt3__15queueIN7CoTrain4TaskENS_5dequeIS2_NS_9allocatorIS2_EEEEE4pushB7v160006EOS2_, symObjAddr: 0xF6C, symBinAddr: 0x100001DAC, symSize: 0x2C }
  - { offsetInCU: 0x214A2, offset: 0x214A2, size: 0x8, addend: 0x0, symName: '__ZN7CoTrain4TaskC1IZNS_11LogMannager5debugENSt3__110shared_ptrINS_8LogEventEEEE3$_0JEEEiOT_DpOT0_', symObjAddr: 0xF98, symBinAddr: 0x100001DD8, symSize: 0x3C }
  - { offsetInCU: 0x214F8, offset: 0x214F8, size: 0x8, addend: 0x0, symName: __ZN7CoTrain4TaskD1Ev, symObjAddr: 0xFD4, symBinAddr: 0x100001E14, symSize: 0x2C }
  - { offsetInCU: 0x2152A, offset: 0x2152A, size: 0x8, addend: 0x0, symName: '__ZZN7CoTrain11LogMannager5debugENSt3__110shared_ptrINS_8LogEventEEEEN3$_0D1Ev', symObjAddr: 0x1000, symBinAddr: 0x100001E40, symSize: 0x2C }
  - { offsetInCU: 0x21556, offset: 0x21556, size: 0x8, addend: 0x0, symName: __ZNSt3__111unique_lockINS_5mutexEED1B7v160006Ev, symObjAddr: 0x102C, symBinAddr: 0x100001E6C, symSize: 0x2C }
  - { offsetInCU: 0x21586, offset: 0x21586, size: 0x8, addend: 0x0, symName: '__ZN7CoTrain4TaskC1IZNS_11LogMannager4infoENSt3__110shared_ptrINS_8LogEventEEEE3$_1JEEEiOT_DpOT0_', symObjAddr: 0x1160, symBinAddr: 0x100001FA0, symSize: 0x3C }
  - { offsetInCU: 0x215E2, offset: 0x215E2, size: 0x8, addend: 0x0, symName: '__ZZN7CoTrain11LogMannager4infoENSt3__110shared_ptrINS_8LogEventEEEEN3$_1D1Ev', symObjAddr: 0x119C, symBinAddr: 0x100001FDC, symSize: 0x2C }
  - { offsetInCU: 0x21614, offset: 0x21614, size: 0x8, addend: 0x0, symName: '__ZN7CoTrain4TaskC1IZNS_11LogMannager4warnENSt3__110shared_ptrINS_8LogEventEEEE3$_2JEEEiOT_DpOT0_', symObjAddr: 0x12D0, symBinAddr: 0x100002110, symSize: 0x3C }
  - { offsetInCU: 0x21670, offset: 0x21670, size: 0x8, addend: 0x0, symName: '__ZZN7CoTrain11LogMannager4warnENSt3__110shared_ptrINS_8LogEventEEEEN3$_2D1Ev', symObjAddr: 0x130C, symBinAddr: 0x10000214C, symSize: 0x2C }
  - { offsetInCU: 0x216A2, offset: 0x216A2, size: 0x8, addend: 0x0, symName: '__ZN7CoTrain4TaskC1IZNS_11LogMannager5errorENSt3__110shared_ptrINS_8LogEventEEEE3$_3JEEEiOT_DpOT0_', symObjAddr: 0x1440, symBinAddr: 0x100002280, symSize: 0x3C }
  - { offsetInCU: 0x216FE, offset: 0x216FE, size: 0x8, addend: 0x0, symName: '__ZZN7CoTrain11LogMannager5errorENSt3__110shared_ptrINS_8LogEventEEEEN3$_3D1Ev', symObjAddr: 0x147C, symBinAddr: 0x1000022BC, symSize: 0x2C }
  - { offsetInCU: 0x21730, offset: 0x21730, size: 0x8, addend: 0x0, symName: '__ZN7CoTrain4TaskC1IZNS_11LogMannager5fatalENSt3__110shared_ptrINS_8LogEventEEEE3$_4JEEEiOT_DpOT0_', symObjAddr: 0x15B0, symBinAddr: 0x1000023F0, symSize: 0x3C }
  - { offsetInCU: 0x2178C, offset: 0x2178C, size: 0x8, addend: 0x0, symName: '__ZZN7CoTrain11LogMannager5fatalENSt3__110shared_ptrINS_8LogEventEEEEN3$_4D1Ev', symObjAddr: 0x15EC, symBinAddr: 0x10000242C, symSize: 0x2C }
  - { offsetInCU: 0x217BE, offset: 0x217BE, size: 0x8, addend: 0x0, symName: __ZNSt3__110shared_ptrIN7CoTrain6LoggerEEC1IS2_vEEPT_, symObjAddr: 0x1A0C, symBinAddr: 0x10000284C, symSize: 0x34 }
  - { offsetInCU: 0x21801, offset: 0x21801, size: 0x8, addend: 0x0, symName: __ZNSt3__110shared_ptrIN7CoTrain6LoggerEEaSB7v160006EOS3_, symObjAddr: 0x1A40, symBinAddr: 0x100002880, symSize: 0x50 }
  - { offsetInCU: 0x21836, offset: 0x21836, size: 0x8, addend: 0x0, symName: __ZNSt3__110shared_ptrIN7CoTrain6LoggerEED1B7v160006Ev, symObjAddr: 0x1A90, symBinAddr: 0x1000028D0, symSize: 0x2C }
  - { offsetInCU: 0x21860, offset: 0x21860, size: 0x8, addend: 0x0, symName: __ZNKSt3__110shared_ptrIN7CoTrain6LoggerEEptB7v160006Ev, symObjAddr: 0x1ABC, symBinAddr: 0x1000028FC, symSize: 0x18 }
  - { offsetInCU: 0x21886, offset: 0x21886, size: 0x8, addend: 0x0, symName: __ZN7CoTrain15StdLogFormatterC1Ev, symObjAddr: 0x1AD4, symBinAddr: 0x100002914, symSize: 0x2C }
  - { offsetInCU: 0x218B8, offset: 0x218B8, size: 0x8, addend: 0x0, symName: __ZNSt3__110shared_ptrIN7CoTrain15StdLogFormatterEEC1IS2_vEEPT_, symObjAddr: 0x1B00, symBinAddr: 0x100002940, symSize: 0x34 }
  - { offsetInCU: 0x218FB, offset: 0x218FB, size: 0x8, addend: 0x0, symName: __ZN7CoTrain17StdOutLogAppenderC1Ev, symObjAddr: 0x1B34, symBinAddr: 0x100002974, symSize: 0x2C }
  - { offsetInCU: 0x2192D, offset: 0x2192D, size: 0x8, addend: 0x0, symName: __ZNSt3__110shared_ptrIN7CoTrain17StdOutLogAppenderEEC1IS2_vEEPT_, symObjAddr: 0x1B60, symBinAddr: 0x1000029A0, symSize: 0x34 }
  - { offsetInCU: 0x21970, offset: 0x21970, size: 0x8, addend: 0x0, symName: __ZNSt3__110shared_ptrIN7CoTrain11LogAppenderEEC1B7v160006INS1_17StdOutLogAppenderEvEEONS0_IT_EE, symObjAddr: 0x1B94, symBinAddr: 0x1000029D4, symSize: 0x34 }
  - { offsetInCU: 0x219B3, offset: 0x219B3, size: 0x8, addend: 0x0, symName: __ZNSt3__110shared_ptrIN7CoTrain17StdOutLogAppenderEED1B7v160006Ev, symObjAddr: 0x1BC8, symBinAddr: 0x100002A08, symSize: 0x2C }
  - { offsetInCU: 0x219DD, offset: 0x219DD, size: 0x8, addend: 0x0, symName: __ZN7CoTrain11LogAppender12setFormatterENSt3__110shared_ptrINS_12LogFormatterEEE, symObjAddr: 0x1BF4, symBinAddr: 0x100002A34, symSize: 0x30 }
  - { offsetInCU: 0x21A13, offset: 0x21A13, size: 0x8, addend: 0x0, symName: __ZNSt3__110shared_ptrIN7CoTrain12LogFormatterEEC1B7v160006INS1_15StdLogFormatterEvEERKNS0_IT_EE, symObjAddr: 0x1C24, symBinAddr: 0x100002A64, symSize: 0x34 }
  - { offsetInCU: 0x21A56, offset: 0x21A56, size: 0x8, addend: 0x0, symName: __ZNSt3__110shared_ptrIN7CoTrain12LogFormatterEED1B7v160006Ev, symObjAddr: 0x1C58, symBinAddr: 0x100002A98, symSize: 0x2C }
  - { offsetInCU: 0x21A80, offset: 0x21A80, size: 0x8, addend: 0x0, symName: __ZNSt3__110shared_ptrIN7CoTrain11LogAppenderEEC1B7v160006ERKS3_, symObjAddr: 0x1C84, symBinAddr: 0x100002AC4, symSize: 0x34 }
  - { offsetInCU: 0x21AB9, offset: 0x21AB9, size: 0x8, addend: 0x0, symName: __ZNSt3__110shared_ptrIN7CoTrain11LogAppenderEED1B7v160006Ev, symObjAddr: 0x1CB8, symBinAddr: 0x100002AF8, symSize: 0x2C }
  - { offsetInCU: 0x21AE9, offset: 0x21AE9, size: 0x8, addend: 0x0, symName: '__ZN7CoTrain6ThreadC1IZNS_11LogMannager4initEvE3$_5JEEENSt3__112basic_stringIcNS4_11char_traitsIcEENS4_9allocatorIcEEEEOT_DpOT0_', symObjAddr: 0x1CE4, symBinAddr: 0x100002B24, symSize: 0x3C }
  - { offsetInCU: 0x21B46, offset: 0x21B46, size: 0x8, addend: 0x0, symName: __ZNSt3__110shared_ptrIN7CoTrain6ThreadEEC1IS2_vEEPT_, symObjAddr: 0x1D20, symBinAddr: 0x100002B60, symSize: 0x34 }
  - { offsetInCU: 0x21B89, offset: 0x21B89, size: 0x8, addend: 0x0, symName: __ZNSt3__110shared_ptrIN7CoTrain6ThreadEEaSB7v160006EOS3_, symObjAddr: 0x1D54, symBinAddr: 0x100002B94, symSize: 0x50 }
  - { offsetInCU: 0x21BBE, offset: 0x21BBE, size: 0x8, addend: 0x0, symName: __ZNSt3__110shared_ptrIN7CoTrain6ThreadEED1B7v160006Ev, symObjAddr: 0x1DA4, symBinAddr: 0x100002BE4, symSize: 0x2C }
  - { offsetInCU: 0x21BE8, offset: 0x21BE8, size: 0x8, addend: 0x0, symName: __ZN7CoTrain11LogMannager11CreateEventENSt3__112basic_stringIcNS1_11char_traitsIcEENS1_9allocatorIcEEEE, symObjAddr: 0x1DD0, symBinAddr: 0x100002C10, symSize: 0x17C }
  - { offsetInCU: 0x21C30, offset: 0x21C30, size: 0x8, addend: 0x0, symName: __ZNSt3__110shared_ptrIN7CoTrain15StdLogFormatterEED1B7v160006Ev, symObjAddr: 0x1F4C, symBinAddr: 0x100002D8C, symSize: 0x2C }
  - { offsetInCU: 0x21C5A, offset: 0x21C5A, size: 0x8, addend: 0x0, symName: __ZN7CoTrain11LogMannager8setLevelENS_8LogLevel5LevelE, symObjAddr: 0x1F78, symBinAddr: 0x100002DB8, symSize: 0x34 }
  - { offsetInCU: 0x21C91, offset: 0x21C91, size: 0x8, addend: 0x0, symName: __ZN7CoTrain8LogEventC1Ev, symObjAddr: 0x1FAC, symBinAddr: 0x100002DEC, symSize: 0x2C }
  - { offsetInCU: 0x21CC1, offset: 0x21CC1, size: 0x8, addend: 0x0, symName: __ZNSt3__110shared_ptrIN7CoTrain8LogEventEEC1IS2_vEEPT_, symObjAddr: 0x1FD8, symBinAddr: 0x100002E18, symSize: 0x34 }
  - { offsetInCU: 0x21D04, offset: 0x21D04, size: 0x8, addend: 0x0, symName: __ZN7CoTrain8LogEvent11setThreadIdEj, symObjAddr: 0x200C, symBinAddr: 0x100002E4C, symSize: 0x20 }
  - { offsetInCU: 0x21D39, offset: 0x21D39, size: 0x8, addend: 0x0, symName: __ZN7CoTrain8LogEvent7settimeEj, symObjAddr: 0x202C, symBinAddr: 0x100002E6C, symSize: 0x20 }
  - { offsetInCU: 0x21D6E, offset: 0x21D6E, size: 0x8, addend: 0x0, symName: __ZN7CoTrain8LogEvent10setcontentENSt3__112basic_stringIcNS1_11char_traitsIcEENS1_9allocatorIcEEEE, symObjAddr: 0x204C, symBinAddr: 0x100002E8C, symSize: 0x30 }
  - { offsetInCU: 0x21DA4, offset: 0x21DA4, size: 0x8, addend: 0x0, symName: __ZN7CoTrain11LogMannagerD2Ev, symObjAddr: 0x207C, symBinAddr: 0x100002EBC, symSize: 0x8C }
  - { offsetInCU: 0x21DE5, offset: 0x21DE5, size: 0x8, addend: 0x0, symName: __ZNKSt3__110shared_ptrIN7CoTrain6ThreadEEptB7v160006Ev, symObjAddr: 0x2114, symBinAddr: 0x100002F54, symSize: 0x18 }
  - { offsetInCU: 0x21E0B, offset: 0x21E0B, size: 0x8, addend: 0x0, symName: __ZN7CoTrain6Thread4joinEv, symObjAddr: 0x212C, symBinAddr: 0x100002F6C, symSize: 0x24 }
  - { offsetInCU: 0x21E31, offset: 0x21E31, size: 0x8, addend: 0x0, symName: __ZNSt3__15queueIN7CoTrain4TaskENS_5dequeIS2_NS_9allocatorIS2_EEEEED1Ev, symObjAddr: 0x2150, symBinAddr: 0x100002F90, symSize: 0x2C }
  - { offsetInCU: 0x21E5E, offset: 0x21E5E, size: 0x8, addend: 0x0, symName: __ZN7CoTrain11LogMannagerD1Ev, symObjAddr: 0x217C, symBinAddr: 0x100002FBC, symSize: 0x2C }
  - { offsetInCU: 0x21E8A, offset: 0x21E8A, size: 0x8, addend: 0x0, symName: __ZN7CoTrain17StdOutLogAppenderD1Ev, symObjAddr: 0x21A8, symBinAddr: 0x100002FE8, symSize: 0x2C }
  - { offsetInCU: 0x21EB6, offset: 0x21EB6, size: 0x8, addend: 0x0, symName: __ZN7CoTrain17StdOutLogAppenderD0Ev, symObjAddr: 0x21D4, symBinAddr: 0x100003014, symSize: 0x30 }
  - { offsetInCU: 0x21EE2, offset: 0x21EE2, size: 0x8, addend: 0x0, symName: __ZN7CoTrain15StdLogFormatterD1Ev, symObjAddr: 0x2204, symBinAddr: 0x100003044, symSize: 0x2C }
  - { offsetInCU: 0x21F0E, offset: 0x21F0E, size: 0x8, addend: 0x0, symName: __ZN7CoTrain15StdLogFormatterD0Ev, symObjAddr: 0x2230, symBinAddr: 0x100003070, symSize: 0x30 }
  - { offsetInCU: 0x21F3A, offset: 0x21F3A, size: 0x8, addend: 0x0, symName: __ZNSt3__118basic_stringstreamIcNS_11char_traitsIcEENS_9allocatorIcEEED2Ev, symObjAddr: 0x2260, symBinAddr: 0x1000030A0, symSize: 0x6C }
  - { offsetInCU: 0x21F74, offset: 0x21F74, size: 0x8, addend: 0x0, symName: __ZThn16_NSt3__118basic_stringstreamIcNS_11char_traitsIcEENS_9allocatorIcEEED1Ev, symObjAddr: 0x22CC, symBinAddr: 0x10000310C, symSize: 0x1C }
  - { offsetInCU: 0x21F8B, offset: 0x21F8B, size: 0x8, addend: 0x0, symName: __ZTv0_n24_NSt3__118basic_stringstreamIcNS_11char_traitsIcEENS_9allocatorIcEEED1Ev, symObjAddr: 0x22E8, symBinAddr: 0x100003128, symSize: 0x28 }
  - { offsetInCU: 0x21FA8, offset: 0x21FA8, size: 0x8, addend: 0x0, symName: __ZNSt3__115basic_stringbufIcNS_11char_traitsIcEENS_9allocatorIcEEED1Ev, symObjAddr: 0x2310, symBinAddr: 0x100003150, symSize: 0x2C }
  - { offsetInCU: 0x21FD5, offset: 0x21FD5, size: 0x8, addend: 0x0, symName: __ZNSt3__115basic_stringbufIcNS_11char_traitsIcEENS_9allocatorIcEEED2Ev, symObjAddr: 0x233C, symBinAddr: 0x10000317C, symSize: 0x48 }
  - { offsetInCU: 0x22002, offset: 0x22002, size: 0x8, addend: 0x0, symName: __ZN7CoTrain4TaskD2Ev, symObjAddr: 0x2384, symBinAddr: 0x1000031C4, symSize: 0x30 }
  - { offsetInCU: 0x2202E, offset: 0x2202E, size: 0x8, addend: 0x0, symName: __ZNSt3__18functionIFvvEED1Ev, symObjAddr: 0x23B4, symBinAddr: 0x1000031F4, symSize: 0x2C }
  - { offsetInCU: 0x2205A, offset: 0x2205A, size: 0x8, addend: 0x0, symName: __ZNSt3__18functionIFvvEED2Ev, symObjAddr: 0x23E0, symBinAddr: 0x100003220, symSize: 0x2C }
  - { offsetInCU: 0x22086, offset: 0x22086, size: 0x8, addend: 0x0, symName: __ZNSt3__110__function12__value_funcIFvvEED1B7v160006Ev, symObjAddr: 0x240C, symBinAddr: 0x10000324C, symSize: 0x2C }
  - { offsetInCU: 0x220B0, offset: 0x220B0, size: 0x8, addend: 0x0, symName: __ZNSt3__110__function12__value_funcIFvvEED2B7v160006Ev, symObjAddr: 0x2438, symBinAddr: 0x100003278, symSize: 0x90 }
  - { offsetInCU: 0x220DA, offset: 0x220DA, size: 0x8, addend: 0x0, symName: '__ZZN7CoTrain11LogMannager5debugENSt3__110shared_ptrINS_8LogEventEEEEN3$_0D2Ev', symObjAddr: 0x24C8, symBinAddr: 0x100003308, symSize: 0x30 }
  - { offsetInCU: 0x22106, offset: 0x22106, size: 0x8, addend: 0x0, symName: '__ZZN7CoTrain11LogMannager4infoENSt3__110shared_ptrINS_8LogEventEEEEN3$_1D2Ev', symObjAddr: 0x24F8, symBinAddr: 0x100003338, symSize: 0x30 }
  - { offsetInCU: 0x22132, offset: 0x22132, size: 0x8, addend: 0x0, symName: '__ZZN7CoTrain11LogMannager4warnENSt3__110shared_ptrINS_8LogEventEEEEN3$_2D2Ev', symObjAddr: 0x2528, symBinAddr: 0x100003368, symSize: 0x30 }
  - { offsetInCU: 0x2215E, offset: 0x2215E, size: 0x8, addend: 0x0, symName: '__ZZN7CoTrain11LogMannager5errorENSt3__110shared_ptrINS_8LogEventEEEEN3$_3D2Ev', symObjAddr: 0x2558, symBinAddr: 0x100003398, symSize: 0x30 }
  - { offsetInCU: 0x2218A, offset: 0x2218A, size: 0x8, addend: 0x0, symName: '__ZZN7CoTrain11LogMannager5fatalENSt3__110shared_ptrINS_8LogEventEEEEN3$_4D2Ev', symObjAddr: 0x2588, symBinAddr: 0x1000033C8, symSize: 0x30 }
  - { offsetInCU: 0x221B6, offset: 0x221B6, size: 0x8, addend: 0x0, symName: __ZN7CoTrain15StdLogFormatterC2Ev, symObjAddr: 0x25B8, symBinAddr: 0x1000033F8, symSize: 0x44 }
  - { offsetInCU: 0x221E2, offset: 0x221E2, size: 0x8, addend: 0x0, symName: __ZN7CoTrain12LogFormatterC2Ev, symObjAddr: 0x25FC, symBinAddr: 0x10000343C, symSize: 0x24 }
  - { offsetInCU: 0x2220E, offset: 0x2220E, size: 0x8, addend: 0x0, symName: __ZN7CoTrain12LogFormatterD1Ev, symObjAddr: 0x2620, symBinAddr: 0x100003460, symSize: 0x14 }
  - { offsetInCU: 0x22238, offset: 0x22238, size: 0x8, addend: 0x0, symName: __ZN7CoTrain12LogFormatterD0Ev, symObjAddr: 0x2634, symBinAddr: 0x100003474, symSize: 0xC }
  - { offsetInCU: 0x22262, offset: 0x22262, size: 0x8, addend: 0x0, symName: __ZN7CoTrain17StdOutLogAppenderC2Ev, symObjAddr: 0x2640, symBinAddr: 0x100003480, symSize: 0x44 }
  - { offsetInCU: 0x2228E, offset: 0x2228E, size: 0x8, addend: 0x0, symName: __ZN7CoTrain11LogAppenderC2Ev, symObjAddr: 0x2684, symBinAddr: 0x1000034C4, symSize: 0x40 }
  - { offsetInCU: 0x222BA, offset: 0x222BA, size: 0x8, addend: 0x0, symName: __ZNSt3__110shared_ptrIN7CoTrain12LogFormatterEEC1B7v160006Ev, symObjAddr: 0x26C4, symBinAddr: 0x100003504, symSize: 0x2C }
  - { offsetInCU: 0x222E4, offset: 0x222E4, size: 0x8, addend: 0x0, symName: __ZN7CoTrain11LogAppenderD1Ev, symObjAddr: 0x26F0, symBinAddr: 0x100003530, symSize: 0x14 }
  - { offsetInCU: 0x2230E, offset: 0x2230E, size: 0x8, addend: 0x0, symName: __ZN7CoTrain11LogAppenderD0Ev, symObjAddr: 0x2704, symBinAddr: 0x100003544, symSize: 0xC }
  - { offsetInCU: 0x22338, offset: 0x22338, size: 0x8, addend: 0x0, symName: __ZNSt3__110shared_ptrIN7CoTrain12LogFormatterEEC2B7v160006Ev, symObjAddr: 0x2710, symBinAddr: 0x100003550, symSize: 0x1C }
  - { offsetInCU: 0x22362, offset: 0x22362, size: 0x8, addend: 0x0, symName: __ZNSt3__110shared_ptrIN7CoTrain12LogFormatterEEaSB7v160006ERKS3_, symObjAddr: 0x272C, symBinAddr: 0x10000356C, symSize: 0x50 }
  - { offsetInCU: 0x22397, offset: 0x22397, size: 0x8, addend: 0x0, symName: __ZNSt3__110shared_ptrIN7CoTrain12LogFormatterEEC1B7v160006ERKS3_, symObjAddr: 0x277C, symBinAddr: 0x1000035BC, symSize: 0x34 }
  - { offsetInCU: 0x223D0, offset: 0x223D0, size: 0x8, addend: 0x0, symName: __ZNSt3__110shared_ptrIN7CoTrain12LogFormatterEE4swapB7v160006ERS3_, symObjAddr: 0x27B0, symBinAddr: 0x1000035F0, symSize: 0x44 }
  - { offsetInCU: 0x22405, offset: 0x22405, size: 0x8, addend: 0x0, symName: __ZNSt3__110shared_ptrIN7CoTrain12LogFormatterEEC2B7v160006ERKS3_, symObjAddr: 0x27F4, symBinAddr: 0x100003634, symSize: 0x70 }
  - { offsetInCU: 0x2243E, offset: 0x2243E, size: 0x8, addend: 0x0, symName: __ZNSt3__119__shared_weak_count12__add_sharedB7v160006Ev, symObjAddr: 0x2864, symBinAddr: 0x1000036A4, symSize: 0x24 }
  - { offsetInCU: 0x22464, offset: 0x22464, size: 0x8, addend: 0x0, symName: __ZNSt3__114__shared_count12__add_sharedB7v160006Ev, symObjAddr: 0x2888, symBinAddr: 0x1000036C8, symSize: 0x28 }
  - { offsetInCU: 0x2248A, offset: 0x2248A, size: 0x8, addend: 0x0, symName: __ZN7CoTrain8LogEventC2Ev, symObjAddr: 0x2958, symBinAddr: 0x100003798, symSize: 0x4C }
  - { offsetInCU: 0x224B4, offset: 0x224B4, size: 0x8, addend: 0x0, symName: __ZNSt3__112basic_stringIcNS_11char_traitsIcEENS_9allocatorIcEEEC1B7v160006Ev, symObjAddr: 0x29A4, symBinAddr: 0x1000037E4, symSize: 0x2C }
  - { offsetInCU: 0x224DE, offset: 0x224DE, size: 0x8, addend: 0x0, symName: __ZNSt3__112basic_stringIcNS_11char_traitsIcEENS_9allocatorIcEEEC2B7v160006Ev, symObjAddr: 0x29D0, symBinAddr: 0x100003810, symSize: 0x54 }
  - { offsetInCU: 0x2250E, offset: 0x2250E, size: 0x8, addend: 0x0, symName: __ZNSt3__117__compressed_pairINS_12basic_stringIcNS_11char_traitsIcEENS_9allocatorIcEEE5__repES5_EC1B7v160006INS_18__default_init_tagESA_EEOT_OT0_, symObjAddr: 0x2A24, symBinAddr: 0x100003864, symSize: 0x3C }
  - { offsetInCU: 0x22568, offset: 0x22568, size: 0x8, addend: 0x0, symName: __ZNSt3__112basic_stringIcNS_11char_traitsIcEENS_9allocatorIcEEE14__default_initB7v160006Ev, symObjAddr: 0x2A70, symBinAddr: 0x1000038B0, symSize: 0x40 }
  - { offsetInCU: 0x2258E, offset: 0x2258E, size: 0x8, addend: 0x0, symName: __ZNSt3__117__compressed_pairINS_12basic_stringIcNS_11char_traitsIcEENS_9allocatorIcEEE5__repES5_EC2B7v160006INS_18__default_init_tagESA_EEOT_OT0_, symObjAddr: 0x2AB0, symBinAddr: 0x1000038F0, symSize: 0x3C }
  - { offsetInCU: 0x225E8, offset: 0x225E8, size: 0x8, addend: 0x0, symName: __ZNSt3__122__compressed_pair_elemINS_12basic_stringIcNS_11char_traitsIcEENS_9allocatorIcEEE5__repELi0ELb0EEC2B7v160006ENS_18__default_init_tagE, symObjAddr: 0x2AEC, symBinAddr: 0x10000392C, symSize: 0x14 }
  - { offsetInCU: 0x2261C, offset: 0x2261C, size: 0x8, addend: 0x0, symName: __ZNSt3__122__compressed_pair_elemINS_9allocatorIcEELi1ELb1EEC2B7v160006ENS_18__default_init_tagE, symObjAddr: 0x2B00, symBinAddr: 0x100003940, symSize: 0x2C }
  - { offsetInCU: 0x22650, offset: 0x22650, size: 0x8, addend: 0x0, symName: __ZNSt3__19allocatorIcEC2B7v160006Ev, symObjAddr: 0x2B2C, symBinAddr: 0x10000396C, symSize: 0x2C }
  - { offsetInCU: 0x2267A, offset: 0x2267A, size: 0x8, addend: 0x0, symName: __ZNSt3__116__non_trivial_ifILb1ENS_9allocatorIcEEEC2B7v160006Ev, symObjAddr: 0x2B58, symBinAddr: 0x100003998, symSize: 0x14 }
  - { offsetInCU: 0x226A4, offset: 0x226A4, size: 0x8, addend: 0x0, symName: __ZNSt3__117__compressed_pairINS_12basic_stringIcNS_11char_traitsIcEENS_9allocatorIcEEE5__repES5_E5firstB7v160006Ev, symObjAddr: 0x2B6C, symBinAddr: 0x1000039AC, symSize: 0x24 }
  - { offsetInCU: 0x226CA, offset: 0x226CA, size: 0x8, addend: 0x0, symName: __ZNSt3__122__compressed_pair_elemINS_12basic_stringIcNS_11char_traitsIcEENS_9allocatorIcEEE5__repELi0ELb0EE5__getB7v160006Ev, symObjAddr: 0x2B90, symBinAddr: 0x1000039D0, symSize: 0x14 }
  - { offsetInCU: 0x226F0, offset: 0x226F0, size: 0x8, addend: 0x0, symName: __ZNSt3__15queueIN7CoTrain4TaskENS_5dequeIS2_NS_9allocatorIS2_EEEEED2Ev, symObjAddr: 0x2BA4, symBinAddr: 0x1000039E4, symSize: 0x2C }
  - { offsetInCU: 0x2271D, offset: 0x2271D, size: 0x8, addend: 0x0, symName: __ZNSt3__15dequeIN7CoTrain4TaskENS_9allocatorIS2_EEED1B7v160006Ev, symObjAddr: 0x2BD0, symBinAddr: 0x100003A10, symSize: 0x2C }
  - { offsetInCU: 0x22747, offset: 0x22747, size: 0x8, addend: 0x0, symName: __ZNSt3__15dequeIN7CoTrain4TaskENS_9allocatorIS2_EEED2B7v160006Ev, symObjAddr: 0x2BFC, symBinAddr: 0x100003A3C, symSize: 0x9C }
  - { offsetInCU: 0x2279E, offset: 0x2279E, size: 0x8, addend: 0x0, symName: __ZNSt3__15dequeIN7CoTrain4TaskENS_9allocatorIS2_EEE5clearEv, symObjAddr: 0x2C98, symBinAddr: 0x100003AD8, symSize: 0x180 }
  - { offsetInCU: 0x227F9, offset: 0x227F9, size: 0x8, addend: 0x0, symName: __ZNSt3__114__split_bufferIPN7CoTrain4TaskENS_9allocatorIS3_EEE5beginB7v160006Ev, symObjAddr: 0x2E18, symBinAddr: 0x100003C58, symSize: 0x18 }
  - { offsetInCU: 0x2281F, offset: 0x2281F, size: 0x8, addend: 0x0, symName: __ZNSt3__114__split_bufferIPN7CoTrain4TaskENS_9allocatorIS3_EEE3endB7v160006Ev, symObjAddr: 0x2E30, symBinAddr: 0x100003C70, symSize: 0x18 }
  - { offsetInCU: 0x22845, offset: 0x22845, size: 0x8, addend: 0x0, symName: __ZNSt3__116allocator_traitsINS_9allocatorIN7CoTrain4TaskEEEE10deallocateB7v160006ERS4_PS3_m, symObjAddr: 0x2E48, symBinAddr: 0x100003C88, symSize: 0x34 }
  - { offsetInCU: 0x22887, offset: 0x22887, size: 0x8, addend: 0x0, symName: __ZNSt3__15dequeIN7CoTrain4TaskENS_9allocatorIS2_EEE7__allocB7v160006Ev, symObjAddr: 0x2E7C, symBinAddr: 0x100003CBC, symSize: 0x28 }
  - { offsetInCU: 0x228AD, offset: 0x228AD, size: 0x8, addend: 0x0, symName: __ZNSt3__114__split_bufferIPN7CoTrain4TaskENS_9allocatorIS3_EEED1Ev, symObjAddr: 0x2EA4, symBinAddr: 0x100003CE4, symSize: 0x2C }
  - { offsetInCU: 0x228D9, offset: 0x228D9, size: 0x8, addend: 0x0, symName: __ZNSt3__15dequeIN7CoTrain4TaskENS_9allocatorIS2_EEE5beginB7v160006Ev, symObjAddr: 0x2ED0, symBinAddr: 0x100003D10, symSize: 0xC0 }
  - { offsetInCU: 0x2290E, offset: 0x2290E, size: 0x8, addend: 0x0, symName: __ZNSt3__15dequeIN7CoTrain4TaskENS_9allocatorIS2_EEE3endB7v160006Ev, symObjAddr: 0x2F90, symBinAddr: 0x100003DD0, symSize: 0xC4 }
  - { offsetInCU: 0x22952, offset: 0x22952, size: 0x8, addend: 0x0, symName: __ZNSt3__116allocator_traitsINS_9allocatorIN7CoTrain4TaskEEEE7destroyB7v160006IS3_vEEvRS4_PT_, symObjAddr: 0x3088, symBinAddr: 0x100003EC8, symSize: 0x2C }
  - { offsetInCU: 0x2298F, offset: 0x2298F, size: 0x8, addend: 0x0, symName: __ZNKSt3__116__deque_iteratorIN7CoTrain4TaskEPS2_RS2_PS3_lLl102EEdeB7v160006Ev, symObjAddr: 0x30B4, symBinAddr: 0x100003EF4, symSize: 0x18 }
  - { offsetInCU: 0x229B5, offset: 0x229B5, size: 0x8, addend: 0x0, symName: __ZNSt3__116__deque_iteratorIN7CoTrain4TaskEPS2_RS2_PS3_lLl102EEppB7v160006Ev, symObjAddr: 0x30CC, symBinAddr: 0x100003F0C, symSize: 0x70 }
  - { offsetInCU: 0x229DB, offset: 0x229DB, size: 0x8, addend: 0x0, symName: __ZNSt3__15dequeIN7CoTrain4TaskENS_9allocatorIS2_EEE6__sizeB7v160006Ev, symObjAddr: 0x313C, symBinAddr: 0x100003F7C, symSize: 0x28 }
  - { offsetInCU: 0x22A01, offset: 0x22A01, size: 0x8, addend: 0x0, symName: __ZNKSt3__114__split_bufferIPN7CoTrain4TaskENS_9allocatorIS3_EEE4sizeB7v160006Ev, symObjAddr: 0x3164, symBinAddr: 0x100003FA4, symSize: 0x28 }
  - { offsetInCU: 0x22A27, offset: 0x22A27, size: 0x8, addend: 0x0, symName: __ZNSt3__114__split_bufferIPN7CoTrain4TaskENS_9allocatorIS3_EEE5frontB7v160006Ev, symObjAddr: 0x318C, symBinAddr: 0x100003FCC, symSize: 0x18 }
  - { offsetInCU: 0x22A4D, offset: 0x22A4D, size: 0x8, addend: 0x0, symName: __ZNSt3__114__split_bufferIPN7CoTrain4TaskENS_9allocatorIS3_EEE9pop_frontB7v160006Ev, symObjAddr: 0x31A4, symBinAddr: 0x100003FE4, symSize: 0x2C }
  - { offsetInCU: 0x22A73, offset: 0x22A73, size: 0x8, addend: 0x0, symName: __ZNKSt3__114__split_bufferIPN7CoTrain4TaskENS_9allocatorIS3_EEE5emptyB7v160006Ev, symObjAddr: 0x31D0, symBinAddr: 0x100004010, symSize: 0x28 }
  - { offsetInCU: 0x22A99, offset: 0x22A99, size: 0x8, addend: 0x0, symName: __ZNSt3__116__deque_iteratorIN7CoTrain4TaskEPS2_RS2_PS3_lLl102EEC1B7v160006ES5_S3_, symObjAddr: 0x31F8, symBinAddr: 0x100004038, symSize: 0x3C }
  - { offsetInCU: 0x22AE1, offset: 0x22AE1, size: 0x8, addend: 0x0, symName: __ZNSt3__116__deque_iteratorIN7CoTrain4TaskEPS2_RS2_PS3_lLl102EEC2B7v160006ES5_S3_, symObjAddr: 0x3234, symBinAddr: 0x100004074, symSize: 0x2C }
  - { offsetInCU: 0x22B29, offset: 0x22B29, size: 0x8, addend: 0x0, symName: __ZNKSt3__15dequeIN7CoTrain4TaskENS_9allocatorIS2_EEE4sizeB7v160006Ev, symObjAddr: 0x3260, symBinAddr: 0x1000040A0, symSize: 0x28 }
  - { offsetInCU: 0x22B4F, offset: 0x22B4F, size: 0x8, addend: 0x0, symName: __ZNKSt3__15dequeIN7CoTrain4TaskENS_9allocatorIS2_EEE6__sizeB7v160006Ev, symObjAddr: 0x3288, symBinAddr: 0x1000040C8, symSize: 0x28 }
  - { offsetInCU: 0x22B75, offset: 0x22B75, size: 0x8, addend: 0x0, symName: __ZNKSt3__117__compressed_pairImNS_9allocatorIN7CoTrain4TaskEEEE5firstB7v160006Ev, symObjAddr: 0x32B0, symBinAddr: 0x1000040F0, symSize: 0x24 }
  - { offsetInCU: 0x22B9B, offset: 0x22B9B, size: 0x8, addend: 0x0, symName: __ZNKSt3__122__compressed_pair_elemImLi0ELb0EE5__getB7v160006Ev, symObjAddr: 0x32D4, symBinAddr: 0x100004114, symSize: 0x14 }
  - { offsetInCU: 0x22BC1, offset: 0x22BC1, size: 0x8, addend: 0x0, symName: __ZNSt3__19allocatorIN7CoTrain4TaskEE7destroyB7v160006EPS2_, symObjAddr: 0x3318, symBinAddr: 0x100004158, symSize: 0x28 }
  - { offsetInCU: 0x22BF6, offset: 0x22BF6, size: 0x8, addend: 0x0, symName: __ZNSt3__117__compressed_pairImNS_9allocatorIN7CoTrain4TaskEEEE5firstB7v160006Ev, symObjAddr: 0x3340, symBinAddr: 0x100004180, symSize: 0x24 }
  - { offsetInCU: 0x22C1C, offset: 0x22C1C, size: 0x8, addend: 0x0, symName: __ZNSt3__122__compressed_pair_elemImLi0ELb0EE5__getB7v160006Ev, symObjAddr: 0x3364, symBinAddr: 0x1000041A4, symSize: 0x14 }
  - { offsetInCU: 0x22C42, offset: 0x22C42, size: 0x8, addend: 0x0, symName: __ZNSt3__114__split_bufferIPN7CoTrain4TaskENS_9allocatorIS3_EEE19__destruct_at_beginB7v160006EPS3_, symObjAddr: 0x3378, symBinAddr: 0x1000041B8, symSize: 0x2C }
  - { offsetInCU: 0x22C77, offset: 0x22C77, size: 0x8, addend: 0x0, symName: __ZNSt3__114__split_bufferIPN7CoTrain4TaskENS_9allocatorIS3_EEE19__destruct_at_beginEPS3_NS_17integral_constantIbLb1EEE, symObjAddr: 0x33A4, symBinAddr: 0x1000041E4, symSize: 0x20 }
  - { offsetInCU: 0x22CB8, offset: 0x22CB8, size: 0x8, addend: 0x0, symName: __ZNSt3__19allocatorIN7CoTrain4TaskEE10deallocateB7v160006EPS2_m, symObjAddr: 0x33C4, symBinAddr: 0x100004204, symSize: 0x44 }
  - { offsetInCU: 0x22CFC, offset: 0x22CFC, size: 0x8, addend: 0x0, symName: __ZNSt3__117__compressed_pairImNS_9allocatorIN7CoTrain4TaskEEEE6secondB7v160006Ev, symObjAddr: 0x3530, symBinAddr: 0x100004370, symSize: 0x24 }
  - { offsetInCU: 0x22D22, offset: 0x22D22, size: 0x8, addend: 0x0, symName: __ZNSt3__122__compressed_pair_elemINS_9allocatorIN7CoTrain4TaskEEELi1ELb1EE5__getB7v160006Ev, symObjAddr: 0x3554, symBinAddr: 0x100004394, symSize: 0x14 }
  - { offsetInCU: 0x22D48, offset: 0x22D48, size: 0x8, addend: 0x0, symName: __ZNSt3__114__split_bufferIPN7CoTrain4TaskENS_9allocatorIS3_EEED2Ev, symObjAddr: 0x3568, symBinAddr: 0x1000043A8, symSize: 0x8C }
  - { offsetInCU: 0x22D74, offset: 0x22D74, size: 0x8, addend: 0x0, symName: __ZNSt3__114__split_bufferIPN7CoTrain4TaskENS_9allocatorIS3_EEE5clearB7v160006Ev, symObjAddr: 0x35F4, symBinAddr: 0x100004434, symSize: 0x28 }
  - { offsetInCU: 0x22D9A, offset: 0x22D9A, size: 0x8, addend: 0x0, symName: __ZNSt3__116allocator_traitsINS_9allocatorIPN7CoTrain4TaskEEEE10deallocateB7v160006ERS5_PS4_m, symObjAddr: 0x361C, symBinAddr: 0x10000445C, symSize: 0x34 }
  - { offsetInCU: 0x22DDC, offset: 0x22DDC, size: 0x8, addend: 0x0, symName: __ZNSt3__114__split_bufferIPN7CoTrain4TaskENS_9allocatorIS3_EEE7__allocB7v160006Ev, symObjAddr: 0x3650, symBinAddr: 0x100004490, symSize: 0x28 }
  - { offsetInCU: 0x22E02, offset: 0x22E02, size: 0x8, addend: 0x0, symName: __ZNKSt3__114__split_bufferIPN7CoTrain4TaskENS_9allocatorIS3_EEE8capacityB7v160006Ev, symObjAddr: 0x3678, symBinAddr: 0x1000044B8, symSize: 0x40 }
  - { offsetInCU: 0x22E28, offset: 0x22E28, size: 0x8, addend: 0x0, symName: __ZNSt3__114__split_bufferIPN7CoTrain4TaskENS_9allocatorIS3_EEE17__destruct_at_endB7v160006EPS3_, symObjAddr: 0x36B8, symBinAddr: 0x1000044F8, symSize: 0x2C }
  - { offsetInCU: 0x22E5D, offset: 0x22E5D, size: 0x8, addend: 0x0, symName: __ZNSt3__114__split_bufferIPN7CoTrain4TaskENS_9allocatorIS3_EEE17__destruct_at_endB7v160006EPS3_NS_17integral_constantIbLb0EEE, symObjAddr: 0x36E4, symBinAddr: 0x100004524, symSize: 0x80 }
  - { offsetInCU: 0x22E9E, offset: 0x22E9E, size: 0x8, addend: 0x0, symName: __ZNSt3__116allocator_traitsINS_9allocatorIPN7CoTrain4TaskEEEE7destroyB7v160006IS4_vEEvRS5_PT_, symObjAddr: 0x3764, symBinAddr: 0x1000045A4, symSize: 0x2C }
  - { offsetInCU: 0x22EDB, offset: 0x22EDB, size: 0x8, addend: 0x0, symName: __ZNSt3__19allocatorIPN7CoTrain4TaskEE7destroyB7v160006EPS3_, symObjAddr: 0x37A4, symBinAddr: 0x1000045E4, symSize: 0x14 }
  - { offsetInCU: 0x22F10, offset: 0x22F10, size: 0x8, addend: 0x0, symName: __ZNSt3__19allocatorIPN7CoTrain4TaskEE10deallocateB7v160006EPS3_m, symObjAddr: 0x37B8, symBinAddr: 0x1000045F8, symSize: 0x40 }
  - { offsetInCU: 0x22F54, offset: 0x22F54, size: 0x8, addend: 0x0, symName: __ZNSt3__117__compressed_pairIPPN7CoTrain4TaskENS_9allocatorIS3_EEE6secondB7v160006Ev, symObjAddr: 0x37F8, symBinAddr: 0x100004638, symSize: 0x24 }
  - { offsetInCU: 0x22F7A, offset: 0x22F7A, size: 0x8, addend: 0x0, symName: __ZNSt3__122__compressed_pair_elemINS_9allocatorIPN7CoTrain4TaskEEELi1ELb1EE5__getB7v160006Ev, symObjAddr: 0x381C, symBinAddr: 0x10000465C, symSize: 0x14 }
  - { offsetInCU: 0x22FA0, offset: 0x22FA0, size: 0x8, addend: 0x0, symName: __ZNKSt3__114__split_bufferIPN7CoTrain4TaskENS_9allocatorIS3_EEE9__end_capB7v160006Ev, symObjAddr: 0x3830, symBinAddr: 0x100004670, symSize: 0x28 }
  - { offsetInCU: 0x22FC6, offset: 0x22FC6, size: 0x8, addend: 0x0, symName: __ZNKSt3__117__compressed_pairIPPN7CoTrain4TaskENS_9allocatorIS3_EEE5firstB7v160006Ev, symObjAddr: 0x3858, symBinAddr: 0x100004698, symSize: 0x24 }
  - { offsetInCU: 0x22FEC, offset: 0x22FEC, size: 0x8, addend: 0x0, symName: __ZNKSt3__122__compressed_pair_elemIPPN7CoTrain4TaskELi0ELb0EE5__getB7v160006Ev, symObjAddr: 0x387C, symBinAddr: 0x1000046BC, symSize: 0x14 }
  - { offsetInCU: 0x23012, offset: 0x23012, size: 0x8, addend: 0x0, symName: __ZN7CoTrain17StdOutLogAppenderD2Ev, symObjAddr: 0x3890, symBinAddr: 0x1000046D0, symSize: 0x2C }
  - { offsetInCU: 0x2303E, offset: 0x2303E, size: 0x8, addend: 0x0, symName: __ZN7CoTrain11LogAppenderD2Ev, symObjAddr: 0x38BC, symBinAddr: 0x1000046FC, symSize: 0x40 }
  - { offsetInCU: 0x23068, offset: 0x23068, size: 0x8, addend: 0x0, symName: __ZN7CoTrain15StdLogFormatterD2Ev, symObjAddr: 0x38FC, symBinAddr: 0x10000473C, symSize: 0x2C }
  - { offsetInCU: 0x23094, offset: 0x23094, size: 0x8, addend: 0x0, symName: __ZN7CoTrain12LogFormatterD2Ev, symObjAddr: 0x3928, symBinAddr: 0x100004768, symSize: 0x14 }
  - { offsetInCU: 0x230BE, offset: 0x230BE, size: 0x8, addend: 0x0, symName: __ZNSt3__110shared_ptrIN7CoTrain12LogFormatterEED2B7v160006Ev, symObjAddr: 0x393C, symBinAddr: 0x10000477C, symSize: 0x54 }
  - { offsetInCU: 0x230E8, offset: 0x230E8, size: 0x8, addend: 0x0, symName: __ZNSt3__119__shared_weak_count16__release_sharedB7v160006Ev, symObjAddr: 0x3990, symBinAddr: 0x1000047D0, symSize: 0x3C }
  - { offsetInCU: 0x2310E, offset: 0x2310E, size: 0x8, addend: 0x0, symName: __ZNSt3__114__shared_count16__release_sharedB7v160006Ev, symObjAddr: 0x39CC, symBinAddr: 0x10000480C, symSize: 0x7C }
  - { offsetInCU: 0x23134, offset: 0x23134, size: 0x8, addend: 0x0, symName: __ZNSt3__110shared_ptrIN7CoTrain8LogEventEED2B7v160006Ev, symObjAddr: 0x3A78, symBinAddr: 0x1000048B8, symSize: 0x54 }
  - { offsetInCU: 0x2315E, offset: 0x2315E, size: 0x8, addend: 0x0, symName: __ZNSt3__110shared_ptrIN7CoTrain6ThreadEED2B7v160006Ev, symObjAddr: 0x3ACC, symBinAddr: 0x10000490C, symSize: 0x54 }
  - { offsetInCU: 0x23188, offset: 0x23188, size: 0x8, addend: 0x0, symName: __ZNSt3__110shared_ptrIN7CoTrain6LoggerEED2B7v160006Ev, symObjAddr: 0x3B20, symBinAddr: 0x100004960, symSize: 0x54 }
  - { offsetInCU: 0x231B2, offset: 0x231B2, size: 0x8, addend: 0x0, symName: __ZNSt3__14listINS_10shared_ptrIN7CoTrain11LogAppenderEEENS_9allocatorIS4_EEEC2B7v160006Ev, symObjAddr: 0x3B74, symBinAddr: 0x1000049B4, symSize: 0x3C }
  - { offsetInCU: 0x231DC, offset: 0x231DC, size: 0x8, addend: 0x0, symName: __ZNSt3__110__list_impINS_10shared_ptrIN7CoTrain11LogAppenderEEENS_9allocatorIS4_EEEC2Ev, symObjAddr: 0x3BB0, symBinAddr: 0x1000049F0, symSize: 0x50 }
  - { offsetInCU: 0x23208, offset: 0x23208, size: 0x8, addend: 0x0, symName: __ZNSt3__116__list_node_baseINS_10shared_ptrIN7CoTrain11LogAppenderEEEPvEC1B7v160006Ev, symObjAddr: 0x3C10, symBinAddr: 0x100004A50, symSize: 0x2C }
  - { offsetInCU: 0x23238, offset: 0x23238, size: 0x8, addend: 0x0, symName: __ZNSt3__117__compressed_pairImNS_9allocatorINS_11__list_nodeINS_10shared_ptrIN7CoTrain11LogAppenderEEEPvEEEEEC1B7v160006IiNS_18__default_init_tagEEEOT_OT0_, symObjAddr: 0x3C3C, symBinAddr: 0x100004A7C, symSize: 0x3C }
  - { offsetInCU: 0x23292, offset: 0x23292, size: 0x8, addend: 0x0, symName: __ZNSt3__116__list_node_baseINS_10shared_ptrIN7CoTrain11LogAppenderEEEPvEC2B7v160006Ev, symObjAddr: 0x3C78, symBinAddr: 0x100004AB8, symSize: 0x4C }
  - { offsetInCU: 0x232BC, offset: 0x232BC, size: 0x8, addend: 0x0, symName: __ZNSt3__126__list_node_pointer_traitsINS_10shared_ptrIN7CoTrain11LogAppenderEEEPvE26__unsafe_link_pointer_castB7v160006EPNS_16__list_node_baseIS4_S5_EE, symObjAddr: 0x3CC4, symBinAddr: 0x100004B04, symSize: 0x14 }
  - { offsetInCU: 0x232E0, offset: 0x232E0, size: 0x8, addend: 0x0, symName: __ZNSt3__116__list_node_baseINS_10shared_ptrIN7CoTrain11LogAppenderEEEPvE6__selfB7v160006Ev, symObjAddr: 0x3CD8, symBinAddr: 0x100004B18, symSize: 0x24 }
  - { offsetInCU: 0x2330C, offset: 0x2330C, size: 0x8, addend: 0x0, symName: __ZNSt3__114pointer_traitsIPNS_16__list_node_baseINS_10shared_ptrIN7CoTrain11LogAppenderEEEPvEEE10pointer_toB7v160006ERS7_, symObjAddr: 0x3CFC, symBinAddr: 0x100004B3C, symSize: 0x14 }
  - { offsetInCU: 0x23330, offset: 0x23330, size: 0x8, addend: 0x0, symName: __ZNSt3__117__compressed_pairImNS_9allocatorINS_11__list_nodeINS_10shared_ptrIN7CoTrain11LogAppenderEEEPvEEEEEC2B7v160006IiNS_18__default_init_tagEEEOT_OT0_, symObjAddr: 0x3D10, symBinAddr: 0x100004B50, symSize: 0x40 }
  - { offsetInCU: 0x2338A, offset: 0x2338A, size: 0x8, addend: 0x0, symName: __ZNSt3__122__compressed_pair_elemImLi0ELb0EEC2B7v160006IivEEOT_, symObjAddr: 0x3D50, symBinAddr: 0x100004B90, symSize: 0x24 }
  - { offsetInCU: 0x233CD, offset: 0x233CD, size: 0x8, addend: 0x0, symName: __ZNSt3__122__compressed_pair_elemINS_9allocatorINS_11__list_nodeINS_10shared_ptrIN7CoTrain11LogAppenderEEEPvEEEELi1ELb1EEC2B7v160006ENS_18__default_init_tagE, symObjAddr: 0x3D74, symBinAddr: 0x100004BB4, symSize: 0x2C }
  - { offsetInCU: 0x23401, offset: 0x23401, size: 0x8, addend: 0x0, symName: __ZNSt3__19allocatorINS_11__list_nodeINS_10shared_ptrIN7CoTrain11LogAppenderEEEPvEEEC2B7v160006Ev, symObjAddr: 0x3DA0, symBinAddr: 0x100004BE0, symSize: 0x2C }
  - { offsetInCU: 0x2342B, offset: 0x2342B, size: 0x8, addend: 0x0, symName: __ZNSt3__116__non_trivial_ifILb1ENS_9allocatorINS_11__list_nodeINS_10shared_ptrIN7CoTrain11LogAppenderEEEPvEEEEEC2B7v160006Ev, symObjAddr: 0x3DCC, symBinAddr: 0x100004C0C, symSize: 0x14 }
  - { offsetInCU: 0x23455, offset: 0x23455, size: 0x8, addend: 0x0, symName: __ZNSt3__110__list_impINS_10shared_ptrIN7CoTrain11LogAppenderEEENS_9allocatorIS4_EEE5beginB7v160006Ev, symObjAddr: 0x3DE0, symBinAddr: 0x100004C20, symSize: 0x30 }
  - { offsetInCU: 0x2347B, offset: 0x2347B, size: 0x8, addend: 0x0, symName: __ZNSt3__115__list_iteratorINS_10shared_ptrIN7CoTrain11LogAppenderEEEPvEC1B7v160006EPNS_16__list_node_baseIS4_S5_EEPKv, symObjAddr: 0x3E10, symBinAddr: 0x100004C50, symSize: 0x3C }
  - { offsetInCU: 0x234C3, offset: 0x234C3, size: 0x8, addend: 0x0, symName: __ZNSt3__115__list_iteratorINS_10shared_ptrIN7CoTrain11LogAppenderEEEPvEC2B7v160006EPNS_16__list_node_baseIS4_S5_EEPKv, symObjAddr: 0x3E4C, symBinAddr: 0x100004C8C, symSize: 0x24 }
  - { offsetInCU: 0x2350B, offset: 0x2350B, size: 0x8, addend: 0x0, symName: __ZNSt3__110__list_impINS_10shared_ptrIN7CoTrain11LogAppenderEEENS_9allocatorIS4_EEE3endB7v160006Ev, symObjAddr: 0x3E70, symBinAddr: 0x100004CB0, symSize: 0x3C }
  - { offsetInCU: 0x23531, offset: 0x23531, size: 0x8, addend: 0x0, symName: __ZNKSt3__110__list_impINS_10shared_ptrIN7CoTrain11LogAppenderEEENS_9allocatorIS4_EEE13__end_as_linkB7v160006Ev, symObjAddr: 0x3EAC, symBinAddr: 0x100004CEC, symSize: 0x28 }
  - { offsetInCU: 0x23557, offset: 0x23557, size: 0x8, addend: 0x0, symName: __ZNSt3__116__list_node_baseINS_10shared_ptrIN7CoTrain11LogAppenderEEEPvE9__as_nodeB7v160006Ev, symObjAddr: 0x3F04, symBinAddr: 0x100004D44, symSize: 0x24 }
  - { offsetInCU: 0x2357D, offset: 0x2357D, size: 0x8, addend: 0x0, symName: __ZNSt3__110shared_ptrIN7CoTrain8LogEventEEC2B7v160006ERKS3_, symObjAddr: 0x3F28, symBinAddr: 0x100004D68, symSize: 0x70 }
  - { offsetInCU: 0x235B6, offset: 0x235B6, size: 0x8, addend: 0x0, symName: __ZNSt3__110__list_impINS_10shared_ptrIN7CoTrain11LogAppenderEEENS_9allocatorIS4_EEE12__node_allocB7v160006Ev, symObjAddr: 0x3F98, symBinAddr: 0x100004DD8, symSize: 0x28 }
  - { offsetInCU: 0x235DC, offset: 0x235DC, size: 0x8, addend: 0x0, symName: __ZNSt3__14listINS_10shared_ptrIN7CoTrain11LogAppenderEEENS_9allocatorIS4_EEE15__allocate_nodeB7v160006ERNS5_INS_11__list_nodeIS4_PvEEEE, symObjAddr: 0x3FC0, symBinAddr: 0x100004E00, symSize: 0x70 }
  - { offsetInCU: 0x23620, offset: 0x23620, size: 0x8, addend: 0x0, symName: __ZNSt3__116allocator_traitsINS_9allocatorINS_11__list_nodeINS_10shared_ptrIN7CoTrain11LogAppenderEEEPvEEEEE9constructB7v160006IS6_JRKS6_EvEEvRS9_PT_DpOT0_, symObjAddr: 0x4030, symBinAddr: 0x100004E70, symSize: 0x34 }
  - { offsetInCU: 0x23677, offset: 0x23677, size: 0x8, addend: 0x0, symName: __ZNKSt3__110unique_ptrINS_11__list_nodeINS_10shared_ptrIN7CoTrain11LogAppenderEEEPvEENS_22__allocator_destructorINS_9allocatorIS7_EEEEEptB7v160006Ev, symObjAddr: 0x4064, symBinAddr: 0x100004EA4, symSize: 0x28 }
  - { offsetInCU: 0x2369D, offset: 0x2369D, size: 0x8, addend: 0x0, symName: __ZNSt3__14listINS_10shared_ptrIN7CoTrain11LogAppenderEEENS_9allocatorIS4_EEE20__link_nodes_at_backEPNS_16__list_node_baseIS4_PvEESB_, symObjAddr: 0x408C, symBinAddr: 0x100004ECC, symSize: 0x60 }
  - { offsetInCU: 0x236E3, offset: 0x236E3, size: 0x8, addend: 0x0, symName: __ZNKSt3__110unique_ptrINS_11__list_nodeINS_10shared_ptrIN7CoTrain11LogAppenderEEEPvEENS_22__allocator_destructorINS_9allocatorIS7_EEEEE3getB7v160006Ev, symObjAddr: 0x40EC, symBinAddr: 0x100004F2C, symSize: 0x28 }
  - { offsetInCU: 0x23709, offset: 0x23709, size: 0x8, addend: 0x0, symName: __ZNSt3__111__list_nodeINS_10shared_ptrIN7CoTrain11LogAppenderEEEPvE9__as_linkB7v160006Ev, symObjAddr: 0x4114, symBinAddr: 0x100004F54, symSize: 0x24 }
  - { offsetInCU: 0x2372F, offset: 0x2372F, size: 0x8, addend: 0x0, symName: __ZNSt3__110__list_impINS_10shared_ptrIN7CoTrain11LogAppenderEEENS_9allocatorIS4_EEE4__szB7v160006Ev, symObjAddr: 0x4138, symBinAddr: 0x100004F78, symSize: 0x28 }
  - { offsetInCU: 0x23755, offset: 0x23755, size: 0x8, addend: 0x0, symName: __ZNSt3__110unique_ptrINS_11__list_nodeINS_10shared_ptrIN7CoTrain11LogAppenderEEEPvEENS_22__allocator_destructorINS_9allocatorIS7_EEEEE7releaseB7v160006Ev, symObjAddr: 0x4160, symBinAddr: 0x100004FA0, symSize: 0x44 }
  - { offsetInCU: 0x2378A, offset: 0x2378A, size: 0x8, addend: 0x0, symName: __ZNSt3__110unique_ptrINS_11__list_nodeINS_10shared_ptrIN7CoTrain11LogAppenderEEEPvEENS_22__allocator_destructorINS_9allocatorIS7_EEEEED1B7v160006Ev, symObjAddr: 0x41A4, symBinAddr: 0x100004FE4, symSize: 0x2C }
  - { offsetInCU: 0x237B4, offset: 0x237B4, size: 0x8, addend: 0x0, symName: __ZNSt3__117__compressed_pairImNS_9allocatorINS_11__list_nodeINS_10shared_ptrIN7CoTrain11LogAppenderEEEPvEEEEE6secondB7v160006Ev, symObjAddr: 0x41D0, symBinAddr: 0x100005010, symSize: 0x24 }
  - { offsetInCU: 0x237DA, offset: 0x237DA, size: 0x8, addend: 0x0, symName: __ZNSt3__122__compressed_pair_elemINS_9allocatorINS_11__list_nodeINS_10shared_ptrIN7CoTrain11LogAppenderEEEPvEEEELi1ELb1EE5__getB7v160006Ev, symObjAddr: 0x41F4, symBinAddr: 0x100005034, symSize: 0x14 }
  - { offsetInCU: 0x23800, offset: 0x23800, size: 0x8, addend: 0x0, symName: __ZNSt3__116allocator_traitsINS_9allocatorINS_11__list_nodeINS_10shared_ptrIN7CoTrain11LogAppenderEEEPvEEEEE8allocateB7v160006ERS9_m, symObjAddr: 0x4208, symBinAddr: 0x100005048, symSize: 0x2C }
  - { offsetInCU: 0x23833, offset: 0x23833, size: 0x8, addend: 0x0, symName: __ZNSt3__122__allocator_destructorINS_9allocatorINS_11__list_nodeINS_10shared_ptrIN7CoTrain11LogAppenderEEEPvEEEEEC1B7v160006ERS9_m, symObjAddr: 0x4234, symBinAddr: 0x100005074, symSize: 0x3C }
  - { offsetInCU: 0x23881, offset: 0x23881, size: 0x8, addend: 0x0, symName: __ZNSt3__110unique_ptrINS_11__list_nodeINS_10shared_ptrIN7CoTrain11LogAppenderEEEPvEENS_22__allocator_destructorINS_9allocatorIS7_EEEEEC1B7v160006ILb1EvEEPS7_NS_16__dependent_typeINS_27__unique_ptr_deleter_sfinaeISB_EEXT_EE20__good_rval_ref_typeE, symObjAddr: 0x4270, symBinAddr: 0x1000050B0, symSize: 0x3C }
  - { offsetInCU: 0x238D4, offset: 0x238D4, size: 0x8, addend: 0x0, symName: __ZNSt3__19allocatorINS_11__list_nodeINS_10shared_ptrIN7CoTrain11LogAppenderEEEPvEEE8allocateB7v160006Em, symObjAddr: 0x42AC, symBinAddr: 0x1000050EC, symSize: 0x58 }
  - { offsetInCU: 0x23914, offset: 0x23914, size: 0x8, addend: 0x0, symName: __ZNSt3__116allocator_traitsINS_9allocatorINS_11__list_nodeINS_10shared_ptrIN7CoTrain11LogAppenderEEEPvEEEEE8max_sizeB7v160006IS9_vEEmRKS9_, symObjAddr: 0x4304, symBinAddr: 0x100005144, symSize: 0x24 }
  - { offsetInCU: 0x23942, offset: 0x23942, size: 0x8, addend: 0x0, symName: __ZNKSt3__19allocatorINS_11__list_nodeINS_10shared_ptrIN7CoTrain11LogAppenderEEEPvEEE8max_sizeB7v160006Ev, symObjAddr: 0x43BC, symBinAddr: 0x1000051FC, symSize: 0x14 }
  - { offsetInCU: 0x23968, offset: 0x23968, size: 0x8, addend: 0x0, symName: __ZNSt3__122__allocator_destructorINS_9allocatorINS_11__list_nodeINS_10shared_ptrIN7CoTrain11LogAppenderEEEPvEEEEEC2B7v160006ERS9_m, symObjAddr: 0x4420, symBinAddr: 0x100005260, symSize: 0x2C }
  - { offsetInCU: 0x239B0, offset: 0x239B0, size: 0x8, addend: 0x0, symName: __ZNSt3__110unique_ptrINS_11__list_nodeINS_10shared_ptrIN7CoTrain11LogAppenderEEEPvEENS_22__allocator_destructorINS_9allocatorIS7_EEEEEC2B7v160006ILb1EvEEPS7_NS_16__dependent_typeINS_27__unique_ptr_deleter_sfinaeISB_EEXT_EE20__good_rval_ref_typeE, symObjAddr: 0x444C, symBinAddr: 0x10000528C, symSize: 0x48 }
  - { offsetInCU: 0x23A03, offset: 0x23A03, size: 0x8, addend: 0x0, symName: __ZNSt3__117__compressed_pairIPNS_11__list_nodeINS_10shared_ptrIN7CoTrain11LogAppenderEEEPvEENS_22__allocator_destructorINS_9allocatorIS7_EEEEEC1B7v160006IRS8_SC_EEOT_OT0_, symObjAddr: 0x4494, symBinAddr: 0x1000052D4, symSize: 0x3C }
  - { offsetInCU: 0x23A5D, offset: 0x23A5D, size: 0x8, addend: 0x0, symName: __ZNSt3__117__compressed_pairIPNS_11__list_nodeINS_10shared_ptrIN7CoTrain11LogAppenderEEEPvEENS_22__allocator_destructorINS_9allocatorIS7_EEEEEC2B7v160006IRS8_SC_EEOT_OT0_, symObjAddr: 0x44D0, symBinAddr: 0x100005310, symSize: 0x48 }
  - { offsetInCU: 0x23AB7, offset: 0x23AB7, size: 0x8, addend: 0x0, symName: __ZNSt3__122__compressed_pair_elemIPNS_11__list_nodeINS_10shared_ptrIN7CoTrain11LogAppenderEEEPvEELi0ELb0EEC2B7v160006IRS8_vEEOT_, symObjAddr: 0x4518, symBinAddr: 0x100005358, symSize: 0x24 }
  - { offsetInCU: 0x23AFA, offset: 0x23AFA, size: 0x8, addend: 0x0, symName: __ZNSt3__122__compressed_pair_elemINS_22__allocator_destructorINS_9allocatorINS_11__list_nodeINS_10shared_ptrIN7CoTrain11LogAppenderEEEPvEEEEEELi1ELb0EEC2B7v160006ISB_vEEOT_, symObjAddr: 0x453C, symBinAddr: 0x10000537C, symSize: 0x24 }
  - { offsetInCU: 0x23B3D, offset: 0x23B3D, size: 0x8, addend: 0x0, symName: __ZNSt3__19allocatorINS_11__list_nodeINS_10shared_ptrIN7CoTrain11LogAppenderEEEPvEEE9constructB7v160006IS5_JRKS5_EEEvPT_DpOT0_, symObjAddr: 0x4560, symBinAddr: 0x1000053A0, symSize: 0x30 }
  - { offsetInCU: 0x23B95, offset: 0x23B95, size: 0x8, addend: 0x0, symName: __ZNKSt3__117__compressed_pairIPNS_11__list_nodeINS_10shared_ptrIN7CoTrain11LogAppenderEEEPvEENS_22__allocator_destructorINS_9allocatorIS7_EEEEE5firstB7v160006Ev, symObjAddr: 0x4590, symBinAddr: 0x1000053D0, symSize: 0x24 }
  - { offsetInCU: 0x23BBB, offset: 0x23BBB, size: 0x8, addend: 0x0, symName: __ZNKSt3__122__compressed_pair_elemIPNS_11__list_nodeINS_10shared_ptrIN7CoTrain11LogAppenderEEEPvEELi0ELb0EE5__getB7v160006Ev, symObjAddr: 0x45B4, symBinAddr: 0x1000053F4, symSize: 0x14 }
  - { offsetInCU: 0x23BE1, offset: 0x23BE1, size: 0x8, addend: 0x0, symName: __ZNSt3__117__compressed_pairImNS_9allocatorINS_11__list_nodeINS_10shared_ptrIN7CoTrain11LogAppenderEEEPvEEEEE5firstB7v160006Ev, symObjAddr: 0x45C8, symBinAddr: 0x100005408, symSize: 0x24 }
  - { offsetInCU: 0x23C07, offset: 0x23C07, size: 0x8, addend: 0x0, symName: __ZNSt3__117__compressed_pairIPNS_11__list_nodeINS_10shared_ptrIN7CoTrain11LogAppenderEEEPvEENS_22__allocator_destructorINS_9allocatorIS7_EEEEE5firstB7v160006Ev, symObjAddr: 0x45EC, symBinAddr: 0x10000542C, symSize: 0x24 }
  - { offsetInCU: 0x23C2D, offset: 0x23C2D, size: 0x8, addend: 0x0, symName: __ZNSt3__122__compressed_pair_elemIPNS_11__list_nodeINS_10shared_ptrIN7CoTrain11LogAppenderEEEPvEELi0ELb0EE5__getB7v160006Ev, symObjAddr: 0x4610, symBinAddr: 0x100005450, symSize: 0x14 }
  - { offsetInCU: 0x23C53, offset: 0x23C53, size: 0x8, addend: 0x0, symName: __ZNSt3__110unique_ptrINS_11__list_nodeINS_10shared_ptrIN7CoTrain11LogAppenderEEEPvEENS_22__allocator_destructorINS_9allocatorIS7_EEEEED2B7v160006Ev, symObjAddr: 0x4624, symBinAddr: 0x100005464, symSize: 0x30 }
  - { offsetInCU: 0x23C7D, offset: 0x23C7D, size: 0x8, addend: 0x0, symName: __ZNSt3__110unique_ptrINS_11__list_nodeINS_10shared_ptrIN7CoTrain11LogAppenderEEEPvEENS_22__allocator_destructorINS_9allocatorIS7_EEEEE5resetB7v160006EPS7_, symObjAddr: 0x4654, symBinAddr: 0x100005494, symSize: 0x78 }
  - { offsetInCU: 0x23CC1, offset: 0x23CC1, size: 0x8, addend: 0x0, symName: __ZNSt3__117__compressed_pairIPNS_11__list_nodeINS_10shared_ptrIN7CoTrain11LogAppenderEEEPvEENS_22__allocator_destructorINS_9allocatorIS7_EEEEE6secondB7v160006Ev, symObjAddr: 0x46CC, symBinAddr: 0x10000550C, symSize: 0x28 }
  - { offsetInCU: 0x23CE7, offset: 0x23CE7, size: 0x8, addend: 0x0, symName: __ZNSt3__122__allocator_destructorINS_9allocatorINS_11__list_nodeINS_10shared_ptrIN7CoTrain11LogAppenderEEEPvEEEEEclB7v160006EPS8_, symObjAddr: 0x46F4, symBinAddr: 0x100005534, symSize: 0x34 }
  - { offsetInCU: 0x23D1C, offset: 0x23D1C, size: 0x8, addend: 0x0, symName: __ZNSt3__122__compressed_pair_elemINS_22__allocator_destructorINS_9allocatorINS_11__list_nodeINS_10shared_ptrIN7CoTrain11LogAppenderEEEPvEEEEEELi1ELb0EE5__getB7v160006Ev, symObjAddr: 0x4728, symBinAddr: 0x100005568, symSize: 0x14 }
  - { offsetInCU: 0x23D42, offset: 0x23D42, size: 0x8, addend: 0x0, symName: __ZNSt3__116allocator_traitsINS_9allocatorINS_11__list_nodeINS_10shared_ptrIN7CoTrain11LogAppenderEEEPvEEEEE10deallocateB7v160006ERS9_PS8_m, symObjAddr: 0x473C, symBinAddr: 0x10000557C, symSize: 0x34 }
  - { offsetInCU: 0x23D84, offset: 0x23D84, size: 0x8, addend: 0x0, symName: __ZNSt3__19allocatorINS_11__list_nodeINS_10shared_ptrIN7CoTrain11LogAppenderEEEPvEEE10deallocateB7v160006EPS7_m, symObjAddr: 0x4770, symBinAddr: 0x1000055B0, symSize: 0x40 }
  - { offsetInCU: 0x23DC8, offset: 0x23DC8, size: 0x8, addend: 0x0, symName: __ZNKSt3__110shared_ptrIN7CoTrain11LogAppenderEE3getB7v160006Ev, symObjAddr: 0x47B0, symBinAddr: 0x1000055F0, symSize: 0x18 }
  - { offsetInCU: 0x23DEE, offset: 0x23DEE, size: 0x8, addend: 0x0, symName: __ZNSt3__110__list_impINS_10shared_ptrIN7CoTrain11LogAppenderEEENS_9allocatorIS4_EEE14__unlink_nodesEPNS_16__list_node_baseIS4_PvEESB_, symObjAddr: 0x47C8, symBinAddr: 0x100005608, symSize: 0x3C }
  - { offsetInCU: 0x23E23, offset: 0x23E23, size: 0x8, addend: 0x0, symName: __ZNSt3__116allocator_traitsINS_9allocatorINS_11__list_nodeINS_10shared_ptrIN7CoTrain11LogAppenderEEEPvEEEEE7destroyB7v160006IS6_vvEEvRS9_PT_, symObjAddr: 0x4804, symBinAddr: 0x100005644, symSize: 0x28 }
  - { offsetInCU: 0x23E5E, offset: 0x23E5E, size: 0x8, addend: 0x0, symName: __ZNSt3__121__list_const_iteratorINS_10shared_ptrIN7CoTrain11LogAppenderEEEPvEC2B7v160006ERKNS_15__list_iteratorIS4_S5_EE, symObjAddr: 0x482C, symBinAddr: 0x10000566C, symSize: 0x24 }
  - { offsetInCU: 0x23E97, offset: 0x23E97, size: 0x8, addend: 0x0, symName: __ZNKSt3__112basic_stringIcNS_11char_traitsIcEENS_9allocatorIcEEE4dataB7v160006Ev, symObjAddr: 0x4A3C, symBinAddr: 0x10000587C, symSize: 0x28 }
  - { offsetInCU: 0x23EBD, offset: 0x23EBD, size: 0x8, addend: 0x0, symName: __ZNKSt3__112basic_stringIcNS_11char_traitsIcEENS_9allocatorIcEEE4sizeB7v160006Ev, symObjAddr: 0x4A64, symBinAddr: 0x1000058A4, symSize: 0x54 }
  - { offsetInCU: 0x23F06, offset: 0x23F06, size: 0x8, addend: 0x0, symName: __ZNKSt3__113basic_ostreamIcNS_11char_traitsIcEEE6sentrycvbB7v160006Ev, symObjAddr: 0x4AB8, symBinAddr: 0x1000058F8, symSize: 0x1C }
  - { offsetInCU: 0x23F2C, offset: 0x23F2C, size: 0x8, addend: 0x0, symName: __ZNSt3__119ostreambuf_iteratorIcNS_11char_traitsIcEEEC1B7v160006ERNS_13basic_ostreamIcS2_EE, symObjAddr: 0x4D14, symBinAddr: 0x100005B54, symSize: 0x34 }
  - { offsetInCU: 0x23F65, offset: 0x23F65, size: 0x8, addend: 0x0, symName: __ZNKSt3__18ios_base5flagsB7v160006Ev, symObjAddr: 0x4D48, symBinAddr: 0x100005B88, symSize: 0x18 }
  - { offsetInCU: 0x23F8D, offset: 0x23F8D, size: 0x8, addend: 0x0, symName: __ZNKSt3__19basic_iosIcNS_11char_traitsIcEEE4fillB7v160006Ev, symObjAddr: 0x4D60, symBinAddr: 0x100005BA0, symSize: 0x64 }
  - { offsetInCU: 0x23FB5, offset: 0x23FB5, size: 0x8, addend: 0x0, symName: __ZNKSt3__119ostreambuf_iteratorIcNS_11char_traitsIcEEE6failedB7v160006Ev, symObjAddr: 0x4DC4, symBinAddr: 0x100005C04, symSize: 0x24 }
  - { offsetInCU: 0x23FDB, offset: 0x23FDB, size: 0x8, addend: 0x0, symName: __ZNSt3__19basic_iosIcNS_11char_traitsIcEEE8setstateB7v160006Ej, symObjAddr: 0x4DE8, symBinAddr: 0x100005C28, symSize: 0x2C }
  - { offsetInCU: 0x24010, offset: 0x24010, size: 0x8, addend: 0x0, symName: __ZNKSt3__18ios_base5widthB7v160006Ev, symObjAddr: 0x4E14, symBinAddr: 0x100005C54, symSize: 0x18 }
  - { offsetInCU: 0x24038, offset: 0x24038, size: 0x8, addend: 0x0, symName: __ZNSt3__115basic_streambufIcNS_11char_traitsIcEEE5sputnB7v160006EPKcl, symObjAddr: 0x4E2C, symBinAddr: 0x100005C6C, symSize: 0x3C }
  - { offsetInCU: 0x2407C, offset: 0x2407C, size: 0x8, addend: 0x0, symName: __ZNSt3__112basic_stringIcNS_11char_traitsIcEENS_9allocatorIcEEEC1B7v160006Emc, symObjAddr: 0x4E68, symBinAddr: 0x100005CA8, symSize: 0x3C }
  - { offsetInCU: 0x240C4, offset: 0x240C4, size: 0x8, addend: 0x0, symName: __ZNSt3__112basic_stringIcNS_11char_traitsIcEENS_9allocatorIcEEE4dataB7v160006Ev, symObjAddr: 0x4EA4, symBinAddr: 0x100005CE4, symSize: 0x28 }
  - { offsetInCU: 0x240EA, offset: 0x240EA, size: 0x8, addend: 0x0, symName: __ZNSt3__18ios_base5widthB7v160006El, symObjAddr: 0x4ECC, symBinAddr: 0x100005D0C, symSize: 0x2C }
  - { offsetInCU: 0x24130, offset: 0x24130, size: 0x8, addend: 0x0, symName: __ZNSt3__112basic_stringIcNS_11char_traitsIcEENS_9allocatorIcEEEC2B7v160006Emc, symObjAddr: 0x4EF8, symBinAddr: 0x100005D38, symSize: 0x54 }
  - { offsetInCU: 0x24178, offset: 0x24178, size: 0x8, addend: 0x0, symName: __ZNSt3__112basic_stringIcNS_11char_traitsIcEENS_9allocatorIcEEE13__get_pointerB7v160006Ev, symObjAddr: 0x4F60, symBinAddr: 0x100005DA0, symSize: 0x54 }
  - { offsetInCU: 0x2419E, offset: 0x2419E, size: 0x8, addend: 0x0, symName: __ZNKSt3__112basic_stringIcNS_11char_traitsIcEENS_9allocatorIcEEE9__is_longB7v160006Ev, symObjAddr: 0x4FB4, symBinAddr: 0x100005DF4, symSize: 0x38 }
  - { offsetInCU: 0x241C4, offset: 0x241C4, size: 0x8, addend: 0x0, symName: __ZNSt3__112basic_stringIcNS_11char_traitsIcEENS_9allocatorIcEEE18__get_long_pointerB7v160006Ev, symObjAddr: 0x4FEC, symBinAddr: 0x100005E2C, symSize: 0x28 }
  - { offsetInCU: 0x241EA, offset: 0x241EA, size: 0x8, addend: 0x0, symName: __ZNSt3__112basic_stringIcNS_11char_traitsIcEENS_9allocatorIcEEE19__get_short_pointerB7v160006Ev, symObjAddr: 0x5014, symBinAddr: 0x100005E54, symSize: 0x28 }
  - { offsetInCU: 0x24210, offset: 0x24210, size: 0x8, addend: 0x0, symName: __ZNKSt3__117__compressed_pairINS_12basic_stringIcNS_11char_traitsIcEENS_9allocatorIcEEE5__repES5_E5firstB7v160006Ev, symObjAddr: 0x503C, symBinAddr: 0x100005E7C, symSize: 0x24 }
  - { offsetInCU: 0x24236, offset: 0x24236, size: 0x8, addend: 0x0, symName: __ZNKSt3__122__compressed_pair_elemINS_12basic_stringIcNS_11char_traitsIcEENS_9allocatorIcEEE5__repELi0ELb0EE5__getB7v160006Ev, symObjAddr: 0x5060, symBinAddr: 0x100005EA0, symSize: 0x14 }
  - { offsetInCU: 0x2425C, offset: 0x2425C, size: 0x8, addend: 0x0, symName: __ZNSt3__114pointer_traitsIPcE10pointer_toB7v160006ERc, symObjAddr: 0x5074, symBinAddr: 0x100005EB4, symSize: 0x14 }
  - { offsetInCU: 0x24280, offset: 0x24280, size: 0x8, addend: 0x0, symName: __ZNSt3__119ostreambuf_iteratorIcNS_11char_traitsIcEEEC2B7v160006ERNS_13basic_ostreamIcS2_EE, symObjAddr: 0x5088, symBinAddr: 0x100005EC8, symSize: 0x54 }
  - { offsetInCU: 0x242B9, offset: 0x242B9, size: 0x8, addend: 0x0, symName: __ZNKSt3__19basic_iosIcNS_11char_traitsIcEEE5rdbufB7v160006Ev, symObjAddr: 0x50DC, symBinAddr: 0x100005F1C, symSize: 0x24 }
  - { offsetInCU: 0x242E1, offset: 0x242E1, size: 0x8, addend: 0x0, symName: __ZNKSt3__18ios_base5rdbufB7v160006Ev, symObjAddr: 0x5100, symBinAddr: 0x100005F40, symSize: 0x18 }
  - { offsetInCU: 0x24307, offset: 0x24307, size: 0x8, addend: 0x0, symName: __ZNSt3__111char_traitsIcE11eq_int_typeEii, symObjAddr: 0x5118, symBinAddr: 0x100005F58, symSize: 0x28 }
  - { offsetInCU: 0x2433A, offset: 0x2433A, size: 0x8, addend: 0x0, symName: __ZNSt3__111char_traitsIcE3eofEv, symObjAddr: 0x5140, symBinAddr: 0x100005F80, symSize: 0x8 }
  - { offsetInCU: 0x2434E, offset: 0x2434E, size: 0x8, addend: 0x0, symName: __ZNKSt3__19basic_iosIcNS_11char_traitsIcEEE5widenB7v160006Ec, symObjAddr: 0x5148, symBinAddr: 0x100005F88, symSize: 0x84 }
  - { offsetInCU: 0x243C3, offset: 0x243C3, size: 0x8, addend: 0x0, symName: __ZNKSt3__15ctypeIcE5widenB7v160006Ec, symObjAddr: 0x51F8, symBinAddr: 0x100006038, symSize: 0x38 }
  - { offsetInCU: 0x243F8, offset: 0x243F8, size: 0x8, addend: 0x0, symName: __ZNSt3__18ios_base8setstateB7v160006Ej, symObjAddr: 0x5230, symBinAddr: 0x100006070, symSize: 0x34 }
  - { offsetInCU: 0x2442F, offset: 0x2442F, size: 0x8, addend: 0x0, symName: __ZNKSt3__112basic_stringIcNS_11char_traitsIcEENS_9allocatorIcEEE13__get_pointerB7v160006Ev, symObjAddr: 0x5278, symBinAddr: 0x1000060B8, symSize: 0x54 }
  - { offsetInCU: 0x24455, offset: 0x24455, size: 0x8, addend: 0x0, symName: __ZNKSt3__112basic_stringIcNS_11char_traitsIcEENS_9allocatorIcEEE18__get_long_pointerB7v160006Ev, symObjAddr: 0x52CC, symBinAddr: 0x10000610C, symSize: 0x28 }
  - { offsetInCU: 0x2447B, offset: 0x2447B, size: 0x8, addend: 0x0, symName: __ZNKSt3__112basic_stringIcNS_11char_traitsIcEENS_9allocatorIcEEE19__get_short_pointerB7v160006Ev, symObjAddr: 0x52F4, symBinAddr: 0x100006134, symSize: 0x28 }
  - { offsetInCU: 0x244A1, offset: 0x244A1, size: 0x8, addend: 0x0, symName: __ZNSt3__114pointer_traitsIPKcE10pointer_toB7v160006ERS1_, symObjAddr: 0x531C, symBinAddr: 0x10000615C, symSize: 0x14 }
  - { offsetInCU: 0x244C5, offset: 0x244C5, size: 0x8, addend: 0x0, symName: __ZNKSt3__112basic_stringIcNS_11char_traitsIcEENS_9allocatorIcEEE15__get_long_sizeB7v160006Ev, symObjAddr: 0x5330, symBinAddr: 0x100006170, symSize: 0x28 }
  - { offsetInCU: 0x244EB, offset: 0x244EB, size: 0x8, addend: 0x0, symName: __ZNKSt3__112basic_stringIcNS_11char_traitsIcEENS_9allocatorIcEEE16__get_short_sizeB7v160006Ev, symObjAddr: 0x5358, symBinAddr: 0x100006198, symSize: 0x34 }
  - { offsetInCU: 0x24511, offset: 0x24511, size: 0x8, addend: 0x0, symName: __ZNSt3__111char_traitsIcE6lengthEPKc, symObjAddr: 0x538C, symBinAddr: 0x1000061CC, symSize: 0x34 }
  - { offsetInCU: 0x24535, offset: 0x24535, size: 0x8, addend: 0x0, symName: __ZNSt3__19basic_iosIcNS_11char_traitsIcEEEC2B7v160006Ev, symObjAddr: 0x53E4, symBinAddr: 0x100006224, symSize: 0x44 }
  - { offsetInCU: 0x2455F, offset: 0x2455F, size: 0x8, addend: 0x0, symName: __ZNSt3__114basic_iostreamIcNS_11char_traitsIcEEEC2B7v160006EPNS_15basic_streambufIcS2_EE, symObjAddr: 0x5428, symBinAddr: 0x100006268, symSize: 0xAC }
  - { offsetInCU: 0x245A5, offset: 0x245A5, size: 0x8, addend: 0x0, symName: __ZNSt3__115basic_stringbufIcNS_11char_traitsIcEENS_9allocatorIcEEEC1B7v160006Ej, symObjAddr: 0x54D4, symBinAddr: 0x100006314, symSize: 0x34 }
  - { offsetInCU: 0x245DE, offset: 0x245DE, size: 0x8, addend: 0x0, symName: __ZNSt3__18ios_baseC2B7v160006Ev, symObjAddr: 0x5508, symBinAddr: 0x100006348, symSize: 0x24 }
  - { offsetInCU: 0x24608, offset: 0x24608, size: 0x8, addend: 0x0, symName: __ZNSt3__113basic_istreamIcNS_11char_traitsIcEEEC2B7v160006EPNS_15basic_streambufIcS2_EE, symObjAddr: 0x552C, symBinAddr: 0x10000636C, symSize: 0x64 }
  - { offsetInCU: 0x2464E, offset: 0x2464E, size: 0x8, addend: 0x0, symName: __ZNSt3__113basic_ostreamIcNS_11char_traitsIcEEEC2B7v160006Ev, symObjAddr: 0x5590, symBinAddr: 0x1000063D0, symSize: 0x34 }
  - { offsetInCU: 0x24685, offset: 0x24685, size: 0x8, addend: 0x0, symName: __ZNSt3__19basic_iosIcNS_11char_traitsIcEEE4initB7v160006EPNS_15basic_streambufIcS2_EE, symObjAddr: 0x55C4, symBinAddr: 0x100006404, symSize: 0x44 }
  - { offsetInCU: 0x246BC, offset: 0x246BC, size: 0x8, addend: 0x0, symName: __ZNSt3__115basic_stringbufIcNS_11char_traitsIcEENS_9allocatorIcEEEC2B7v160006Ej, symObjAddr: 0x5608, symBinAddr: 0x100006448, symSize: 0x60 }
  - { offsetInCU: 0x246F5, offset: 0x246F5, size: 0x8, addend: 0x0, symName: __ZNSt3__112basic_stringIcNS_11char_traitsIcEENS_9allocatorIcEEEC2B7v160006IDnEEPKc, symObjAddr: 0x5668, symBinAddr: 0x1000064A8, symSize: 0x60 }
  - { offsetInCU: 0x24733, offset: 0x24733, size: 0x8, addend: 0x0, symName: __ZNSt3__111unique_lockINS_5mutexEEC2B7v160006ERS1_, symObjAddr: 0x56C8, symBinAddr: 0x100006508, symSize: 0x44 }
  - { offsetInCU: 0x2476C, offset: 0x2476C, size: 0x8, addend: 0x0, symName: __ZNSt3__111unique_lockINS_5mutexEED2B7v160006Ev, symObjAddr: 0x570C, symBinAddr: 0x10000654C, symSize: 0x4C }
  - { offsetInCU: 0x24796, offset: 0x24796, size: 0x8, addend: 0x0, symName: '__ZN7CoTrain4TaskC2IZNS_11LogMannager5debugENSt3__110shared_ptrINS_8LogEventEEEE3$_0JEEEiOT_DpOT0_', symObjAddr: 0x5758, symBinAddr: 0x100006598, symSize: 0x84 }
  - { offsetInCU: 0x247EC, offset: 0x247EC, size: 0x8, addend: 0x0, symName: '__ZNSt3__18functionIFvvEEC1INS_6__bindIZN7CoTrain11LogMannager5debugENS_10shared_ptrINS5_8LogEventEEEE3$_0JEEEvEET_', symObjAddr: 0x5814, symBinAddr: 0x100006654, symSize: 0x34 }
  - { offsetInCU: 0x24838, offset: 0x24838, size: 0x8, addend: 0x0, symName: '__ZNSt3__16__bindIZN7CoTrain11LogMannager5debugENS_10shared_ptrINS1_8LogEventEEEE3$_0JEED1Ev', symObjAddr: 0x5848, symBinAddr: 0x100006688, symSize: 0x2C }
  - { offsetInCU: 0x24865, offset: 0x24865, size: 0x8, addend: 0x0, symName: '__ZNSt3__16__bindIZN7CoTrain11LogMannager5debugENS_10shared_ptrINS1_8LogEventEEEE3$_0JEEC1B7v160006IS6_JEvEEOT_DpOT0_', symObjAddr: 0x5874, symBinAddr: 0x1000066B4, symSize: 0x34 }
  - { offsetInCU: 0x248AD, offset: 0x248AD, size: 0x8, addend: 0x0, symName: '__ZNSt3__16__bindIZN7CoTrain11LogMannager5debugENS_10shared_ptrINS1_8LogEventEEEE3$_0JEEC2B7v160006IS6_JEvEEOT_DpOT0_', symObjAddr: 0x58A8, symBinAddr: 0x1000066E8, symSize: 0x34 }
  - { offsetInCU: 0x248F5, offset: 0x248F5, size: 0x8, addend: 0x0, symName: '__ZZN7CoTrain11LogMannager5debugENSt3__110shared_ptrINS_8LogEventEEEEN3$_0C1EOS5_', symObjAddr: 0x58DC, symBinAddr: 0x10000671C, symSize: 0x34 }
  - { offsetInCU: 0x2492A, offset: 0x2492A, size: 0x8, addend: 0x0, symName: '__ZZN7CoTrain11LogMannager5debugENSt3__110shared_ptrINS_8LogEventEEEEN3$_0C2EOS5_', symObjAddr: 0x5910, symBinAddr: 0x100006750, symSize: 0x48 }
  - { offsetInCU: 0x2495F, offset: 0x2495F, size: 0x8, addend: 0x0, symName: __ZNSt3__110shared_ptrIN7CoTrain8LogEventEEC1B7v160006EOS3_, symObjAddr: 0x5958, symBinAddr: 0x100006798, symSize: 0x34 }
  - { offsetInCU: 0x24998, offset: 0x24998, size: 0x8, addend: 0x0, symName: __ZNSt3__110shared_ptrIN7CoTrain8LogEventEEC2B7v160006EOS3_, symObjAddr: 0x598C, symBinAddr: 0x1000067CC, symSize: 0x40 }
  - { offsetInCU: 0x249D1, offset: 0x249D1, size: 0x8, addend: 0x0, symName: '__ZNSt3__18functionIFvvEEC2INS_6__bindIZN7CoTrain11LogMannager5debugENS_10shared_ptrINS5_8LogEventEEEE3$_0JEEEvEET_', symObjAddr: 0x59CC, symBinAddr: 0x10000680C, symSize: 0x34 }
  - { offsetInCU: 0x24A17, offset: 0x24A17, size: 0x8, addend: 0x0, symName: '__ZNSt3__110__function12__value_funcIFvvEEC1B7v160006INS_6__bindIZN7CoTrain11LogMannager5debugENS_10shared_ptrINS6_8LogEventEEEE3$_0JEEEvEEOT_', symObjAddr: 0x5A00, symBinAddr: 0x100006840, symSize: 0x50 }
  - { offsetInCU: 0x24A5A, offset: 0x24A5A, size: 0x8, addend: 0x0, symName: '__ZNSt3__19allocatorINS_6__bindIZN7CoTrain11LogMannager5debugENS_10shared_ptrINS2_8LogEventEEEE3$_0JEEEEC1B7v160006Ev', symObjAddr: 0x5A50, symBinAddr: 0x100006890, symSize: 0x2C }
  - { offsetInCU: 0x24A84, offset: 0x24A84, size: 0x8, addend: 0x0, symName: '__ZNSt3__110__function12__value_funcIFvvEEC1B7v160006INS_6__bindIZN7CoTrain11LogMannager5debugENS_10shared_ptrINS6_8LogEventEEEE3$_0JEEENS_9allocatorISC_EEEEOT_RKT0_', symObjAddr: 0x5A7C, symBinAddr: 0x1000068BC, symSize: 0x3C }
  - { offsetInCU: 0x24ADE, offset: 0x24ADE, size: 0x8, addend: 0x0, symName: '__ZNSt3__19allocatorINS_6__bindIZN7CoTrain11LogMannager5debugENS_10shared_ptrINS2_8LogEventEEEE3$_0JEEEEC2B7v160006Ev', symObjAddr: 0x5AB8, symBinAddr: 0x1000068F8, symSize: 0x2C }
  - { offsetInCU: 0x24B08, offset: 0x24B08, size: 0x8, addend: 0x0, symName: '__ZNSt3__116__non_trivial_ifILb1ENS_9allocatorINS_6__bindIZN7CoTrain11LogMannager5debugENS_10shared_ptrINS3_8LogEventEEEE3$_0JEEEEEEC2B7v160006Ev', symObjAddr: 0x5AE4, symBinAddr: 0x100006924, symSize: 0x14 }
  - { offsetInCU: 0x24B32, offset: 0x24B32, size: 0x8, addend: 0x0, symName: '__ZNSt3__110__function12__value_funcIFvvEEC2B7v160006INS_6__bindIZN7CoTrain11LogMannager5debugENS_10shared_ptrINS6_8LogEventEEEE3$_0JEEENS_9allocatorISC_EEEEOT_RKT0_', symObjAddr: 0x5AF8, symBinAddr: 0x100006938, symSize: 0xF4 }
  - { offsetInCU: 0x24BEB, offset: 0x24BEB, size: 0x8, addend: 0x0, symName: '__ZNSt3__19allocatorINS_10__function6__funcINS_6__bindIZN7CoTrain11LogMannager5debugENS_10shared_ptrINS4_8LogEventEEEE3$_0JEEENS0_ISA_EEFvvEEEEC1B7v160006ISA_EERKNS0_IT_EE', symObjAddr: 0x5C04, symBinAddr: 0x100006A44, symSize: 0x34 }
  - { offsetInCU: 0x24C28, offset: 0x24C28, size: 0x8, addend: 0x0, symName: '__ZNSt3__19allocatorINS_10__function6__funcINS_6__bindIZN7CoTrain11LogMannager5debugENS_10shared_ptrINS4_8LogEventEEEE3$_0JEEENS0_ISA_EEFvvEEEE8allocateB7v160006Em', symObjAddr: 0x5C38, symBinAddr: 0x100006A78, symSize: 0x5C }
  - { offsetInCU: 0x24C6F, offset: 0x24C6F, size: 0x8, addend: 0x0, symName: '__ZNSt3__122__allocator_destructorINS_9allocatorINS_10__function6__funcINS_6__bindIZN7CoTrain11LogMannager5debugENS_10shared_ptrINS5_8LogEventEEEE3$_0JEEENS1_ISB_EEFvvEEEEEEC1B7v160006ERSF_m', symObjAddr: 0x5C94, symBinAddr: 0x100006AD4, symSize: 0x3C }
  - { offsetInCU: 0x24D58, offset: 0x24D58, size: 0x8, addend: 0x0, symName: '__ZNSt3__110unique_ptrINS_10__function6__baseIFvvEEENS_22__allocator_destructorINS_9allocatorINS1_6__funcINS_6__bindIZN7CoTrain11LogMannager5debugENS_10shared_ptrINS9_8LogEventEEEE3$_0JEEENS6_ISF_EES3_EEEEEEEC1B7v160006ILb1EvEEPSH_NS_16__dependent_typeINS_27__unique_ptr_deleter_sfinaeISJ_EEXT_EE20__good_rval_ref_typeE', symObjAddr: 0x5CD0, symBinAddr: 0x100006B10, symSize: 0x3C }
  - { offsetInCU: 0x24DAB, offset: 0x24DAB, size: 0x8, addend: 0x0, symName: '__ZNKSt3__110unique_ptrINS_10__function6__baseIFvvEEENS_22__allocator_destructorINS_9allocatorINS1_6__funcINS_6__bindIZN7CoTrain11LogMannager5debugENS_10shared_ptrINS9_8LogEventEEEE3$_0JEEENS6_ISF_EES3_EEEEEEE3getB7v160006Ev', symObjAddr: 0x5D0C, symBinAddr: 0x100006B4C, symSize: 0x28 }
  - { offsetInCU: 0x24DD1, offset: 0x24DD1, size: 0x8, addend: 0x0, symName: '__ZNSt3__110__function6__funcINS_6__bindIZN7CoTrain11LogMannager5debugENS_10shared_ptrINS3_8LogEventEEEE3$_0JEEENS_9allocatorIS9_EEFvvEEC1B7v160006EOS9_OSB_', symObjAddr: 0x5D34, symBinAddr: 0x100006B74, symSize: 0x3C }
  - { offsetInCU: 0x24E19, offset: 0x24E19, size: 0x8, addend: 0x0, symName: '__ZNSt3__110unique_ptrINS_10__function6__baseIFvvEEENS_22__allocator_destructorINS_9allocatorINS1_6__funcINS_6__bindIZN7CoTrain11LogMannager5debugENS_10shared_ptrINS9_8LogEventEEEE3$_0JEEENS6_ISF_EES3_EEEEEEE7releaseB7v160006Ev', symObjAddr: 0x5D70, symBinAddr: 0x100006BB0, symSize: 0x44 }
  - { offsetInCU: 0x24E4E, offset: 0x24E4E, size: 0x8, addend: 0x0, symName: '__ZNSt3__110unique_ptrINS_10__function6__baseIFvvEEENS_22__allocator_destructorINS_9allocatorINS1_6__funcINS_6__bindIZN7CoTrain11LogMannager5debugENS_10shared_ptrINS9_8LogEventEEEE3$_0JEEENS6_ISF_EES3_EEEEEEED1B7v160006Ev', symObjAddr: 0x5DB4, symBinAddr: 0x100006BF4, symSize: 0x2C }
  - { offsetInCU: 0x24E78, offset: 0x24E78, size: 0x8, addend: 0x0, symName: '__ZNSt3__19allocatorINS_10__function6__funcINS_6__bindIZN7CoTrain11LogMannager5debugENS_10shared_ptrINS4_8LogEventEEEE3$_0JEEENS0_ISA_EEFvvEEEEC2B7v160006ISA_EERKNS0_IT_EE', symObjAddr: 0x5DE0, symBinAddr: 0x100006C20, symSize: 0x30 }
  - { offsetInCU: 0x24EB5, offset: 0x24EB5, size: 0x8, addend: 0x0, symName: '__ZNSt3__116__non_trivial_ifILb1ENS_9allocatorINS_10__function6__funcINS_6__bindIZN7CoTrain11LogMannager5debugENS_10shared_ptrINS5_8LogEventEEEE3$_0JEEENS1_ISB_EEFvvEEEEEEC2B7v160006Ev', symObjAddr: 0x5E10, symBinAddr: 0x100006C50, symSize: 0x14 }
  - { offsetInCU: 0x24EEA, offset: 0x24EEA, size: 0x8, addend: 0x0, symName: '__ZNSt3__116allocator_traitsINS_9allocatorINS_10__function6__funcINS_6__bindIZN7CoTrain11LogMannager5debugENS_10shared_ptrINS5_8LogEventEEEE3$_0JEEENS1_ISB_EEFvvEEEEEE8max_sizeB7v160006ISF_vEEmRKSF_', symObjAddr: 0x5E24, symBinAddr: 0x100006C64, symSize: 0x24 }
  - { offsetInCU: 0x24F18, offset: 0x24F18, size: 0x8, addend: 0x0, symName: '__ZNKSt3__19allocatorINS_10__function6__funcINS_6__bindIZN7CoTrain11LogMannager5debugENS_10shared_ptrINS4_8LogEventEEEE3$_0JEEENS0_ISA_EEFvvEEEE8max_sizeB7v160006Ev', symObjAddr: 0x5E48, symBinAddr: 0x100006C88, symSize: 0x18 }
  - { offsetInCU: 0x24F3E, offset: 0x24F3E, size: 0x8, addend: 0x0, symName: '__ZNSt3__122__allocator_destructorINS_9allocatorINS_10__function6__funcINS_6__bindIZN7CoTrain11LogMannager5debugENS_10shared_ptrINS5_8LogEventEEEE3$_0JEEENS1_ISB_EEFvvEEEEEEC2B7v160006ERSF_m', symObjAddr: 0x5E60, symBinAddr: 0x100006CA0, symSize: 0x2C }
  - { offsetInCU: 0x24F86, offset: 0x24F86, size: 0x8, addend: 0x0, symName: '__ZNSt3__110unique_ptrINS_10__function6__baseIFvvEEENS_22__allocator_destructorINS_9allocatorINS1_6__funcINS_6__bindIZN7CoTrain11LogMannager5debugENS_10shared_ptrINS9_8LogEventEEEE3$_0JEEENS6_ISF_EES3_EEEEEEEC2B7v160006ILb1EvEEPSH_NS_16__dependent_typeINS_27__unique_ptr_deleter_sfinaeISJ_EEXT_EE20__good_rval_ref_typeE', symObjAddr: 0x5E8C, symBinAddr: 0x100006CCC, symSize: 0x48 }
  - { offsetInCU: 0x24FD9, offset: 0x24FD9, size: 0x8, addend: 0x0, symName: '__ZNSt3__117__compressed_pairIPNS_10__function6__funcINS_6__bindIZN7CoTrain11LogMannager5debugENS_10shared_ptrINS4_8LogEventEEEE3$_0JEEENS_9allocatorISA_EEFvvEEENS_22__allocator_destructorINSB_ISE_EEEEEC1B7v160006IRSF_SI_EEOT_OT0_', symObjAddr: 0x5ED4, symBinAddr: 0x100006D14, symSize: 0x3C }
  - { offsetInCU: 0x25033, offset: 0x25033, size: 0x8, addend: 0x0, symName: '__ZNSt3__117__compressed_pairIPNS_10__function6__funcINS_6__bindIZN7CoTrain11LogMannager5debugENS_10shared_ptrINS4_8LogEventEEEE3$_0JEEENS_9allocatorISA_EEFvvEEENS_22__allocator_destructorINSB_ISE_EEEEEC2B7v160006IRSF_SI_EEOT_OT0_', symObjAddr: 0x5F10, symBinAddr: 0x100006D50, symSize: 0x48 }
  - { offsetInCU: 0x2508D, offset: 0x2508D, size: 0x8, addend: 0x0, symName: '__ZNSt3__122__compressed_pair_elemIPNS_10__function6__funcINS_6__bindIZN7CoTrain11LogMannager5debugENS_10shared_ptrINS4_8LogEventEEEE3$_0JEEENS_9allocatorISA_EEFvvEEELi0ELb0EEC2B7v160006IRSF_vEEOT_', symObjAddr: 0x5F58, symBinAddr: 0x100006D98, symSize: 0x24 }
  - { offsetInCU: 0x250D0, offset: 0x250D0, size: 0x8, addend: 0x0, symName: '__ZNSt3__122__compressed_pair_elemINS_22__allocator_destructorINS_9allocatorINS_10__function6__funcINS_6__bindIZN7CoTrain11LogMannager5debugENS_10shared_ptrINS6_8LogEventEEEE3$_0JEEENS2_ISC_EEFvvEEEEEEELi1ELb0EEC2B7v160006ISH_vEEOT_', symObjAddr: 0x5F7C, symBinAddr: 0x100006DBC, symSize: 0x24 }
  - { offsetInCU: 0x25113, offset: 0x25113, size: 0x8, addend: 0x0, symName: '__ZNKSt3__117__compressed_pairIPNS_10__function6__funcINS_6__bindIZN7CoTrain11LogMannager5debugENS_10shared_ptrINS4_8LogEventEEEE3$_0JEEENS_9allocatorISA_EEFvvEEENS_22__allocator_destructorINSB_ISE_EEEEE5firstB7v160006Ev', symObjAddr: 0x5FA0, symBinAddr: 0x100006DE0, symSize: 0x24 }
  - { offsetInCU: 0x25139, offset: 0x25139, size: 0x8, addend: 0x0, symName: '__ZNKSt3__122__compressed_pair_elemIPNS_10__function6__funcINS_6__bindIZN7CoTrain11LogMannager5debugENS_10shared_ptrINS4_8LogEventEEEE3$_0JEEENS_9allocatorISA_EEFvvEEELi0ELb0EE5__getB7v160006Ev', symObjAddr: 0x5FC4, symBinAddr: 0x100006E04, symSize: 0x14 }
  - { offsetInCU: 0x2515F, offset: 0x2515F, size: 0x8, addend: 0x0, symName: '__ZNSt3__110__function6__funcINS_6__bindIZN7CoTrain11LogMannager5debugENS_10shared_ptrINS3_8LogEventEEEE3$_0JEEENS_9allocatorIS9_EEFvvEEC2B7v160006EOS9_OSB_', symObjAddr: 0x5FD8, symBinAddr: 0x100006E18, symSize: 0x88 }
  - { offsetInCU: 0x251A7, offset: 0x251A7, size: 0x8, addend: 0x0, symName: __ZNSt3__110__function6__baseIFvvEEC2B7v160006Ev, symObjAddr: 0x6060, symBinAddr: 0x100006EA0, symSize: 0x24 }
  - { offsetInCU: 0x251D1, offset: 0x251D1, size: 0x8, addend: 0x0, symName: '__ZNSt3__110__function12__alloc_funcINS_6__bindIZN7CoTrain11LogMannager5debugENS_10shared_ptrINS3_8LogEventEEEE3$_0JEEENS_9allocatorIS9_EEFvvEEC1B7v160006EOS9_OSB_', symObjAddr: 0x6084, symBinAddr: 0x100006EC4, symSize: 0x3C }
  - { offsetInCU: 0x25219, offset: 0x25219, size: 0x8, addend: 0x0, symName: __ZNSt3__110__function6__baseIFvvEED2Ev, symObjAddr: 0x60C0, symBinAddr: 0x100006F00, symSize: 0x14 }
  - { offsetInCU: 0x25243, offset: 0x25243, size: 0x8, addend: 0x0, symName: '__ZNSt3__110__function6__funcINS_6__bindIZN7CoTrain11LogMannager5debugENS_10shared_ptrINS3_8LogEventEEEE3$_0JEEENS_9allocatorIS9_EEFvvEED1Ev', symObjAddr: 0x60D4, symBinAddr: 0x100006F14, symSize: 0x2C }
  - { offsetInCU: 0x25270, offset: 0x25270, size: 0x8, addend: 0x0, symName: '__ZNSt3__110__function6__funcINS_6__bindIZN7CoTrain11LogMannager5debugENS_10shared_ptrINS3_8LogEventEEEE3$_0JEEENS_9allocatorIS9_EEFvvEED0Ev', symObjAddr: 0x6100, symBinAddr: 0x100006F40, symSize: 0x30 }
  - { offsetInCU: 0x2529D, offset: 0x2529D, size: 0x8, addend: 0x0, symName: '__ZNKSt3__110__function6__funcINS_6__bindIZN7CoTrain11LogMannager5debugENS_10shared_ptrINS3_8LogEventEEEE3$_0JEEENS_9allocatorIS9_EEFvvEE7__cloneEv', symObjAddr: 0x6130, symBinAddr: 0x100006F70, symSize: 0xFC }
  - { offsetInCU: 0x252EF, offset: 0x252EF, size: 0x8, addend: 0x0, symName: '__ZNKSt3__110__function6__funcINS_6__bindIZN7CoTrain11LogMannager5debugENS_10shared_ptrINS3_8LogEventEEEE3$_0JEEENS_9allocatorIS9_EEFvvEE7__cloneEPNS0_6__baseISC_EE', symObjAddr: 0x622C, symBinAddr: 0x10000706C, symSize: 0x58 }
  - { offsetInCU: 0x25326, offset: 0x25326, size: 0x8, addend: 0x0, symName: '__ZNSt3__110__function6__funcINS_6__bindIZN7CoTrain11LogMannager5debugENS_10shared_ptrINS3_8LogEventEEEE3$_0JEEENS_9allocatorIS9_EEFvvEE7destroyEv', symObjAddr: 0x6284, symBinAddr: 0x1000070C4, symSize: 0x28 }
  - { offsetInCU: 0x2534E, offset: 0x2534E, size: 0x8, addend: 0x0, symName: '__ZNSt3__110__function6__funcINS_6__bindIZN7CoTrain11LogMannager5debugENS_10shared_ptrINS3_8LogEventEEEE3$_0JEEENS_9allocatorIS9_EEFvvEE18destroy_deallocateEv', symObjAddr: 0x62AC, symBinAddr: 0x1000070EC, symSize: 0x58 }
  - { offsetInCU: 0x25391, offset: 0x25391, size: 0x8, addend: 0x0, symName: '__ZNSt3__110__function6__funcINS_6__bindIZN7CoTrain11LogMannager5debugENS_10shared_ptrINS3_8LogEventEEEE3$_0JEEENS_9allocatorIS9_EEFvvEEclEv', symObjAddr: 0x6304, symBinAddr: 0x100007144, symSize: 0x28 }
  - { offsetInCU: 0x253B9, offset: 0x253B9, size: 0x8, addend: 0x0, symName: '__ZNKSt3__110__function6__funcINS_6__bindIZN7CoTrain11LogMannager5debugENS_10shared_ptrINS3_8LogEventEEEE3$_0JEEENS_9allocatorIS9_EEFvvEE6targetERKSt9type_info', symObjAddr: 0x632C, symBinAddr: 0x10000716C, symSize: 0x60 }
  - { offsetInCU: 0x253F0, offset: 0x253F0, size: 0x8, addend: 0x0, symName: '__ZNKSt3__110__function6__funcINS_6__bindIZN7CoTrain11LogMannager5debugENS_10shared_ptrINS3_8LogEventEEEE3$_0JEEENS_9allocatorIS9_EEFvvEE11target_typeEv', symObjAddr: 0x638C, symBinAddr: 0x1000071CC, symSize: 0x18 }
  - { offsetInCU: 0x25418, offset: 0x25418, size: 0x8, addend: 0x0, symName: __ZNSt3__110__function6__baseIFvvEED1Ev, symObjAddr: 0x63A4, symBinAddr: 0x1000071E4, symSize: 0x14 }
  - { offsetInCU: 0x25442, offset: 0x25442, size: 0x8, addend: 0x0, symName: __ZNSt3__110__function6__baseIFvvEED0Ev, symObjAddr: 0x63B8, symBinAddr: 0x1000071F8, symSize: 0xC }
  - { offsetInCU: 0x2546C, offset: 0x2546C, size: 0x8, addend: 0x0, symName: '__ZNSt3__110__function12__alloc_funcINS_6__bindIZN7CoTrain11LogMannager5debugENS_10shared_ptrINS3_8LogEventEEEE3$_0JEEENS_9allocatorIS9_EEFvvEEC2B7v160006EOS9_OSB_', symObjAddr: 0x63C4, symBinAddr: 0x100007204, symSize: 0x5C }
  - { offsetInCU: 0x254B4, offset: 0x254B4, size: 0x8, addend: 0x0, symName: '__ZNSt3__117__compressed_pairINS_6__bindIZN7CoTrain11LogMannager5debugENS_10shared_ptrINS2_8LogEventEEEE3$_0JEEENS_9allocatorIS8_EEEC1B7v160006IJOS8_EJOSA_EEENS_21piecewise_construct_tENS_5tupleIJDpT_EEENSG_IJDpT0_EEE', symObjAddr: 0x6478, symBinAddr: 0x1000072B8, symSize: 0x3C }
  - { offsetInCU: 0x25521, offset: 0x25521, size: 0x8, addend: 0x0, symName: '__ZNSt3__15tupleIJONS_6__bindIZN7CoTrain11LogMannager5debugENS_10shared_ptrINS2_8LogEventEEEE3$_0JEEEEEC1B7v160006IJS8_ELi0EEEDpOT_', symObjAddr: 0x64B4, symBinAddr: 0x1000072F4, symSize: 0x34 }
  - { offsetInCU: 0x2556B, offset: 0x2556B, size: 0x8, addend: 0x0, symName: '__ZNSt3__15tupleIJONS_6__bindIZN7CoTrain11LogMannager5debugENS_10shared_ptrINS2_8LogEventEEEE3$_0JEEEEEC2B7v160006IJS8_ELi0EEEDpOT_', symObjAddr: 0x64E8, symBinAddr: 0x100007328, symSize: 0x34 }
  - { offsetInCU: 0x255B5, offset: 0x255B5, size: 0x8, addend: 0x0, symName: '__ZNSt3__112__tuple_implINS_15__tuple_indicesIJLm0EEEEJONS_6__bindIZN7CoTrain11LogMannager5debugENS_10shared_ptrINS4_8LogEventEEEE3$_0JEEEEEC1B7v160006IJLm0EEJSB_EJEJEJSA_EEENS1_IJXspT_EEEENS_13__tuple_typesIJDpT0_EEENS1_IJXspT1_EEEENSF_IJDpT2_EEEDpOT3_', symObjAddr: 0x651C, symBinAddr: 0x10000735C, symSize: 0x34 }
  - { offsetInCU: 0x2564A, offset: 0x2564A, size: 0x8, addend: 0x0, symName: '__ZNSt3__112__tuple_implINS_15__tuple_indicesIJLm0EEEEJONS_6__bindIZN7CoTrain11LogMannager5debugENS_10shared_ptrINS4_8LogEventEEEE3$_0JEEEEEC2B7v160006IJLm0EEJSB_EJEJEJSA_EEENS1_IJXspT_EEEENS_13__tuple_typesIJDpT0_EEENS1_IJXspT1_EEEENSF_IJDpT2_EEEDpOT3_', symObjAddr: 0x6550, symBinAddr: 0x100007390, symSize: 0x34 }
  - { offsetInCU: 0x256DF, offset: 0x256DF, size: 0x8, addend: 0x0, symName: '__ZNSt3__112__tuple_leafILm0EONS_6__bindIZN7CoTrain11LogMannager5debugENS_10shared_ptrINS2_8LogEventEEEE3$_0JEEELb0EEC2B7v160006IS8_vEEOT_', symObjAddr: 0x6584, symBinAddr: 0x1000073C4, symSize: 0x20 }
  - { offsetInCU: 0x25722, offset: 0x25722, size: 0x8, addend: 0x0, symName: '__ZNSt3__15tupleIJONS_9allocatorINS_6__bindIZN7CoTrain11LogMannager5debugENS_10shared_ptrINS3_8LogEventEEEE3$_0JEEEEEEEC1B7v160006IJSA_ELi0EEEDpOT_', symObjAddr: 0x65A4, symBinAddr: 0x1000073E4, symSize: 0x34 }
  - { offsetInCU: 0x2576C, offset: 0x2576C, size: 0x8, addend: 0x0, symName: '__ZNSt3__15tupleIJONS_9allocatorINS_6__bindIZN7CoTrain11LogMannager5debugENS_10shared_ptrINS3_8LogEventEEEE3$_0JEEEEEEEC2B7v160006IJSA_ELi0EEEDpOT_', symObjAddr: 0x65D8, symBinAddr: 0x100007418, symSize: 0x34 }
  - { offsetInCU: 0x257B6, offset: 0x257B6, size: 0x8, addend: 0x0, symName: '__ZNSt3__112__tuple_implINS_15__tuple_indicesIJLm0EEEEJONS_9allocatorINS_6__bindIZN7CoTrain11LogMannager5debugENS_10shared_ptrINS5_8LogEventEEEE3$_0JEEEEEEEC1B7v160006IJLm0EEJSD_EJEJEJSC_EEENS1_IJXspT_EEEENS_13__tuple_typesIJDpT0_EEENS1_IJXspT1_EEEENSH_IJDpT2_EEEDpOT3_', symObjAddr: 0x660C, symBinAddr: 0x10000744C, symSize: 0x34 }
  - { offsetInCU: 0x2584B, offset: 0x2584B, size: 0x8, addend: 0x0, symName: '__ZNSt3__112__tuple_implINS_15__tuple_indicesIJLm0EEEEJONS_9allocatorINS_6__bindIZN7CoTrain11LogMannager5debugENS_10shared_ptrINS5_8LogEventEEEE3$_0JEEEEEEEC2B7v160006IJLm0EEJSD_EJEJEJSC_EEENS1_IJXspT_EEEENS_13__tuple_typesIJDpT0_EEENS1_IJXspT1_EEEENSH_IJDpT2_EEEDpOT3_', symObjAddr: 0x6640, symBinAddr: 0x100007480, symSize: 0x34 }
  - { offsetInCU: 0x258E0, offset: 0x258E0, size: 0x8, addend: 0x0, symName: '__ZNSt3__112__tuple_leafILm0EONS_9allocatorINS_6__bindIZN7CoTrain11LogMannager5debugENS_10shared_ptrINS3_8LogEventEEEE3$_0JEEEEELb0EEC2B7v160006ISA_vEEOT_', symObjAddr: 0x6674, symBinAddr: 0x1000074B4, symSize: 0x20 }
  - { offsetInCU: 0x25923, offset: 0x25923, size: 0x8, addend: 0x0, symName: '__ZNSt3__117__compressed_pairINS_6__bindIZN7CoTrain11LogMannager5debugENS_10shared_ptrINS2_8LogEventEEEE3$_0JEEENS_9allocatorIS8_EEEC2B7v160006IJOS8_EJOSA_EEENS_21piecewise_construct_tENS_5tupleIJDpT_EEENSG_IJDpT0_EEE', symObjAddr: 0x6694, symBinAddr: 0x1000074D4, symSize: 0x7C }
  - { offsetInCU: 0x25990, offset: 0x25990, size: 0x8, addend: 0x0, symName: '__ZNSt3__122__compressed_pair_elemINS_6__bindIZN7CoTrain11LogMannager5debugENS_10shared_ptrINS2_8LogEventEEEE3$_0JEEELi0ELb0EEC2B7v160006IJOS8_EJLm0EEEENS_21piecewise_construct_tENS_5tupleIJDpT_EEENS_15__tuple_indicesIJXspT0_EEEE', symObjAddr: 0x6710, symBinAddr: 0x100007550, symSize: 0x44 }
  - { offsetInCU: 0x259F4, offset: 0x259F4, size: 0x8, addend: 0x0, symName: '__ZNSt3__122__compressed_pair_elemINS_9allocatorINS_6__bindIZN7CoTrain11LogMannager5debugENS_10shared_ptrINS3_8LogEventEEEE3$_0JEEEEELi1ELb1EEC2B7v160006IJOSA_EJLm0EEEENS_21piecewise_construct_tENS_5tupleIJDpT_EEENS_15__tuple_indicesIJXspT0_EEEE', symObjAddr: 0x6754, symBinAddr: 0x100007594, symSize: 0x38 }
  - { offsetInCU: 0x25A58, offset: 0x25A58, size: 0x8, addend: 0x0, symName: '__ZNSt3__122__compressed_pair_elemINS_6__bindIZN7CoTrain11LogMannager5debugENS_10shared_ptrINS2_8LogEventEEEE3$_0JEEELi0ELb0EED2Ev', symObjAddr: 0x678C, symBinAddr: 0x1000075CC, symSize: 0x2C }
  - { offsetInCU: 0x25A84, offset: 0x25A84, size: 0x8, addend: 0x0, symName: '__ZNSt3__16__bindIZN7CoTrain11LogMannager5debugENS_10shared_ptrINS1_8LogEventEEEE3$_0JEEC1EOS7_', symObjAddr: 0x67DC, symBinAddr: 0x10000761C, symSize: 0x34 }
  - { offsetInCU: 0x25ABA, offset: 0x25ABA, size: 0x8, addend: 0x0, symName: '__ZNSt3__112__tuple_leafILm0EONS_6__bindIZN7CoTrain11LogMannager5debugENS_10shared_ptrINS2_8LogEventEEEE3$_0JEEELb0EE3getB7v160006Ev', symObjAddr: 0x6810, symBinAddr: 0x100007650, symSize: 0x18 }
  - { offsetInCU: 0x25AE0, offset: 0x25AE0, size: 0x8, addend: 0x0, symName: '__ZNSt3__16__bindIZN7CoTrain11LogMannager5debugENS_10shared_ptrINS1_8LogEventEEEE3$_0JEEC2EOS7_', symObjAddr: 0x6828, symBinAddr: 0x100007668, symSize: 0x34 }
  - { offsetInCU: 0x25B16, offset: 0x25B16, size: 0x8, addend: 0x0, symName: '__ZNSt3__112__tuple_leafILm0EONS_9allocatorINS_6__bindIZN7CoTrain11LogMannager5debugENS_10shared_ptrINS3_8LogEventEEEE3$_0JEEEEELb0EE3getB7v160006Ev', symObjAddr: 0x6880, symBinAddr: 0x1000076C0, symSize: 0x18 }
  - { offsetInCU: 0x25B3C, offset: 0x25B3C, size: 0x8, addend: 0x0, symName: '__ZNSt3__110__function6__funcINS_6__bindIZN7CoTrain11LogMannager5debugENS_10shared_ptrINS3_8LogEventEEEE3$_0JEEENS_9allocatorIS9_EEFvvEED2Ev', symObjAddr: 0x6898, symBinAddr: 0x1000076D8, symSize: 0x48 }
  - { offsetInCU: 0x25B69, offset: 0x25B69, size: 0x8, addend: 0x0, symName: '__ZNSt3__110__function12__alloc_funcINS_6__bindIZN7CoTrain11LogMannager5debugENS_10shared_ptrINS3_8LogEventEEEE3$_0JEEENS_9allocatorIS9_EEFvvEED1Ev', symObjAddr: 0x68E0, symBinAddr: 0x100007720, symSize: 0x2C }
  - { offsetInCU: 0x25B95, offset: 0x25B95, size: 0x8, addend: 0x0, symName: '__ZNSt3__110__function12__alloc_funcINS_6__bindIZN7CoTrain11LogMannager5debugENS_10shared_ptrINS3_8LogEventEEEE3$_0JEEENS_9allocatorIS9_EEFvvEED2Ev', symObjAddr: 0x690C, symBinAddr: 0x10000774C, symSize: 0x2C }
  - { offsetInCU: 0x25BC1, offset: 0x25BC1, size: 0x8, addend: 0x0, symName: '__ZNSt3__117__compressed_pairINS_6__bindIZN7CoTrain11LogMannager5debugENS_10shared_ptrINS2_8LogEventEEEE3$_0JEEENS_9allocatorIS8_EEED1Ev', symObjAddr: 0x6938, symBinAddr: 0x100007778, symSize: 0x2C }
  - { offsetInCU: 0x25BED, offset: 0x25BED, size: 0x8, addend: 0x0, symName: '__ZNSt3__117__compressed_pairINS_6__bindIZN7CoTrain11LogMannager5debugENS_10shared_ptrINS2_8LogEventEEEE3$_0JEEENS_9allocatorIS8_EEED2Ev', symObjAddr: 0x6964, symBinAddr: 0x1000077A4, symSize: 0x2C }
  - { offsetInCU: 0x25C19, offset: 0x25C19, size: 0x8, addend: 0x0, symName: '__ZNKSt3__110__function12__alloc_funcINS_6__bindIZN7CoTrain11LogMannager5debugENS_10shared_ptrINS3_8LogEventEEEE3$_0JEEENS_9allocatorIS9_EEFvvEE15__get_allocatorB7v160006Ev', symObjAddr: 0x6990, symBinAddr: 0x1000077D0, symSize: 0x24 }
  - { offsetInCU: 0x25C6D, offset: 0x25C6D, size: 0x8, addend: 0x0, symName: '__ZNSt3__110unique_ptrINS_10__function6__funcINS_6__bindIZN7CoTrain11LogMannager5debugENS_10shared_ptrINS4_8LogEventEEEE3$_0JEEENS_9allocatorISA_EEFvvEEENS_22__allocator_destructorINSB_ISE_EEEEEC1B7v160006ILb1EvEEPSE_NS_16__dependent_typeINS_27__unique_ptr_deleter_sfinaeISH_EEXT_EE20__good_rval_ref_typeE', symObjAddr: 0x69B4, symBinAddr: 0x1000077F4, symSize: 0x3C }
  - { offsetInCU: 0x25CC0, offset: 0x25CC0, size: 0x8, addend: 0x0, symName: '__ZNKSt3__110unique_ptrINS_10__function6__funcINS_6__bindIZN7CoTrain11LogMannager5debugENS_10shared_ptrINS4_8LogEventEEEE3$_0JEEENS_9allocatorISA_EEFvvEEENS_22__allocator_destructorINSB_ISE_EEEEE3getB7v160006Ev', symObjAddr: 0x69F0, symBinAddr: 0x100007830, symSize: 0x28 }
  - { offsetInCU: 0x25CE6, offset: 0x25CE6, size: 0x8, addend: 0x0, symName: '__ZNKSt3__110__function12__alloc_funcINS_6__bindIZN7CoTrain11LogMannager5debugENS_10shared_ptrINS3_8LogEventEEEE3$_0JEEENS_9allocatorIS9_EEFvvEE8__targetB7v160006Ev', symObjAddr: 0x6A18, symBinAddr: 0x100007858, symSize: 0x24 }
  - { offsetInCU: 0x25D12, offset: 0x25D12, size: 0x8, addend: 0x0, symName: '__ZNSt3__19allocatorINS_6__bindIZN7CoTrain11LogMannager5debugENS_10shared_ptrINS2_8LogEventEEEE3$_0JEEEEC1B7v160006INS_10__function6__funcIS8_S9_FvvEEEEERKNS0_IT_EE', symObjAddr: 0x6A3C, symBinAddr: 0x10000787C, symSize: 0x34 }
  - { offsetInCU: 0x25D4F, offset: 0x25D4F, size: 0x8, addend: 0x0, symName: '__ZNSt3__110__function6__funcINS_6__bindIZN7CoTrain11LogMannager5debugENS_10shared_ptrINS3_8LogEventEEEE3$_0JEEENS_9allocatorIS9_EEFvvEEC1B7v160006ERKS9_OSB_', symObjAddr: 0x6A70, symBinAddr: 0x1000078B0, symSize: 0x3C }
  - { offsetInCU: 0x25D97, offset: 0x25D97, size: 0x8, addend: 0x0, symName: '__ZNSt3__110unique_ptrINS_10__function6__funcINS_6__bindIZN7CoTrain11LogMannager5debugENS_10shared_ptrINS4_8LogEventEEEE3$_0JEEENS_9allocatorISA_EEFvvEEENS_22__allocator_destructorINSB_ISE_EEEEE7releaseB7v160006Ev', symObjAddr: 0x6AAC, symBinAddr: 0x1000078EC, symSize: 0x44 }
  - { offsetInCU: 0x25DCC, offset: 0x25DCC, size: 0x8, addend: 0x0, symName: '__ZNSt3__110unique_ptrINS_10__function6__funcINS_6__bindIZN7CoTrain11LogMannager5debugENS_10shared_ptrINS4_8LogEventEEEE3$_0JEEENS_9allocatorISA_EEFvvEEENS_22__allocator_destructorINSB_ISE_EEEEED1B7v160006Ev', symObjAddr: 0x6AF0, symBinAddr: 0x100007930, symSize: 0x2C }
  - { offsetInCU: 0x25DF6, offset: 0x25DF6, size: 0x8, addend: 0x0, symName: '__ZNKSt3__117__compressed_pairINS_6__bindIZN7CoTrain11LogMannager5debugENS_10shared_ptrINS2_8LogEventEEEE3$_0JEEENS_9allocatorIS8_EEE6secondB7v160006Ev', symObjAddr: 0x6B1C, symBinAddr: 0x10000795C, symSize: 0x24 }
  - { offsetInCU: 0x25E1C, offset: 0x25E1C, size: 0x8, addend: 0x0, symName: '__ZNKSt3__122__compressed_pair_elemINS_9allocatorINS_6__bindIZN7CoTrain11LogMannager5debugENS_10shared_ptrINS3_8LogEventEEEE3$_0JEEEEELi1ELb1EE5__getB7v160006Ev', symObjAddr: 0x6B40, symBinAddr: 0x100007980, symSize: 0x14 }
  - { offsetInCU: 0x25E42, offset: 0x25E42, size: 0x8, addend: 0x0, symName: '__ZNSt3__110unique_ptrINS_10__function6__funcINS_6__bindIZN7CoTrain11LogMannager5debugENS_10shared_ptrINS4_8LogEventEEEE3$_0JEEENS_9allocatorISA_EEFvvEEENS_22__allocator_destructorINSB_ISE_EEEEEC2B7v160006ILb1EvEEPSE_NS_16__dependent_typeINS_27__unique_ptr_deleter_sfinaeISH_EEXT_EE20__good_rval_ref_typeE', symObjAddr: 0x6B54, symBinAddr: 0x100007994, symSize: 0x48 }
  - { offsetInCU: 0x25E95, offset: 0x25E95, size: 0x8, addend: 0x0, symName: '__ZNKSt3__117__compressed_pairINS_6__bindIZN7CoTrain11LogMannager5debugENS_10shared_ptrINS2_8LogEventEEEE3$_0JEEENS_9allocatorIS8_EEE5firstB7v160006Ev', symObjAddr: 0x6B9C, symBinAddr: 0x1000079DC, symSize: 0x24 }
  - { offsetInCU: 0x25EBB, offset: 0x25EBB, size: 0x8, addend: 0x0, symName: '__ZNKSt3__122__compressed_pair_elemINS_6__bindIZN7CoTrain11LogMannager5debugENS_10shared_ptrINS2_8LogEventEEEE3$_0JEEELi0ELb0EE5__getB7v160006Ev', symObjAddr: 0x6BC0, symBinAddr: 0x100007A00, symSize: 0x14 }
  - { offsetInCU: 0x25EE1, offset: 0x25EE1, size: 0x8, addend: 0x0, symName: '__ZNSt3__19allocatorINS_6__bindIZN7CoTrain11LogMannager5debugENS_10shared_ptrINS2_8LogEventEEEE3$_0JEEEEC2B7v160006INS_10__function6__funcIS8_S9_FvvEEEEERKNS0_IT_EE', symObjAddr: 0x6BD4, symBinAddr: 0x100007A14, symSize: 0x30 }
  - { offsetInCU: 0x25F1E, offset: 0x25F1E, size: 0x8, addend: 0x0, symName: '__ZNSt3__110__function6__funcINS_6__bindIZN7CoTrain11LogMannager5debugENS_10shared_ptrINS3_8LogEventEEEE3$_0JEEENS_9allocatorIS9_EEFvvEEC2B7v160006ERKS9_OSB_', symObjAddr: 0x6C04, symBinAddr: 0x100007A44, symSize: 0x88 }
  - { offsetInCU: 0x25F66, offset: 0x25F66, size: 0x8, addend: 0x0, symName: '__ZNSt3__110__function12__alloc_funcINS_6__bindIZN7CoTrain11LogMannager5debugENS_10shared_ptrINS3_8LogEventEEEE3$_0JEEENS_9allocatorIS9_EEFvvEEC1B7v160006ERKS9_OSB_', symObjAddr: 0x6C8C, symBinAddr: 0x100007ACC, symSize: 0x3C }
  - { offsetInCU: 0x25FAE, offset: 0x25FAE, size: 0x8, addend: 0x0, symName: '__ZNSt3__110__function12__alloc_funcINS_6__bindIZN7CoTrain11LogMannager5debugENS_10shared_ptrINS3_8LogEventEEEE3$_0JEEENS_9allocatorIS9_EEFvvEEC2B7v160006ERKS9_OSB_', symObjAddr: 0x6CC8, symBinAddr: 0x100007B08, symSize: 0x5C }
  - { offsetInCU: 0x25FF6, offset: 0x25FF6, size: 0x8, addend: 0x0, symName: '__ZNSt3__117__compressed_pairINS_6__bindIZN7CoTrain11LogMannager5debugENS_10shared_ptrINS2_8LogEventEEEE3$_0JEEENS_9allocatorIS8_EEEC1B7v160006IJRKS8_EJOSA_EEENS_21piecewise_construct_tENS_5tupleIJDpT_EEENSH_IJDpT0_EEE', symObjAddr: 0x6D50, symBinAddr: 0x100007B90, symSize: 0x3C }
  - { offsetInCU: 0x26063, offset: 0x26063, size: 0x8, addend: 0x0, symName: '__ZNSt3__15tupleIJRKNS_6__bindIZN7CoTrain11LogMannager5debugENS_10shared_ptrINS2_8LogEventEEEE3$_0JEEEEEC1B7v160006INS_4_AndELi0EEESA_', symObjAddr: 0x6D8C, symBinAddr: 0x100007BCC, symSize: 0x34 }
  - { offsetInCU: 0x260AB, offset: 0x260AB, size: 0x8, addend: 0x0, symName: '__ZNSt3__15tupleIJRKNS_6__bindIZN7CoTrain11LogMannager5debugENS_10shared_ptrINS2_8LogEventEEEE3$_0JEEEEEC2B7v160006INS_4_AndELi0EEESA_', symObjAddr: 0x6DC0, symBinAddr: 0x100007C00, symSize: 0x34 }
  - { offsetInCU: 0x260F3, offset: 0x260F3, size: 0x8, addend: 0x0, symName: '__ZNSt3__112__tuple_implINS_15__tuple_indicesIJLm0EEEEJRKNS_6__bindIZN7CoTrain11LogMannager5debugENS_10shared_ptrINS4_8LogEventEEEE3$_0JEEEEEC1B7v160006IJLm0EEJSC_EJEJEJSC_EEENS1_IJXspT_EEEENS_13__tuple_typesIJDpT0_EEENS1_IJXspT1_EEEENSG_IJDpT2_EEEDpOT3_', symObjAddr: 0x6DF4, symBinAddr: 0x100007C34, symSize: 0x34 }
  - { offsetInCU: 0x26188, offset: 0x26188, size: 0x8, addend: 0x0, symName: '__ZNSt3__112__tuple_implINS_15__tuple_indicesIJLm0EEEEJRKNS_6__bindIZN7CoTrain11LogMannager5debugENS_10shared_ptrINS4_8LogEventEEEE3$_0JEEEEEC2B7v160006IJLm0EEJSC_EJEJEJSC_EEENS1_IJXspT_EEEENS_13__tuple_typesIJDpT0_EEENS1_IJXspT1_EEEENSG_IJDpT2_EEEDpOT3_', symObjAddr: 0x6E28, symBinAddr: 0x100007C68, symSize: 0x34 }
  - { offsetInCU: 0x2621D, offset: 0x2621D, size: 0x8, addend: 0x0, symName: '__ZNSt3__112__tuple_leafILm0ERKNS_6__bindIZN7CoTrain11LogMannager5debugENS_10shared_ptrINS2_8LogEventEEEE3$_0JEEELb0EEC2B7v160006ISA_vEEOT_', symObjAddr: 0x6E5C, symBinAddr: 0x100007C9C, symSize: 0x20 }
  - { offsetInCU: 0x26260, offset: 0x26260, size: 0x8, addend: 0x0, symName: '__ZNSt3__117__compressed_pairINS_6__bindIZN7CoTrain11LogMannager5debugENS_10shared_ptrINS2_8LogEventEEEE3$_0JEEENS_9allocatorIS8_EEEC2B7v160006IJRKS8_EJOSA_EEENS_21piecewise_construct_tENS_5tupleIJDpT_EEENSH_IJDpT0_EEE', symObjAddr: 0x6E7C, symBinAddr: 0x100007CBC, symSize: 0x54 }
  - { offsetInCU: 0x262CD, offset: 0x262CD, size: 0x8, addend: 0x0, symName: '__ZNSt3__122__compressed_pair_elemINS_6__bindIZN7CoTrain11LogMannager5debugENS_10shared_ptrINS2_8LogEventEEEE3$_0JEEELi0ELb0EEC2B7v160006IJRKS8_EJLm0EEEENS_21piecewise_construct_tENS_5tupleIJDpT_EEENS_15__tuple_indicesIJXspT0_EEEE', symObjAddr: 0x6ED0, symBinAddr: 0x100007D10, symSize: 0x44 }
  - { offsetInCU: 0x26331, offset: 0x26331, size: 0x8, addend: 0x0, symName: '__ZNSt3__16__bindIZN7CoTrain11LogMannager5debugENS_10shared_ptrINS1_8LogEventEEEE3$_0JEEC1ERKS7_', symObjAddr: 0x6F38, symBinAddr: 0x100007D78, symSize: 0x34 }
  - { offsetInCU: 0x26367, offset: 0x26367, size: 0x8, addend: 0x0, symName: '__ZNSt3__112__tuple_leafILm0ERKNS_6__bindIZN7CoTrain11LogMannager5debugENS_10shared_ptrINS2_8LogEventEEEE3$_0JEEELb0EE3getB7v160006Ev', symObjAddr: 0x6F6C, symBinAddr: 0x100007DAC, symSize: 0x18 }
  - { offsetInCU: 0x2638D, offset: 0x2638D, size: 0x8, addend: 0x0, symName: '__ZNSt3__16__bindIZN7CoTrain11LogMannager5debugENS_10shared_ptrINS1_8LogEventEEEE3$_0JEEC2ERKS7_', symObjAddr: 0x6F84, symBinAddr: 0x100007DC4, symSize: 0x34 }
  - { offsetInCU: 0x263CE, offset: 0x263CE, size: 0x8, addend: 0x0, symName: '__ZZN7CoTrain11LogMannager5debugENSt3__110shared_ptrINS_8LogEventEEEEN3$_0C1ERKS5_', symObjAddr: 0x6FB8, symBinAddr: 0x100007DF8, symSize: 0x34 }
  - { offsetInCU: 0x26403, offset: 0x26403, size: 0x8, addend: 0x0, symName: '__ZZN7CoTrain11LogMannager5debugENSt3__110shared_ptrINS_8LogEventEEEEN3$_0C2ERKS5_', symObjAddr: 0x6FEC, symBinAddr: 0x100007E2C, symSize: 0x48 }
  - { offsetInCU: 0x26438, offset: 0x26438, size: 0x8, addend: 0x0, symName: '__ZNSt3__117__compressed_pairIPNS_10__function6__funcINS_6__bindIZN7CoTrain11LogMannager5debugENS_10shared_ptrINS4_8LogEventEEEE3$_0JEEENS_9allocatorISA_EEFvvEEENS_22__allocator_destructorINSB_ISE_EEEEE5firstB7v160006Ev', symObjAddr: 0x7034, symBinAddr: 0x100007E74, symSize: 0x24 }
  - { offsetInCU: 0x2645E, offset: 0x2645E, size: 0x8, addend: 0x0, symName: '__ZNSt3__122__compressed_pair_elemIPNS_10__function6__funcINS_6__bindIZN7CoTrain11LogMannager5debugENS_10shared_ptrINS4_8LogEventEEEE3$_0JEEENS_9allocatorISA_EEFvvEEELi0ELb0EE5__getB7v160006Ev', symObjAddr: 0x7058, symBinAddr: 0x100007E98, symSize: 0x14 }
  - { offsetInCU: 0x26484, offset: 0x26484, size: 0x8, addend: 0x0, symName: '__ZNSt3__110unique_ptrINS_10__function6__funcINS_6__bindIZN7CoTrain11LogMannager5debugENS_10shared_ptrINS4_8LogEventEEEE3$_0JEEENS_9allocatorISA_EEFvvEEENS_22__allocator_destructorINSB_ISE_EEEEED2B7v160006Ev', symObjAddr: 0x706C, symBinAddr: 0x100007EAC, symSize: 0x30 }
  - { offsetInCU: 0x264AE, offset: 0x264AE, size: 0x8, addend: 0x0, symName: '__ZNSt3__110unique_ptrINS_10__function6__funcINS_6__bindIZN7CoTrain11LogMannager5debugENS_10shared_ptrINS4_8LogEventEEEE3$_0JEEENS_9allocatorISA_EEFvvEEENS_22__allocator_destructorINSB_ISE_EEEEE5resetB7v160006EPSE_', symObjAddr: 0x709C, symBinAddr: 0x100007EDC, symSize: 0x78 }
  - { offsetInCU: 0x264F2, offset: 0x264F2, size: 0x8, addend: 0x0, symName: '__ZNSt3__117__compressed_pairIPNS_10__function6__funcINS_6__bindIZN7CoTrain11LogMannager5debugENS_10shared_ptrINS4_8LogEventEEEE3$_0JEEENS_9allocatorISA_EEFvvEEENS_22__allocator_destructorINSB_ISE_EEEEE6secondB7v160006Ev', symObjAddr: 0x7114, symBinAddr: 0x100007F54, symSize: 0x28 }
  - { offsetInCU: 0x26518, offset: 0x26518, size: 0x8, addend: 0x0, symName: '__ZNSt3__122__allocator_destructorINS_9allocatorINS_10__function6__funcINS_6__bindIZN7CoTrain11LogMannager5debugENS_10shared_ptrINS5_8LogEventEEEE3$_0JEEENS1_ISB_EEFvvEEEEEEclB7v160006EPSE_', symObjAddr: 0x713C, symBinAddr: 0x100007F7C, symSize: 0x34 }
  - { offsetInCU: 0x2654D, offset: 0x2654D, size: 0x8, addend: 0x0, symName: '__ZNSt3__122__compressed_pair_elemINS_22__allocator_destructorINS_9allocatorINS_10__function6__funcINS_6__bindIZN7CoTrain11LogMannager5debugENS_10shared_ptrINS6_8LogEventEEEE3$_0JEEENS2_ISC_EEFvvEEEEEEELi1ELb0EE5__getB7v160006Ev', symObjAddr: 0x7170, symBinAddr: 0x100007FB0, symSize: 0x14 }
  - { offsetInCU: 0x26573, offset: 0x26573, size: 0x8, addend: 0x0, symName: '__ZNSt3__116allocator_traitsINS_9allocatorINS_10__function6__funcINS_6__bindIZN7CoTrain11LogMannager5debugENS_10shared_ptrINS5_8LogEventEEEE3$_0JEEENS1_ISB_EEFvvEEEEEE10deallocateB7v160006ERSF_PSE_m', symObjAddr: 0x7184, symBinAddr: 0x100007FC4, symSize: 0x34 }
  - { offsetInCU: 0x265B5, offset: 0x265B5, size: 0x8, addend: 0x0, symName: '__ZNSt3__19allocatorINS_10__function6__funcINS_6__bindIZN7CoTrain11LogMannager5debugENS_10shared_ptrINS4_8LogEventEEEE3$_0JEEENS0_ISA_EEFvvEEEE10deallocateB7v160006EPSD_m', symObjAddr: 0x71B8, symBinAddr: 0x100007FF8, symSize: 0x44 }
  - { offsetInCU: 0x265F9, offset: 0x265F9, size: 0x8, addend: 0x0, symName: '__ZNSt3__110__function6__funcINS_6__bindIZN7CoTrain11LogMannager5debugENS_10shared_ptrINS3_8LogEventEEEE3$_0JEEENS_9allocatorIS9_EEFvvEEC1B7v160006ERKS9_RKSB_', symObjAddr: 0x71FC, symBinAddr: 0x10000803C, symSize: 0x3C }
  - { offsetInCU: 0x26641, offset: 0x26641, size: 0x8, addend: 0x0, symName: '__ZNSt3__110__function6__funcINS_6__bindIZN7CoTrain11LogMannager5debugENS_10shared_ptrINS3_8LogEventEEEE3$_0JEEENS_9allocatorIS9_EEFvvEEC2B7v160006ERKS9_RKSB_', symObjAddr: 0x7238, symBinAddr: 0x100008078, symSize: 0x88 }
  - { offsetInCU: 0x26689, offset: 0x26689, size: 0x8, addend: 0x0, symName: '__ZNSt3__110__function12__alloc_funcINS_6__bindIZN7CoTrain11LogMannager5debugENS_10shared_ptrINS3_8LogEventEEEE3$_0JEEENS_9allocatorIS9_EEFvvEEC1B7v160006ERKS9_RKSB_', symObjAddr: 0x72C0, symBinAddr: 0x100008100, symSize: 0x3C }
  - { offsetInCU: 0x266D1, offset: 0x266D1, size: 0x8, addend: 0x0, symName: '__ZNSt3__110__function12__alloc_funcINS_6__bindIZN7CoTrain11LogMannager5debugENS_10shared_ptrINS3_8LogEventEEEE3$_0JEEENS_9allocatorIS9_EEFvvEEC2B7v160006ERKS9_RKSB_', symObjAddr: 0x72FC, symBinAddr: 0x10000813C, symSize: 0x5C }
  - { offsetInCU: 0x26719, offset: 0x26719, size: 0x8, addend: 0x0, symName: '__ZNSt3__117__compressed_pairINS_6__bindIZN7CoTrain11LogMannager5debugENS_10shared_ptrINS2_8LogEventEEEE3$_0JEEENS_9allocatorIS8_EEEC1B7v160006IJRKS8_EJRKSA_EEENS_21piecewise_construct_tENS_5tupleIJDpT_EEENSI_IJDpT0_EEE', symObjAddr: 0x7384, symBinAddr: 0x1000081C4, symSize: 0x3C }
  - { offsetInCU: 0x26786, offset: 0x26786, size: 0x8, addend: 0x0, symName: '__ZNSt3__15tupleIJRKNS_9allocatorINS_6__bindIZN7CoTrain11LogMannager5debugENS_10shared_ptrINS3_8LogEventEEEE3$_0JEEEEEEEC1B7v160006INS_4_AndELi0EEESC_', symObjAddr: 0x73C0, symBinAddr: 0x100008200, symSize: 0x34 }
  - { offsetInCU: 0x267CE, offset: 0x267CE, size: 0x8, addend: 0x0, symName: '__ZNSt3__15tupleIJRKNS_9allocatorINS_6__bindIZN7CoTrain11LogMannager5debugENS_10shared_ptrINS3_8LogEventEEEE3$_0JEEEEEEEC2B7v160006INS_4_AndELi0EEESC_', symObjAddr: 0x73F4, symBinAddr: 0x100008234, symSize: 0x34 }
  - { offsetInCU: 0x26816, offset: 0x26816, size: 0x8, addend: 0x0, symName: '__ZNSt3__112__tuple_implINS_15__tuple_indicesIJLm0EEEEJRKNS_9allocatorINS_6__bindIZN7CoTrain11LogMannager5debugENS_10shared_ptrINS5_8LogEventEEEE3$_0JEEEEEEEC1B7v160006IJLm0EEJSE_EJEJEJSE_EEENS1_IJXspT_EEEENS_13__tuple_typesIJDpT0_EEENS1_IJXspT1_EEEENSI_IJDpT2_EEEDpOT3_', symObjAddr: 0x7428, symBinAddr: 0x100008268, symSize: 0x34 }
  - { offsetInCU: 0x268AB, offset: 0x268AB, size: 0x8, addend: 0x0, symName: '__ZNSt3__112__tuple_implINS_15__tuple_indicesIJLm0EEEEJRKNS_9allocatorINS_6__bindIZN7CoTrain11LogMannager5debugENS_10shared_ptrINS5_8LogEventEEEE3$_0JEEEEEEEC2B7v160006IJLm0EEJSE_EJEJEJSE_EEENS1_IJXspT_EEEENS_13__tuple_typesIJDpT0_EEENS1_IJXspT1_EEEENSI_IJDpT2_EEEDpOT3_', symObjAddr: 0x745C, symBinAddr: 0x10000829C, symSize: 0x34 }
  - { offsetInCU: 0x26940, offset: 0x26940, size: 0x8, addend: 0x0, symName: '__ZNSt3__112__tuple_leafILm0ERKNS_9allocatorINS_6__bindIZN7CoTrain11LogMannager5debugENS_10shared_ptrINS3_8LogEventEEEE3$_0JEEEEELb0EEC2B7v160006ISC_vEEOT_', symObjAddr: 0x7490, symBinAddr: 0x1000082D0, symSize: 0x20 }
  - { offsetInCU: 0x26983, offset: 0x26983, size: 0x8, addend: 0x0, symName: '__ZNSt3__117__compressed_pairINS_6__bindIZN7CoTrain11LogMannager5debugENS_10shared_ptrINS2_8LogEventEEEE3$_0JEEENS_9allocatorIS8_EEEC2B7v160006IJRKS8_EJRKSA_EEENS_21piecewise_construct_tENS_5tupleIJDpT_EEENSI_IJDpT0_EEE', symObjAddr: 0x74B0, symBinAddr: 0x1000082F0, symSize: 0x7C }
  - { offsetInCU: 0x269F0, offset: 0x269F0, size: 0x8, addend: 0x0, symName: '__ZNSt3__122__compressed_pair_elemINS_9allocatorINS_6__bindIZN7CoTrain11LogMannager5debugENS_10shared_ptrINS3_8LogEventEEEE3$_0JEEEEELi1ELb1EEC2B7v160006IJRKSA_EJLm0EEEENS_21piecewise_construct_tENS_5tupleIJDpT_EEENS_15__tuple_indicesIJXspT0_EEEE', symObjAddr: 0x752C, symBinAddr: 0x10000836C, symSize: 0x38 }
  - { offsetInCU: 0x26A54, offset: 0x26A54, size: 0x8, addend: 0x0, symName: '__ZNSt3__112__tuple_leafILm0ERKNS_9allocatorINS_6__bindIZN7CoTrain11LogMannager5debugENS_10shared_ptrINS3_8LogEventEEEE3$_0JEEEEELb0EE3getB7v160006Ev', symObjAddr: 0x7588, symBinAddr: 0x1000083C8, symSize: 0x18 }
  - { offsetInCU: 0x26A7A, offset: 0x26A7A, size: 0x8, addend: 0x0, symName: '__ZNSt3__110__function12__alloc_funcINS_6__bindIZN7CoTrain11LogMannager5debugENS_10shared_ptrINS3_8LogEventEEEE3$_0JEEENS_9allocatorIS9_EEFvvEE7destroyB7v160006Ev', symObjAddr: 0x75A0, symBinAddr: 0x1000083E0, symSize: 0x24 }
  - { offsetInCU: 0x26AA0, offset: 0x26AA0, size: 0x8, addend: 0x0, symName: '__ZNSt3__110__function12__alloc_funcINS_6__bindIZN7CoTrain11LogMannager5debugENS_10shared_ptrINS3_8LogEventEEEE3$_0JEEENS_9allocatorIS9_EEFvvEEclB7v160006Ev', symObjAddr: 0x75C4, symBinAddr: 0x100008404, symSize: 0x28 }
  - { offsetInCU: 0x26AC6, offset: 0x26AC6, size: 0x8, addend: 0x0, symName: '__ZNSt3__128__invoke_void_return_wrapperIvLb1EE6__callIJRNS_6__bindIZN7CoTrain11LogMannager5debugENS_10shared_ptrINS4_8LogEventEEEE3$_0JEEEEEEvDpOT_', symObjAddr: 0x75EC, symBinAddr: 0x10000842C, symSize: 0x24 }
  - { offsetInCU: 0x26AF5, offset: 0x26AF5, size: 0x8, addend: 0x0, symName: '__ZNSt3__117__compressed_pairINS_6__bindIZN7CoTrain11LogMannager5debugENS_10shared_ptrINS2_8LogEventEEEE3$_0JEEENS_9allocatorIS8_EEE5firstB7v160006Ev', symObjAddr: 0x7610, symBinAddr: 0x100008450, symSize: 0x24 }
  - { offsetInCU: 0x26B1B, offset: 0x26B1B, size: 0x8, addend: 0x0, symName: '__ZNSt3__16__bindIZN7CoTrain11LogMannager5debugENS_10shared_ptrINS1_8LogEventEEEE3$_0JEEclB7v160006IJEEENS_13__bind_returnIS6_NS_5tupleIJEEENSA_IJDpOT_EEEXsr22__is_valid_bind_returnIS6_SB_SF_EE5valueEE4typeESE_', symObjAddr: 0x7658, symBinAddr: 0x100008498, symSize: 0x30 }
  - { offsetInCU: 0x26B4C, offset: 0x26B4C, size: 0x8, addend: 0x0, symName: '__ZZN7CoTrain11LogMannager5debugENSt3__110shared_ptrINS_8LogEventEEEENK3$_0clEv', symObjAddr: 0x76D8, symBinAddr: 0x100008518, symSize: 0x84 }
  - { offsetInCU: 0x26B76, offset: 0x26B76, size: 0x8, addend: 0x0, symName: '__ZNSt3__122__compressed_pair_elemINS_6__bindIZN7CoTrain11LogMannager5debugENS_10shared_ptrINS2_8LogEventEEEE3$_0JEEELi0ELb0EE5__getB7v160006Ev', symObjAddr: 0x775C, symBinAddr: 0x10000859C, symSize: 0x14 }
  - { offsetInCU: 0x26BD2, offset: 0x26BD2, size: 0x8, addend: 0x0, symName: __ZNKSt9type_infoeqB7v160006ERKS_, symObjAddr: 0x7770, symBinAddr: 0x1000085B0, symSize: 0xDC }
  - { offsetInCU: 0x26C70, offset: 0x26C70, size: 0x8, addend: 0x0, symName: __ZNSt27__type_info_implementations30__non_unique_arm_rtti_bit_impl21__is_type_name_uniqueB7v160006Em, symObjAddr: 0x784C, symBinAddr: 0x10000868C, symSize: 0x20 }
  - { offsetInCU: 0x26C94, offset: 0x26C94, size: 0x8, addend: 0x0, symName: '__ZNSt3__110unique_ptrINS_10__function6__baseIFvvEEENS_22__allocator_destructorINS_9allocatorINS1_6__funcINS_6__bindIZN7CoTrain11LogMannager5debugENS_10shared_ptrINS9_8LogEventEEEE3$_0JEEENS6_ISF_EES3_EEEEEEED2B7v160006Ev', symObjAddr: 0x786C, symBinAddr: 0x1000086AC, symSize: 0x30 }
  - { offsetInCU: 0x26CBE, offset: 0x26CBE, size: 0x8, addend: 0x0, symName: '__ZNSt3__110unique_ptrINS_10__function6__baseIFvvEEENS_22__allocator_destructorINS_9allocatorINS1_6__funcINS_6__bindIZN7CoTrain11LogMannager5debugENS_10shared_ptrINS9_8LogEventEEEE3$_0JEEENS6_ISF_EES3_EEEEEEE5resetB7v160006EPSH_', symObjAddr: 0x789C, symBinAddr: 0x1000086DC, symSize: 0x78 }
  - { offsetInCU: 0x26D02, offset: 0x26D02, size: 0x8, addend: 0x0, symName: '__ZNSt3__16__bindIZN7CoTrain11LogMannager5debugENS_10shared_ptrINS1_8LogEventEEEE3$_0JEED2Ev', symObjAddr: 0x7914, symBinAddr: 0x100008754, symSize: 0x2C }
  - { offsetInCU: 0x26D2F, offset: 0x26D2F, size: 0x8, addend: 0x0, symName: __ZNSt3__15dequeIN7CoTrain4TaskENS_9allocatorIS2_EEE9push_backEOS2_, symObjAddr: 0x7940, symBinAddr: 0x100008780, symSize: 0xA0 }
  - { offsetInCU: 0x26D75, offset: 0x26D75, size: 0x8, addend: 0x0, symName: __ZNKSt3__15dequeIN7CoTrain4TaskENS_9allocatorIS2_EEE12__back_spareB7v160006Ev, symObjAddr: 0x79E0, symBinAddr: 0x100008820, symSize: 0x54 }
  - { offsetInCU: 0x26D9B, offset: 0x26D9B, size: 0x8, addend: 0x0, symName: __ZNSt3__15dequeIN7CoTrain4TaskENS_9allocatorIS2_EEE19__add_back_capacityEv, symObjAddr: 0x7A34, symBinAddr: 0x100008874, symSize: 0x314 }
  - { offsetInCU: 0x26E59, offset: 0x26E59, size: 0x8, addend: 0x0, symName: __ZNSt3__116allocator_traitsINS_9allocatorIN7CoTrain4TaskEEEE9constructB7v160006IS3_JS3_EvEEvRS4_PT_DpOT0_, symObjAddr: 0x7D48, symBinAddr: 0x100008B88, symSize: 0x34 }
  - { offsetInCU: 0x26EB0, offset: 0x26EB0, size: 0x8, addend: 0x0, symName: __ZNKSt3__15dequeIN7CoTrain4TaskENS_9allocatorIS2_EEE10__capacityB7v160006Ev, symObjAddr: 0x7D7C, symBinAddr: 0x100008BBC, symSize: 0x64 }
  - { offsetInCU: 0x26ED6, offset: 0x26ED6, size: 0x8, addend: 0x0, symName: __ZNKSt3__15dequeIN7CoTrain4TaskENS_9allocatorIS2_EEE13__front_spareB7v160006Ev, symObjAddr: 0x7DE0, symBinAddr: 0x100008C20, symSize: 0x18 }
  - { offsetInCU: 0x26EFC, offset: 0x26EFC, size: 0x8, addend: 0x0, symName: __ZNSt3__114__split_bufferIPN7CoTrain4TaskENS_9allocatorIS3_EEE9push_backB7v160006ERKS3_, symObjAddr: 0x7DF8, symBinAddr: 0x100008C38, symSize: 0x260 }
  - { offsetInCU: 0x26F76, offset: 0x26F76, size: 0x8, addend: 0x0, symName: __ZNKSt3__114__split_bufferIPN7CoTrain4TaskENS_9allocatorIS3_EEE12__back_spareB7v160006Ev, symObjAddr: 0x8058, symBinAddr: 0x100008E98, symSize: 0x40 }
  - { offsetInCU: 0x26F9C, offset: 0x26F9C, size: 0x8, addend: 0x0, symName: __ZNSt3__114__split_bufferIPN7CoTrain4TaskENS_9allocatorIS3_EEE9push_backEOS3_, symObjAddr: 0x8098, symBinAddr: 0x100008ED8, symSize: 0x260 }
  - { offsetInCU: 0x27016, offset: 0x27016, size: 0x8, addend: 0x0, symName: __ZNSt3__116allocator_traitsINS_9allocatorIN7CoTrain4TaskEEEE8allocateB7v160006ERS4_m, symObjAddr: 0x82F8, symBinAddr: 0x100009138, symSize: 0x2C }
  - { offsetInCU: 0x27049, offset: 0x27049, size: 0x8, addend: 0x0, symName: __ZNSt3__114__split_bufferIPN7CoTrain4TaskENS_9allocatorIS3_EEE10push_frontEOS3_, symObjAddr: 0x8324, symBinAddr: 0x100009164, symSize: 0x25C }
  - { offsetInCU: 0x270C3, offset: 0x270C3, size: 0x8, addend: 0x0, symName: __ZNSt3__114__split_bufferIPN7CoTrain4TaskERNS_9allocatorIS3_EEEC1EmmS6_, symObjAddr: 0x85AC, symBinAddr: 0x1000093EC, symSize: 0x44 }
  - { offsetInCU: 0x27122, offset: 0x27122, size: 0x8, addend: 0x0, symName: __ZNSt3__122__allocator_destructorINS_9allocatorIN7CoTrain4TaskEEEEC1B7v160006ERS4_m, symObjAddr: 0x85F0, symBinAddr: 0x100009430, symSize: 0x3C }
  - { offsetInCU: 0x271FA, offset: 0x271FA, size: 0x8, addend: 0x0, symName: __ZNSt3__110unique_ptrIPN7CoTrain4TaskENS_22__allocator_destructorINS_9allocatorIS2_EEEEEC1B7v160006ILb1EvEES3_NS_16__dependent_typeINS_27__unique_ptr_deleter_sfinaeIS7_EEXT_EE20__good_rval_ref_typeE, symObjAddr: 0x862C, symBinAddr: 0x10000946C, symSize: 0x3C }
  - { offsetInCU: 0x2724D, offset: 0x2724D, size: 0x8, addend: 0x0, symName: __ZNSt3__114__split_bufferIPN7CoTrain4TaskERNS_9allocatorIS3_EEE9push_backEOS3_, symObjAddr: 0x8668, symBinAddr: 0x1000094A8, symSize: 0x260 }
  - { offsetInCU: 0x272C7, offset: 0x272C7, size: 0x8, addend: 0x0, symName: __ZNKSt3__110unique_ptrIPN7CoTrain4TaskENS_22__allocator_destructorINS_9allocatorIS2_EEEEE3getB7v160006Ev, symObjAddr: 0x88C8, symBinAddr: 0x100009708, symSize: 0x28 }
  - { offsetInCU: 0x272ED, offset: 0x272ED, size: 0x8, addend: 0x0, symName: __ZNSt3__110unique_ptrIPN7CoTrain4TaskENS_22__allocator_destructorINS_9allocatorIS2_EEEEE7releaseB7v160006Ev, symObjAddr: 0x88F0, symBinAddr: 0x100009730, symSize: 0x44 }
  - { offsetInCU: 0x27322, offset: 0x27322, size: 0x8, addend: 0x0, symName: __ZNSt3__114__split_bufferIPN7CoTrain4TaskERNS_9allocatorIS3_EEE10push_frontERKS3_, symObjAddr: 0x8934, symBinAddr: 0x100009774, symSize: 0x25C }
  - { offsetInCU: 0x2739C, offset: 0x2739C, size: 0x8, addend: 0x0, symName: __ZNSt3__114__split_bufferIPN7CoTrain4TaskENS_9allocatorIS3_EEE9__end_capB7v160006Ev, symObjAddr: 0x8BCC, symBinAddr: 0x100009A0C, symSize: 0x28 }
  - { offsetInCU: 0x273C2, offset: 0x273C2, size: 0x8, addend: 0x0, symName: __ZNSt3__114__split_bufferIPN7CoTrain4TaskERNS_9allocatorIS3_EEE9__end_capB7v160006Ev, symObjAddr: 0x8BF4, symBinAddr: 0x100009A34, symSize: 0x28 }
  - { offsetInCU: 0x273E8, offset: 0x273E8, size: 0x8, addend: 0x0, symName: __ZNSt3__110unique_ptrIPN7CoTrain4TaskENS_22__allocator_destructorINS_9allocatorIS2_EEEEED1B7v160006Ev, symObjAddr: 0x8C1C, symBinAddr: 0x100009A5C, symSize: 0x2C }
  - { offsetInCU: 0x27412, offset: 0x27412, size: 0x8, addend: 0x0, symName: __ZNSt3__114__split_bufferIPN7CoTrain4TaskERNS_9allocatorIS3_EEED1Ev, symObjAddr: 0x8C48, symBinAddr: 0x100009A88, symSize: 0x2C }
  - { offsetInCU: 0x2743E, offset: 0x2743E, size: 0x8, addend: 0x0, symName: __ZNSt3__114__split_bufferIPN7CoTrain4TaskERNS_9allocatorIS3_EEE18__construct_at_endINS_13move_iteratorIPS3_EEEENS_9enable_ifIXsr27__is_cpp17_forward_iteratorIT_EE5valueEvE4typeESD_SD_, symObjAddr: 0x8CB4, symBinAddr: 0x100009AF4, symSize: 0xFC }
  - { offsetInCU: 0x2749C, offset: 0x2749C, size: 0x8, addend: 0x0, symName: __ZNSt3__113move_iteratorIPPN7CoTrain4TaskEEC1B7v160006ES4_, symObjAddr: 0x8DB0, symBinAddr: 0x100009BF0, symSize: 0x34 }
  - { offsetInCU: 0x274D5, offset: 0x274D5, size: 0x8, addend: 0x0, symName: __ZNSt3__116allocator_traitsINS_9allocatorIPN7CoTrain4TaskEEEE9constructB7v160006IS4_JRKS4_EvEEvRS5_PT_DpOT0_, symObjAddr: 0x8DE4, symBinAddr: 0x100009C24, symSize: 0x34 }
  - { offsetInCU: 0x27554, offset: 0x27554, size: 0x8, addend: 0x0, symName: __ZNKSt3__114__move_trivialclB7v160006IPN7CoTrain4TaskES4_Li0EEENS_4pairIPT_PT0_EES7_S7_S9_, symObjAddr: 0x8FB4, symBinAddr: 0x100009DF4, symSize: 0x48 }
  - { offsetInCU: 0x275C5, offset: 0x275C5, size: 0x8, addend: 0x0, symName: __ZNSt3__14pairIPPN7CoTrain4TaskES4_EC1B7v160006IRS4_S4_LPv0EEEOT_OT0_, symObjAddr: 0x917C, symBinAddr: 0x100009FBC, symSize: 0x3C }
  - { offsetInCU: 0x27625, offset: 0x27625, size: 0x8, addend: 0x0, symName: __ZNSt3__14pairIPPN7CoTrain4TaskES4_EC2B7v160006IRS4_S4_LPv0EEEOT_OT0_, symObjAddr: 0x91B8, symBinAddr: 0x100009FF8, symSize: 0x34 }
  - { offsetInCU: 0x27685, offset: 0x27685, size: 0x8, addend: 0x0, symName: __ZNSt3__118__unwrap_iter_implIPPN7CoTrain4TaskELb1EE8__unwrapB7v160006ES4_, symObjAddr: 0x91EC, symBinAddr: 0x10000A02C, symSize: 0x24 }
  - { offsetInCU: 0x276A9, offset: 0x276A9, size: 0x8, addend: 0x0, symName: __ZNSt3__14pairIPPN7CoTrain4TaskES4_EC1B7v160006IS4_S4_LPv0EEEOT_OT0_, symObjAddr: 0x9210, symBinAddr: 0x10000A050, symSize: 0x3C }
  - { offsetInCU: 0x27709, offset: 0x27709, size: 0x8, addend: 0x0, symName: __ZNSt3__14pairIPPN7CoTrain4TaskES4_EC2B7v160006IS4_S4_LPv0EEEOT_OT0_, symObjAddr: 0x924C, symBinAddr: 0x10000A08C, symSize: 0x34 }
  - { offsetInCU: 0x27769, offset: 0x27769, size: 0x8, addend: 0x0, symName: __ZNSt3__118__unwrap_iter_implIPPN7CoTrain4TaskELb1EE8__rewrapB7v160006ES4_S4_, symObjAddr: 0x9280, symBinAddr: 0x10000A0C0, symSize: 0x50 }
  - { offsetInCU: 0x277A8, offset: 0x277A8, size: 0x8, addend: 0x0, symName: __ZNSt3__114__split_bufferIPN7CoTrain4TaskERNS_9allocatorIS3_EEE21_ConstructTransactionC1B7v160006EPPS3_m, symObjAddr: 0x930C, symBinAddr: 0x10000A14C, symSize: 0x3C }
  - { offsetInCU: 0x277F0, offset: 0x277F0, size: 0x8, addend: 0x0, symName: __ZNSt3__116allocator_traitsINS_9allocatorIPN7CoTrain4TaskEEEE9constructB7v160006IS4_JS4_EvEEvRS5_PT_DpOT0_, symObjAddr: 0x9348, symBinAddr: 0x10000A188, symSize: 0x34 }
  - { offsetInCU: 0x27847, offset: 0x27847, size: 0x8, addend: 0x0, symName: __ZNSt3__114__split_bufferIPN7CoTrain4TaskERNS_9allocatorIS3_EEE7__allocB7v160006Ev, symObjAddr: 0x937C, symBinAddr: 0x10000A1BC, symSize: 0x28 }
  - { offsetInCU: 0x2786D, offset: 0x2786D, size: 0x8, addend: 0x0, symName: __ZNKSt3__113move_iteratorIPPN7CoTrain4TaskEEdeB7v160006Ev, symObjAddr: 0x93A4, symBinAddr: 0x10000A1E4, symSize: 0x18 }
  - { offsetInCU: 0x27893, offset: 0x27893, size: 0x8, addend: 0x0, symName: __ZNSt3__113move_iteratorIPPN7CoTrain4TaskEEppB7v160006Ev, symObjAddr: 0x93BC, symBinAddr: 0x10000A1FC, symSize: 0x20 }
  - { offsetInCU: 0x278B9, offset: 0x278B9, size: 0x8, addend: 0x0, symName: __ZNSt3__114__split_bufferIPN7CoTrain4TaskERNS_9allocatorIS3_EEE21_ConstructTransactionD1B7v160006Ev, symObjAddr: 0x93DC, symBinAddr: 0x10000A21C, symSize: 0x2C }
  - { offsetInCU: 0x278E3, offset: 0x278E3, size: 0x8, addend: 0x0, symName: __ZNKSt3__113move_iteratorIPPN7CoTrain4TaskEE4baseB7v160006Ev, symObjAddr: 0x9480, symBinAddr: 0x10000A2C0, symSize: 0x18 }
  - { offsetInCU: 0x27909, offset: 0x27909, size: 0x8, addend: 0x0, symName: __ZNSt3__114__split_bufferIPN7CoTrain4TaskERNS_9allocatorIS3_EEE21_ConstructTransactionC2B7v160006EPPS3_m, symObjAddr: 0x9498, symBinAddr: 0x10000A2D8, symSize: 0x44 }
  - { offsetInCU: 0x27951, offset: 0x27951, size: 0x8, addend: 0x0, symName: __ZNSt3__19allocatorIPN7CoTrain4TaskEE9constructB7v160006IS3_JS3_EEEvPT_DpOT0_, symObjAddr: 0x94DC, symBinAddr: 0x10000A31C, symSize: 0x28 }
  - { offsetInCU: 0x279A9, offset: 0x279A9, size: 0x8, addend: 0x0, symName: __ZNSt3__117__compressed_pairIPPN7CoTrain4TaskERNS_9allocatorIS3_EEE6secondB7v160006Ev, symObjAddr: 0x9504, symBinAddr: 0x10000A344, symSize: 0x28 }
  - { offsetInCU: 0x279CF, offset: 0x279CF, size: 0x8, addend: 0x0, symName: __ZNSt3__122__compressed_pair_elemIRNS_9allocatorIPN7CoTrain4TaskEEELi1ELb0EE5__getB7v160006Ev, symObjAddr: 0x952C, symBinAddr: 0x10000A36C, symSize: 0x18 }
  - { offsetInCU: 0x279F5, offset: 0x279F5, size: 0x8, addend: 0x0, symName: __ZNSt3__114__split_bufferIPN7CoTrain4TaskERNS_9allocatorIS3_EEE21_ConstructTransactionD2B7v160006Ev, symObjAddr: 0x9544, symBinAddr: 0x10000A384, symSize: 0x20 }
  - { offsetInCU: 0x27A1F, offset: 0x27A1F, size: 0x8, addend: 0x0, symName: __ZNSt3__113move_iteratorIPPN7CoTrain4TaskEEC2B7v160006ES4_, symObjAddr: 0x9564, symBinAddr: 0x10000A3A4, symSize: 0x20 }
  - { offsetInCU: 0x27A58, offset: 0x27A58, size: 0x8, addend: 0x0, symName: __ZNSt3__19allocatorIPN7CoTrain4TaskEE9constructB7v160006IS3_JRKS3_EEEvPT_DpOT0_, symObjAddr: 0x9584, symBinAddr: 0x10000A3C4, symSize: 0x28 }
  - { offsetInCU: 0x27AB0, offset: 0x27AB0, size: 0x8, addend: 0x0, symName: __ZNSt3__19allocatorIN7CoTrain4TaskEE8allocateB7v160006Em, symObjAddr: 0x95AC, symBinAddr: 0x10000A3EC, symSize: 0x5C }
  - { offsetInCU: 0x27AF0, offset: 0x27AF0, size: 0x8, addend: 0x0, symName: __ZNSt3__116allocator_traitsINS_9allocatorIN7CoTrain4TaskEEEE8max_sizeB7v160006IS4_vEEmRKS4_, symObjAddr: 0x9608, symBinAddr: 0x10000A448, symSize: 0x24 }
  - { offsetInCU: 0x27B1E, offset: 0x27B1E, size: 0x8, addend: 0x0, symName: __ZNKSt3__19allocatorIN7CoTrain4TaskEE8max_sizeB7v160006Ev, symObjAddr: 0x962C, symBinAddr: 0x10000A46C, symSize: 0x18 }
  - { offsetInCU: 0x27B4F, offset: 0x27B4F, size: 0x8, addend: 0x0, symName: __ZNKSt3__123__move_backward_trivialclB7v160006IPN7CoTrain4TaskES4_Li0EEENS_4pairIPT_PT0_EES7_S7_S9_, symObjAddr: 0x97C0, symBinAddr: 0x10000A600, symSize: 0x48 }
  - { offsetInCU: 0x27BBA, offset: 0x27BBA, size: 0x8, addend: 0x0, symName: __ZNSt3__14pairIPPN7CoTrain4TaskES4_EC1B7v160006IRS4_S7_LPv0EEEOT_OT0_, symObjAddr: 0x98D4, symBinAddr: 0x10000A714, symSize: 0x3C }
  - { offsetInCU: 0x27C1A, offset: 0x27C1A, size: 0x8, addend: 0x0, symName: __ZNSt3__14pairIPPN7CoTrain4TaskES4_EC2B7v160006IRS4_S7_LPv0EEEOT_OT0_, symObjAddr: 0x9910, symBinAddr: 0x10000A750, symSize: 0x34 }
  - { offsetInCU: 0x27C85, offset: 0x27C85, size: 0x8, addend: 0x0, symName: __ZNKSt3__16__lessImmEclB7v160006ERKmS3_, symObjAddr: 0x9998, symBinAddr: 0x10000A7D8, symSize: 0x34 }
  - { offsetInCU: 0x27CC9, offset: 0x27CC9, size: 0x8, addend: 0x0, symName: __ZNSt3__114__split_bufferIPN7CoTrain4TaskERNS_9allocatorIS3_EEEC2EmmS6_, symObjAddr: 0x99CC, symBinAddr: 0x10000A80C, symSize: 0xD4 }
  - { offsetInCU: 0x27D46, offset: 0x27D46, size: 0x8, addend: 0x0, symName: __ZNSt3__117__compressed_pairIPPN7CoTrain4TaskERNS_9allocatorIS3_EEEC1B7v160006IDnS7_EEOT_OT0_, symObjAddr: 0x9AA0, symBinAddr: 0x10000A8E0, symSize: 0x3C }
  - { offsetInCU: 0x27DA0, offset: 0x27DA0, size: 0x8, addend: 0x0, symName: __ZNSt3__117__compressed_pairIPPN7CoTrain4TaskERNS_9allocatorIS3_EEEC2B7v160006IDnS7_EEOT_OT0_, symObjAddr: 0x9B1C, symBinAddr: 0x10000A95C, symSize: 0x48 }
  - { offsetInCU: 0x27DFA, offset: 0x27DFA, size: 0x8, addend: 0x0, symName: __ZNSt3__122__compressed_pair_elemIPPN7CoTrain4TaskELi0ELb0EEC2B7v160006IDnvEEOT_, symObjAddr: 0x9B64, symBinAddr: 0x10000A9A4, symSize: 0x1C }
  - { offsetInCU: 0x27E3D, offset: 0x27E3D, size: 0x8, addend: 0x0, symName: __ZNSt3__122__compressed_pair_elemIRNS_9allocatorIPN7CoTrain4TaskEEELi1ELb0EEC2B7v160006IS6_vEEOT_, symObjAddr: 0x9B80, symBinAddr: 0x10000A9C0, symSize: 0x20 }
  - { offsetInCU: 0x27E80, offset: 0x27E80, size: 0x8, addend: 0x0, symName: __ZNSt3__19allocatorIPN7CoTrain4TaskEE8allocateB7v160006Em, symObjAddr: 0x9BA0, symBinAddr: 0x10000A9E0, symSize: 0x58 }
  - { offsetInCU: 0x27EC0, offset: 0x27EC0, size: 0x8, addend: 0x0, symName: __ZNSt3__116allocator_traitsINS_9allocatorIPN7CoTrain4TaskEEEE8max_sizeB7v160006IS5_vEEmRKS5_, symObjAddr: 0x9BF8, symBinAddr: 0x10000AA38, symSize: 0x24 }
  - { offsetInCU: 0x27EEE, offset: 0x27EEE, size: 0x8, addend: 0x0, symName: __ZNKSt3__19allocatorIPN7CoTrain4TaskEE8max_sizeB7v160006Ev, symObjAddr: 0x9C1C, symBinAddr: 0x10000AA5C, symSize: 0x14 }
  - { offsetInCU: 0x27F14, offset: 0x27F14, size: 0x8, addend: 0x0, symName: __ZNSt3__122__allocator_destructorINS_9allocatorIN7CoTrain4TaskEEEEC2B7v160006ERS4_m, symObjAddr: 0x9C30, symBinAddr: 0x10000AA70, symSize: 0x2C }
  - { offsetInCU: 0x27F5C, offset: 0x27F5C, size: 0x8, addend: 0x0, symName: __ZNSt3__110unique_ptrIPN7CoTrain4TaskENS_22__allocator_destructorINS_9allocatorIS2_EEEEEC2B7v160006ILb1EvEES3_NS_16__dependent_typeINS_27__unique_ptr_deleter_sfinaeIS7_EEXT_EE20__good_rval_ref_typeE, symObjAddr: 0x9C5C, symBinAddr: 0x10000AA9C, symSize: 0x48 }
  - { offsetInCU: 0x27FAF, offset: 0x27FAF, size: 0x8, addend: 0x0, symName: __ZNSt3__117__compressed_pairIPN7CoTrain4TaskENS_22__allocator_destructorINS_9allocatorIS2_EEEEEC1B7v160006IRS3_S7_EEOT_OT0_, symObjAddr: 0x9CA4, symBinAddr: 0x10000AAE4, symSize: 0x3C }
  - { offsetInCU: 0x28009, offset: 0x28009, size: 0x8, addend: 0x0, symName: __ZNSt3__117__compressed_pairIPN7CoTrain4TaskENS_22__allocator_destructorINS_9allocatorIS2_EEEEEC2B7v160006IRS3_S7_EEOT_OT0_, symObjAddr: 0x9CE0, symBinAddr: 0x10000AB20, symSize: 0x48 }
  - { offsetInCU: 0x28063, offset: 0x28063, size: 0x8, addend: 0x0, symName: __ZNSt3__122__compressed_pair_elemIPN7CoTrain4TaskELi0ELb0EEC2B7v160006IRS3_vEEOT_, symObjAddr: 0x9D28, symBinAddr: 0x10000AB68, symSize: 0x24 }
  - { offsetInCU: 0x280A6, offset: 0x280A6, size: 0x8, addend: 0x0, symName: __ZNSt3__122__compressed_pair_elemINS_22__allocator_destructorINS_9allocatorIN7CoTrain4TaskEEEEELi1ELb0EEC2B7v160006IS6_vEEOT_, symObjAddr: 0x9D4C, symBinAddr: 0x10000AB8C, symSize: 0x24 }
  - { offsetInCU: 0x280E9, offset: 0x280E9, size: 0x8, addend: 0x0, symName: __ZNKSt3__117__compressed_pairIPN7CoTrain4TaskENS_22__allocator_destructorINS_9allocatorIS2_EEEEE5firstB7v160006Ev, symObjAddr: 0x9D70, symBinAddr: 0x10000ABB0, symSize: 0x24 }
  - { offsetInCU: 0x2810F, offset: 0x2810F, size: 0x8, addend: 0x0, symName: __ZNKSt3__122__compressed_pair_elemIPN7CoTrain4TaskELi0ELb0EE5__getB7v160006Ev, symObjAddr: 0x9D94, symBinAddr: 0x10000ABD4, symSize: 0x14 }
  - { offsetInCU: 0x28135, offset: 0x28135, size: 0x8, addend: 0x0, symName: __ZNSt3__117__compressed_pairIPN7CoTrain4TaskENS_22__allocator_destructorINS_9allocatorIS2_EEEEE5firstB7v160006Ev, symObjAddr: 0x9DA8, symBinAddr: 0x10000ABE8, symSize: 0x24 }
  - { offsetInCU: 0x2815B, offset: 0x2815B, size: 0x8, addend: 0x0, symName: __ZNSt3__122__compressed_pair_elemIPN7CoTrain4TaskELi0ELb0EE5__getB7v160006Ev, symObjAddr: 0x9DCC, symBinAddr: 0x10000AC0C, symSize: 0x14 }
  - { offsetInCU: 0x28181, offset: 0x28181, size: 0x8, addend: 0x0, symName: __ZNSt3__117__compressed_pairIPPN7CoTrain4TaskENS_9allocatorIS3_EEE5firstB7v160006Ev, symObjAddr: 0x9DE0, symBinAddr: 0x10000AC20, symSize: 0x24 }
  - { offsetInCU: 0x281A7, offset: 0x281A7, size: 0x8, addend: 0x0, symName: __ZNSt3__122__compressed_pair_elemIPPN7CoTrain4TaskELi0ELb0EE5__getB7v160006Ev, symObjAddr: 0x9E04, symBinAddr: 0x10000AC44, symSize: 0x14 }
  - { offsetInCU: 0x281CD, offset: 0x281CD, size: 0x8, addend: 0x0, symName: __ZNSt3__117__compressed_pairIPPN7CoTrain4TaskERNS_9allocatorIS3_EEE5firstB7v160006Ev, symObjAddr: 0x9E18, symBinAddr: 0x10000AC58, symSize: 0x24 }
  - { offsetInCU: 0x281F3, offset: 0x281F3, size: 0x8, addend: 0x0, symName: __ZNSt3__110unique_ptrIPN7CoTrain4TaskENS_22__allocator_destructorINS_9allocatorIS2_EEEEED2B7v160006Ev, symObjAddr: 0x9E3C, symBinAddr: 0x10000AC7C, symSize: 0x30 }
  - { offsetInCU: 0x2821D, offset: 0x2821D, size: 0x8, addend: 0x0, symName: __ZNSt3__110unique_ptrIPN7CoTrain4TaskENS_22__allocator_destructorINS_9allocatorIS2_EEEEE5resetB7v160006ES3_, symObjAddr: 0x9E6C, symBinAddr: 0x10000ACAC, symSize: 0x78 }
  - { offsetInCU: 0x28261, offset: 0x28261, size: 0x8, addend: 0x0, symName: __ZNSt3__117__compressed_pairIPN7CoTrain4TaskENS_22__allocator_destructorINS_9allocatorIS2_EEEEE6secondB7v160006Ev, symObjAddr: 0x9EE4, symBinAddr: 0x10000AD24, symSize: 0x28 }
  - { offsetInCU: 0x28287, offset: 0x28287, size: 0x8, addend: 0x0, symName: __ZNSt3__122__allocator_destructorINS_9allocatorIN7CoTrain4TaskEEEEclB7v160006EPS3_, symObjAddr: 0x9F0C, symBinAddr: 0x10000AD4C, symSize: 0x34 }
  - { offsetInCU: 0x282BC, offset: 0x282BC, size: 0x8, addend: 0x0, symName: __ZNSt3__122__compressed_pair_elemINS_22__allocator_destructorINS_9allocatorIN7CoTrain4TaskEEEEELi1ELb0EE5__getB7v160006Ev, symObjAddr: 0x9F40, symBinAddr: 0x10000AD80, symSize: 0x14 }
  - { offsetInCU: 0x282E2, offset: 0x282E2, size: 0x8, addend: 0x0, symName: __ZNSt3__114__split_bufferIPN7CoTrain4TaskERNS_9allocatorIS3_EEED2Ev, symObjAddr: 0x9F54, symBinAddr: 0x10000AD94, symSize: 0x8C }
  - { offsetInCU: 0x2830E, offset: 0x2830E, size: 0x8, addend: 0x0, symName: __ZNSt3__114__split_bufferIPN7CoTrain4TaskERNS_9allocatorIS3_EEE5clearB7v160006Ev, symObjAddr: 0x9FE0, symBinAddr: 0x10000AE20, symSize: 0x28 }
  - { offsetInCU: 0x28334, offset: 0x28334, size: 0x8, addend: 0x0, symName: __ZNKSt3__114__split_bufferIPN7CoTrain4TaskERNS_9allocatorIS3_EEE8capacityB7v160006Ev, symObjAddr: 0xA008, symBinAddr: 0x10000AE48, symSize: 0x40 }
  - { offsetInCU: 0x2835A, offset: 0x2835A, size: 0x8, addend: 0x0, symName: __ZNSt3__114__split_bufferIPN7CoTrain4TaskERNS_9allocatorIS3_EEE17__destruct_at_endB7v160006EPS3_, symObjAddr: 0xA048, symBinAddr: 0x10000AE88, symSize: 0x2C }
  - { offsetInCU: 0x2838F, offset: 0x2838F, size: 0x8, addend: 0x0, symName: __ZNSt3__114__split_bufferIPN7CoTrain4TaskERNS_9allocatorIS3_EEE17__destruct_at_endB7v160006EPS3_NS_17integral_constantIbLb0EEE, symObjAddr: 0xA074, symBinAddr: 0x10000AEB4, symSize: 0x80 }
  - { offsetInCU: 0x283D0, offset: 0x283D0, size: 0x8, addend: 0x0, symName: __ZNKSt3__114__split_bufferIPN7CoTrain4TaskERNS_9allocatorIS3_EEE9__end_capB7v160006Ev, symObjAddr: 0xA0F4, symBinAddr: 0x10000AF34, symSize: 0x28 }
  - { offsetInCU: 0x283F6, offset: 0x283F6, size: 0x8, addend: 0x0, symName: __ZNKSt3__117__compressed_pairIPPN7CoTrain4TaskERNS_9allocatorIS3_EEE5firstB7v160006Ev, symObjAddr: 0xA11C, symBinAddr: 0x10000AF5C, symSize: 0x24 }
  - { offsetInCU: 0x2841C, offset: 0x2841C, size: 0x8, addend: 0x0, symName: __ZNSt3__19allocatorIN7CoTrain4TaskEE9constructB7v160006IS2_JS2_EEEvPT_DpOT0_, symObjAddr: 0xA140, symBinAddr: 0x10000AF80, symSize: 0x30 }
  - { offsetInCU: 0x28474, offset: 0x28474, size: 0x8, addend: 0x0, symName: __ZN7CoTrain4TaskC1EOS0_, symObjAddr: 0xA170, symBinAddr: 0x10000AFB0, symSize: 0x34 }
  - { offsetInCU: 0x284A9, offset: 0x284A9, size: 0x8, addend: 0x0, symName: __ZN7CoTrain4TaskC2EOS0_, symObjAddr: 0xA1A4, symBinAddr: 0x10000AFE4, symSize: 0x48 }
  - { offsetInCU: 0x284DE, offset: 0x284DE, size: 0x8, addend: 0x0, symName: __ZNSt3__18functionIFvvEEC1EOS2_, symObjAddr: 0xA1EC, symBinAddr: 0x10000B02C, symSize: 0x34 }
  - { offsetInCU: 0x28519, offset: 0x28519, size: 0x8, addend: 0x0, symName: __ZNSt3__18functionIFvvEEC2EOS2_, symObjAddr: 0xA220, symBinAddr: 0x10000B060, symSize: 0x34 }
  - { offsetInCU: 0x28554, offset: 0x28554, size: 0x8, addend: 0x0, symName: __ZNSt3__110__function12__value_funcIFvvEEC1B7v160006EOS3_, symObjAddr: 0xA254, symBinAddr: 0x10000B094, symSize: 0x34 }
  - { offsetInCU: 0x2858D, offset: 0x2858D, size: 0x8, addend: 0x0, symName: __ZNSt3__110__function12__value_funcIFvvEEC2B7v160006EOS3_, symObjAddr: 0xA288, symBinAddr: 0x10000B0C8, symSize: 0xD0 }
  - { offsetInCU: 0x285C6, offset: 0x285C6, size: 0x8, addend: 0x0, symName: __ZNSt3__110__function12__value_funcIFvvEE9__as_baseEPv, symObjAddr: 0xA358, symBinAddr: 0x10000B198, symSize: 0x14 }
  - { offsetInCU: 0x285EA, offset: 0x285EA, size: 0x8, addend: 0x0, symName: '__ZN7CoTrain4TaskC2IZNS_11LogMannager4infoENSt3__110shared_ptrINS_8LogEventEEEE3$_1JEEEiOT_DpOT0_', symObjAddr: 0xA36C, symBinAddr: 0x10000B1AC, symSize: 0x84 }
  - { offsetInCU: 0x28640, offset: 0x28640, size: 0x8, addend: 0x0, symName: '__ZNSt3__18functionIFvvEEC1INS_6__bindIZN7CoTrain11LogMannager4infoENS_10shared_ptrINS5_8LogEventEEEE3$_1JEEEvEET_', symObjAddr: 0xA428, symBinAddr: 0x10000B268, symSize: 0x34 }
  - { offsetInCU: 0x2868C, offset: 0x2868C, size: 0x8, addend: 0x0, symName: '__ZNSt3__16__bindIZN7CoTrain11LogMannager4infoENS_10shared_ptrINS1_8LogEventEEEE3$_1JEED1Ev', symObjAddr: 0xA45C, symBinAddr: 0x10000B29C, symSize: 0x2C }
  - { offsetInCU: 0x286B9, offset: 0x286B9, size: 0x8, addend: 0x0, symName: '__ZNSt3__16__bindIZN7CoTrain11LogMannager4infoENS_10shared_ptrINS1_8LogEventEEEE3$_1JEEC1B7v160006IS6_JEvEEOT_DpOT0_', symObjAddr: 0xA488, symBinAddr: 0x10000B2C8, symSize: 0x34 }
  - { offsetInCU: 0x28701, offset: 0x28701, size: 0x8, addend: 0x0, symName: '__ZNSt3__16__bindIZN7CoTrain11LogMannager4infoENS_10shared_ptrINS1_8LogEventEEEE3$_1JEEC2B7v160006IS6_JEvEEOT_DpOT0_', symObjAddr: 0xA4BC, symBinAddr: 0x10000B2FC, symSize: 0x34 }
  - { offsetInCU: 0x28749, offset: 0x28749, size: 0x8, addend: 0x0, symName: '__ZZN7CoTrain11LogMannager4infoENSt3__110shared_ptrINS_8LogEventEEEEN3$_1C1EOS5_', symObjAddr: 0xA4F0, symBinAddr: 0x10000B330, symSize: 0x34 }
  - { offsetInCU: 0x2877E, offset: 0x2877E, size: 0x8, addend: 0x0, symName: '__ZZN7CoTrain11LogMannager4infoENSt3__110shared_ptrINS_8LogEventEEEEN3$_1C2EOS5_', symObjAddr: 0xA524, symBinAddr: 0x10000B364, symSize: 0x48 }
  - { offsetInCU: 0x287B3, offset: 0x287B3, size: 0x8, addend: 0x0, symName: '__ZNSt3__18functionIFvvEEC2INS_6__bindIZN7CoTrain11LogMannager4infoENS_10shared_ptrINS5_8LogEventEEEE3$_1JEEEvEET_', symObjAddr: 0xA56C, symBinAddr: 0x10000B3AC, symSize: 0x34 }
  - { offsetInCU: 0x287F9, offset: 0x287F9, size: 0x8, addend: 0x0, symName: '__ZNSt3__110__function12__value_funcIFvvEEC1B7v160006INS_6__bindIZN7CoTrain11LogMannager4infoENS_10shared_ptrINS6_8LogEventEEEE3$_1JEEEvEEOT_', symObjAddr: 0xA5A0, symBinAddr: 0x10000B3E0, symSize: 0x50 }
  - { offsetInCU: 0x2883C, offset: 0x2883C, size: 0x8, addend: 0x0, symName: '__ZNSt3__19allocatorINS_6__bindIZN7CoTrain11LogMannager4infoENS_10shared_ptrINS2_8LogEventEEEE3$_1JEEEEC1B7v160006Ev', symObjAddr: 0xA5F0, symBinAddr: 0x10000B430, symSize: 0x2C }
  - { offsetInCU: 0x28866, offset: 0x28866, size: 0x8, addend: 0x0, symName: '__ZNSt3__110__function12__value_funcIFvvEEC1B7v160006INS_6__bindIZN7CoTrain11LogMannager4infoENS_10shared_ptrINS6_8LogEventEEEE3$_1JEEENS_9allocatorISC_EEEEOT_RKT0_', symObjAddr: 0xA61C, symBinAddr: 0x10000B45C, symSize: 0x3C }
  - { offsetInCU: 0x288C0, offset: 0x288C0, size: 0x8, addend: 0x0, symName: '__ZNSt3__19allocatorINS_6__bindIZN7CoTrain11LogMannager4infoENS_10shared_ptrINS2_8LogEventEEEE3$_1JEEEEC2B7v160006Ev', symObjAddr: 0xA658, symBinAddr: 0x10000B498, symSize: 0x2C }
  - { offsetInCU: 0x288EA, offset: 0x288EA, size: 0x8, addend: 0x0, symName: '__ZNSt3__116__non_trivial_ifILb1ENS_9allocatorINS_6__bindIZN7CoTrain11LogMannager4infoENS_10shared_ptrINS3_8LogEventEEEE3$_1JEEEEEEC2B7v160006Ev', symObjAddr: 0xA684, symBinAddr: 0x10000B4C4, symSize: 0x14 }
  - { offsetInCU: 0x28914, offset: 0x28914, size: 0x8, addend: 0x0, symName: '__ZNSt3__110__function12__value_funcIFvvEEC2B7v160006INS_6__bindIZN7CoTrain11LogMannager4infoENS_10shared_ptrINS6_8LogEventEEEE3$_1JEEENS_9allocatorISC_EEEEOT_RKT0_', symObjAddr: 0xA698, symBinAddr: 0x10000B4D8, symSize: 0xF4 }
  - { offsetInCU: 0x289CD, offset: 0x289CD, size: 0x8, addend: 0x0, symName: '__ZNSt3__19allocatorINS_10__function6__funcINS_6__bindIZN7CoTrain11LogMannager4infoENS_10shared_ptrINS4_8LogEventEEEE3$_1JEEENS0_ISA_EEFvvEEEEC1B7v160006ISA_EERKNS0_IT_EE', symObjAddr: 0xA7A4, symBinAddr: 0x10000B5E4, symSize: 0x34 }
  - { offsetInCU: 0x28A0A, offset: 0x28A0A, size: 0x8, addend: 0x0, symName: '__ZNSt3__19allocatorINS_10__function6__funcINS_6__bindIZN7CoTrain11LogMannager4infoENS_10shared_ptrINS4_8LogEventEEEE3$_1JEEENS0_ISA_EEFvvEEEE8allocateB7v160006Em', symObjAddr: 0xA7D8, symBinAddr: 0x10000B618, symSize: 0x5C }
  - { offsetInCU: 0x28A51, offset: 0x28A51, size: 0x8, addend: 0x0, symName: '__ZNSt3__122__allocator_destructorINS_9allocatorINS_10__function6__funcINS_6__bindIZN7CoTrain11LogMannager4infoENS_10shared_ptrINS5_8LogEventEEEE3$_1JEEENS1_ISB_EEFvvEEEEEEC1B7v160006ERSF_m', symObjAddr: 0xA834, symBinAddr: 0x10000B674, symSize: 0x3C }
  - { offsetInCU: 0x28B3A, offset: 0x28B3A, size: 0x8, addend: 0x0, symName: '__ZNSt3__110unique_ptrINS_10__function6__baseIFvvEEENS_22__allocator_destructorINS_9allocatorINS1_6__funcINS_6__bindIZN7CoTrain11LogMannager4infoENS_10shared_ptrINS9_8LogEventEEEE3$_1JEEENS6_ISF_EES3_EEEEEEEC1B7v160006ILb1EvEEPSH_NS_16__dependent_typeINS_27__unique_ptr_deleter_sfinaeISJ_EEXT_EE20__good_rval_ref_typeE', symObjAddr: 0xA870, symBinAddr: 0x10000B6B0, symSize: 0x3C }
  - { offsetInCU: 0x28B8D, offset: 0x28B8D, size: 0x8, addend: 0x0, symName: '__ZNKSt3__110unique_ptrINS_10__function6__baseIFvvEEENS_22__allocator_destructorINS_9allocatorINS1_6__funcINS_6__bindIZN7CoTrain11LogMannager4infoENS_10shared_ptrINS9_8LogEventEEEE3$_1JEEENS6_ISF_EES3_EEEEEEE3getB7v160006Ev', symObjAddr: 0xA8AC, symBinAddr: 0x10000B6EC, symSize: 0x28 }
  - { offsetInCU: 0x28BB3, offset: 0x28BB3, size: 0x8, addend: 0x0, symName: '__ZNSt3__110__function6__funcINS_6__bindIZN7CoTrain11LogMannager4infoENS_10shared_ptrINS3_8LogEventEEEE3$_1JEEENS_9allocatorIS9_EEFvvEEC1B7v160006EOS9_OSB_', symObjAddr: 0xA8D4, symBinAddr: 0x10000B714, symSize: 0x3C }
  - { offsetInCU: 0x28BFB, offset: 0x28BFB, size: 0x8, addend: 0x0, symName: '__ZNSt3__110unique_ptrINS_10__function6__baseIFvvEEENS_22__allocator_destructorINS_9allocatorINS1_6__funcINS_6__bindIZN7CoTrain11LogMannager4infoENS_10shared_ptrINS9_8LogEventEEEE3$_1JEEENS6_ISF_EES3_EEEEEEE7releaseB7v160006Ev', symObjAddr: 0xA910, symBinAddr: 0x10000B750, symSize: 0x44 }
  - { offsetInCU: 0x28C30, offset: 0x28C30, size: 0x8, addend: 0x0, symName: '__ZNSt3__110unique_ptrINS_10__function6__baseIFvvEEENS_22__allocator_destructorINS_9allocatorINS1_6__funcINS_6__bindIZN7CoTrain11LogMannager4infoENS_10shared_ptrINS9_8LogEventEEEE3$_1JEEENS6_ISF_EES3_EEEEEEED1B7v160006Ev', symObjAddr: 0xA954, symBinAddr: 0x10000B794, symSize: 0x2C }
  - { offsetInCU: 0x28C5A, offset: 0x28C5A, size: 0x8, addend: 0x0, symName: '__ZNSt3__19allocatorINS_10__function6__funcINS_6__bindIZN7CoTrain11LogMannager4infoENS_10shared_ptrINS4_8LogEventEEEE3$_1JEEENS0_ISA_EEFvvEEEEC2B7v160006ISA_EERKNS0_IT_EE', symObjAddr: 0xA980, symBinAddr: 0x10000B7C0, symSize: 0x30 }
  - { offsetInCU: 0x28C97, offset: 0x28C97, size: 0x8, addend: 0x0, symName: '__ZNSt3__116__non_trivial_ifILb1ENS_9allocatorINS_10__function6__funcINS_6__bindIZN7CoTrain11LogMannager4infoENS_10shared_ptrINS5_8LogEventEEEE3$_1JEEENS1_ISB_EEFvvEEEEEEC2B7v160006Ev', symObjAddr: 0xA9B0, symBinAddr: 0x10000B7F0, symSize: 0x14 }
  - { offsetInCU: 0x28CCC, offset: 0x28CCC, size: 0x8, addend: 0x0, symName: '__ZNSt3__116allocator_traitsINS_9allocatorINS_10__function6__funcINS_6__bindIZN7CoTrain11LogMannager4infoENS_10shared_ptrINS5_8LogEventEEEE3$_1JEEENS1_ISB_EEFvvEEEEEE8max_sizeB7v160006ISF_vEEmRKSF_', symObjAddr: 0xA9C4, symBinAddr: 0x10000B804, symSize: 0x24 }
  - { offsetInCU: 0x28CFA, offset: 0x28CFA, size: 0x8, addend: 0x0, symName: '__ZNKSt3__19allocatorINS_10__function6__funcINS_6__bindIZN7CoTrain11LogMannager4infoENS_10shared_ptrINS4_8LogEventEEEE3$_1JEEENS0_ISA_EEFvvEEEE8max_sizeB7v160006Ev', symObjAddr: 0xA9E8, symBinAddr: 0x10000B828, symSize: 0x18 }
  - { offsetInCU: 0x28D20, offset: 0x28D20, size: 0x8, addend: 0x0, symName: '__ZNSt3__122__allocator_destructorINS_9allocatorINS_10__function6__funcINS_6__bindIZN7CoTrain11LogMannager4infoENS_10shared_ptrINS5_8LogEventEEEE3$_1JEEENS1_ISB_EEFvvEEEEEEC2B7v160006ERSF_m', symObjAddr: 0xAA00, symBinAddr: 0x10000B840, symSize: 0x2C }
  - { offsetInCU: 0x28D68, offset: 0x28D68, size: 0x8, addend: 0x0, symName: '__ZNSt3__110unique_ptrINS_10__function6__baseIFvvEEENS_22__allocator_destructorINS_9allocatorINS1_6__funcINS_6__bindIZN7CoTrain11LogMannager4infoENS_10shared_ptrINS9_8LogEventEEEE3$_1JEEENS6_ISF_EES3_EEEEEEEC2B7v160006ILb1EvEEPSH_NS_16__dependent_typeINS_27__unique_ptr_deleter_sfinaeISJ_EEXT_EE20__good_rval_ref_typeE', symObjAddr: 0xAA2C, symBinAddr: 0x10000B86C, symSize: 0x48 }
  - { offsetInCU: 0x28DBB, offset: 0x28DBB, size: 0x8, addend: 0x0, symName: '__ZNSt3__117__compressed_pairIPNS_10__function6__funcINS_6__bindIZN7CoTrain11LogMannager4infoENS_10shared_ptrINS4_8LogEventEEEE3$_1JEEENS_9allocatorISA_EEFvvEEENS_22__allocator_destructorINSB_ISE_EEEEEC1B7v160006IRSF_SI_EEOT_OT0_', symObjAddr: 0xAA74, symBinAddr: 0x10000B8B4, symSize: 0x3C }
  - { offsetInCU: 0x28E15, offset: 0x28E15, size: 0x8, addend: 0x0, symName: '__ZNSt3__117__compressed_pairIPNS_10__function6__funcINS_6__bindIZN7CoTrain11LogMannager4infoENS_10shared_ptrINS4_8LogEventEEEE3$_1JEEENS_9allocatorISA_EEFvvEEENS_22__allocator_destructorINSB_ISE_EEEEEC2B7v160006IRSF_SI_EEOT_OT0_', symObjAddr: 0xAAB0, symBinAddr: 0x10000B8F0, symSize: 0x48 }
  - { offsetInCU: 0x28E6F, offset: 0x28E6F, size: 0x8, addend: 0x0, symName: '__ZNSt3__122__compressed_pair_elemIPNS_10__function6__funcINS_6__bindIZN7CoTrain11LogMannager4infoENS_10shared_ptrINS4_8LogEventEEEE3$_1JEEENS_9allocatorISA_EEFvvEEELi0ELb0EEC2B7v160006IRSF_vEEOT_', symObjAddr: 0xAAF8, symBinAddr: 0x10000B938, symSize: 0x24 }
  - { offsetInCU: 0x28EB2, offset: 0x28EB2, size: 0x8, addend: 0x0, symName: '__ZNSt3__122__compressed_pair_elemINS_22__allocator_destructorINS_9allocatorINS_10__function6__funcINS_6__bindIZN7CoTrain11LogMannager4infoENS_10shared_ptrINS6_8LogEventEEEE3$_1JEEENS2_ISC_EEFvvEEEEEEELi1ELb0EEC2B7v160006ISH_vEEOT_', symObjAddr: 0xAB1C, symBinAddr: 0x10000B95C, symSize: 0x24 }
  - { offsetInCU: 0x28EF5, offset: 0x28EF5, size: 0x8, addend: 0x0, symName: '__ZNKSt3__117__compressed_pairIPNS_10__function6__funcINS_6__bindIZN7CoTrain11LogMannager4infoENS_10shared_ptrINS4_8LogEventEEEE3$_1JEEENS_9allocatorISA_EEFvvEEENS_22__allocator_destructorINSB_ISE_EEEEE5firstB7v160006Ev', symObjAddr: 0xAB40, symBinAddr: 0x10000B980, symSize: 0x24 }
  - { offsetInCU: 0x28F1B, offset: 0x28F1B, size: 0x8, addend: 0x0, symName: '__ZNKSt3__122__compressed_pair_elemIPNS_10__function6__funcINS_6__bindIZN7CoTrain11LogMannager4infoENS_10shared_ptrINS4_8LogEventEEEE3$_1JEEENS_9allocatorISA_EEFvvEEELi0ELb0EE5__getB7v160006Ev', symObjAddr: 0xAB64, symBinAddr: 0x10000B9A4, symSize: 0x14 }
  - { offsetInCU: 0x28F41, offset: 0x28F41, size: 0x8, addend: 0x0, symName: '__ZNSt3__110__function6__funcINS_6__bindIZN7CoTrain11LogMannager4infoENS_10shared_ptrINS3_8LogEventEEEE3$_1JEEENS_9allocatorIS9_EEFvvEEC2B7v160006EOS9_OSB_', symObjAddr: 0xAB78, symBinAddr: 0x10000B9B8, symSize: 0x88 }
  - { offsetInCU: 0x28F89, offset: 0x28F89, size: 0x8, addend: 0x0, symName: '__ZNSt3__110__function12__alloc_funcINS_6__bindIZN7CoTrain11LogMannager4infoENS_10shared_ptrINS3_8LogEventEEEE3$_1JEEENS_9allocatorIS9_EEFvvEEC1B7v160006EOS9_OSB_', symObjAddr: 0xAC00, symBinAddr: 0x10000BA40, symSize: 0x3C }
  - { offsetInCU: 0x28FD1, offset: 0x28FD1, size: 0x8, addend: 0x0, symName: '__ZNSt3__110__function6__funcINS_6__bindIZN7CoTrain11LogMannager4infoENS_10shared_ptrINS3_8LogEventEEEE3$_1JEEENS_9allocatorIS9_EEFvvEED1Ev', symObjAddr: 0xAC3C, symBinAddr: 0x10000BA7C, symSize: 0x2C }
  - { offsetInCU: 0x28FFE, offset: 0x28FFE, size: 0x8, addend: 0x0, symName: '__ZNSt3__110__function6__funcINS_6__bindIZN7CoTrain11LogMannager4infoENS_10shared_ptrINS3_8LogEventEEEE3$_1JEEENS_9allocatorIS9_EEFvvEED0Ev', symObjAddr: 0xAC68, symBinAddr: 0x10000BAA8, symSize: 0x30 }
  - { offsetInCU: 0x2902B, offset: 0x2902B, size: 0x8, addend: 0x0, symName: '__ZNKSt3__110__function6__funcINS_6__bindIZN7CoTrain11LogMannager4infoENS_10shared_ptrINS3_8LogEventEEEE3$_1JEEENS_9allocatorIS9_EEFvvEE7__cloneEv', symObjAddr: 0xAC98, symBinAddr: 0x10000BAD8, symSize: 0xFC }
  - { offsetInCU: 0x2907D, offset: 0x2907D, size: 0x8, addend: 0x0, symName: '__ZNKSt3__110__function6__funcINS_6__bindIZN7CoTrain11LogMannager4infoENS_10shared_ptrINS3_8LogEventEEEE3$_1JEEENS_9allocatorIS9_EEFvvEE7__cloneEPNS0_6__baseISC_EE', symObjAddr: 0xAD94, symBinAddr: 0x10000BBD4, symSize: 0x58 }
  - { offsetInCU: 0x290B4, offset: 0x290B4, size: 0x8, addend: 0x0, symName: '__ZNSt3__110__function6__funcINS_6__bindIZN7CoTrain11LogMannager4infoENS_10shared_ptrINS3_8LogEventEEEE3$_1JEEENS_9allocatorIS9_EEFvvEE7destroyEv', symObjAddr: 0xADEC, symBinAddr: 0x10000BC2C, symSize: 0x28 }
  - { offsetInCU: 0x290DC, offset: 0x290DC, size: 0x8, addend: 0x0, symName: '__ZNSt3__110__function6__funcINS_6__bindIZN7CoTrain11LogMannager4infoENS_10shared_ptrINS3_8LogEventEEEE3$_1JEEENS_9allocatorIS9_EEFvvEE18destroy_deallocateEv', symObjAddr: 0xAE14, symBinAddr: 0x10000BC54, symSize: 0x58 }
  - { offsetInCU: 0x2911F, offset: 0x2911F, size: 0x8, addend: 0x0, symName: '__ZNSt3__110__function6__funcINS_6__bindIZN7CoTrain11LogMannager4infoENS_10shared_ptrINS3_8LogEventEEEE3$_1JEEENS_9allocatorIS9_EEFvvEEclEv', symObjAddr: 0xAE6C, symBinAddr: 0x10000BCAC, symSize: 0x28 }
  - { offsetInCU: 0x29147, offset: 0x29147, size: 0x8, addend: 0x0, symName: '__ZNKSt3__110__function6__funcINS_6__bindIZN7CoTrain11LogMannager4infoENS_10shared_ptrINS3_8LogEventEEEE3$_1JEEENS_9allocatorIS9_EEFvvEE6targetERKSt9type_info', symObjAddr: 0xAE94, symBinAddr: 0x10000BCD4, symSize: 0x60 }
  - { offsetInCU: 0x2917E, offset: 0x2917E, size: 0x8, addend: 0x0, symName: '__ZNKSt3__110__function6__funcINS_6__bindIZN7CoTrain11LogMannager4infoENS_10shared_ptrINS3_8LogEventEEEE3$_1JEEENS_9allocatorIS9_EEFvvEE11target_typeEv', symObjAddr: 0xAEF4, symBinAddr: 0x10000BD34, symSize: 0x18 }
  - { offsetInCU: 0x291A6, offset: 0x291A6, size: 0x8, addend: 0x0, symName: '__ZNSt3__110__function12__alloc_funcINS_6__bindIZN7CoTrain11LogMannager4infoENS_10shared_ptrINS3_8LogEventEEEE3$_1JEEENS_9allocatorIS9_EEFvvEEC2B7v160006EOS9_OSB_', symObjAddr: 0xAF0C, symBinAddr: 0x10000BD4C, symSize: 0x5C }
  - { offsetInCU: 0x291EE, offset: 0x291EE, size: 0x8, addend: 0x0, symName: '__ZNSt3__117__compressed_pairINS_6__bindIZN7CoTrain11LogMannager4infoENS_10shared_ptrINS2_8LogEventEEEE3$_1JEEENS_9allocatorIS8_EEEC1B7v160006IJOS8_EJOSA_EEENS_21piecewise_construct_tENS_5tupleIJDpT_EEENSG_IJDpT0_EEE', symObjAddr: 0xAFC0, symBinAddr: 0x10000BE00, symSize: 0x3C }
  - { offsetInCU: 0x2925B, offset: 0x2925B, size: 0x8, addend: 0x0, symName: '__ZNSt3__15tupleIJONS_6__bindIZN7CoTrain11LogMannager4infoENS_10shared_ptrINS2_8LogEventEEEE3$_1JEEEEEC1B7v160006IJS8_ELi0EEEDpOT_', symObjAddr: 0xAFFC, symBinAddr: 0x10000BE3C, symSize: 0x34 }
  - { offsetInCU: 0x292A5, offset: 0x292A5, size: 0x8, addend: 0x0, symName: '__ZNSt3__15tupleIJONS_6__bindIZN7CoTrain11LogMannager4infoENS_10shared_ptrINS2_8LogEventEEEE3$_1JEEEEEC2B7v160006IJS8_ELi0EEEDpOT_', symObjAddr: 0xB030, symBinAddr: 0x10000BE70, symSize: 0x34 }
  - { offsetInCU: 0x292EF, offset: 0x292EF, size: 0x8, addend: 0x0, symName: '__ZNSt3__112__tuple_implINS_15__tuple_indicesIJLm0EEEEJONS_6__bindIZN7CoTrain11LogMannager4infoENS_10shared_ptrINS4_8LogEventEEEE3$_1JEEEEEC1B7v160006IJLm0EEJSB_EJEJEJSA_EEENS1_IJXspT_EEEENS_13__tuple_typesIJDpT0_EEENS1_IJXspT1_EEEENSF_IJDpT2_EEEDpOT3_', symObjAddr: 0xB064, symBinAddr: 0x10000BEA4, symSize: 0x34 }
  - { offsetInCU: 0x29384, offset: 0x29384, size: 0x8, addend: 0x0, symName: '__ZNSt3__112__tuple_implINS_15__tuple_indicesIJLm0EEEEJONS_6__bindIZN7CoTrain11LogMannager4infoENS_10shared_ptrINS4_8LogEventEEEE3$_1JEEEEEC2B7v160006IJLm0EEJSB_EJEJEJSA_EEENS1_IJXspT_EEEENS_13__tuple_typesIJDpT0_EEENS1_IJXspT1_EEEENSF_IJDpT2_EEEDpOT3_', symObjAddr: 0xB098, symBinAddr: 0x10000BED8, symSize: 0x34 }
  - { offsetInCU: 0x29419, offset: 0x29419, size: 0x8, addend: 0x0, symName: '__ZNSt3__112__tuple_leafILm0EONS_6__bindIZN7CoTrain11LogMannager4infoENS_10shared_ptrINS2_8LogEventEEEE3$_1JEEELb0EEC2B7v160006IS8_vEEOT_', symObjAddr: 0xB0CC, symBinAddr: 0x10000BF0C, symSize: 0x20 }
  - { offsetInCU: 0x2945C, offset: 0x2945C, size: 0x8, addend: 0x0, symName: '__ZNSt3__15tupleIJONS_9allocatorINS_6__bindIZN7CoTrain11LogMannager4infoENS_10shared_ptrINS3_8LogEventEEEE3$_1JEEEEEEEC1B7v160006IJSA_ELi0EEEDpOT_', symObjAddr: 0xB0EC, symBinAddr: 0x10000BF2C, symSize: 0x34 }
  - { offsetInCU: 0x294A6, offset: 0x294A6, size: 0x8, addend: 0x0, symName: '__ZNSt3__15tupleIJONS_9allocatorINS_6__bindIZN7CoTrain11LogMannager4infoENS_10shared_ptrINS3_8LogEventEEEE3$_1JEEEEEEEC2B7v160006IJSA_ELi0EEEDpOT_', symObjAddr: 0xB120, symBinAddr: 0x10000BF60, symSize: 0x34 }
  - { offsetInCU: 0x294F0, offset: 0x294F0, size: 0x8, addend: 0x0, symName: '__ZNSt3__112__tuple_implINS_15__tuple_indicesIJLm0EEEEJONS_9allocatorINS_6__bindIZN7CoTrain11LogMannager4infoENS_10shared_ptrINS5_8LogEventEEEE3$_1JEEEEEEEC1B7v160006IJLm0EEJSD_EJEJEJSC_EEENS1_IJXspT_EEEENS_13__tuple_typesIJDpT0_EEENS1_IJXspT1_EEEENSH_IJDpT2_EEEDpOT3_', symObjAddr: 0xB154, symBinAddr: 0x10000BF94, symSize: 0x34 }
  - { offsetInCU: 0x29585, offset: 0x29585, size: 0x8, addend: 0x0, symName: '__ZNSt3__112__tuple_implINS_15__tuple_indicesIJLm0EEEEJONS_9allocatorINS_6__bindIZN7CoTrain11LogMannager4infoENS_10shared_ptrINS5_8LogEventEEEE3$_1JEEEEEEEC2B7v160006IJLm0EEJSD_EJEJEJSC_EEENS1_IJXspT_EEEENS_13__tuple_typesIJDpT0_EEENS1_IJXspT1_EEEENSH_IJDpT2_EEEDpOT3_', symObjAddr: 0xB188, symBinAddr: 0x10000BFC8, symSize: 0x34 }
  - { offsetInCU: 0x2961A, offset: 0x2961A, size: 0x8, addend: 0x0, symName: '__ZNSt3__112__tuple_leafILm0EONS_9allocatorINS_6__bindIZN7CoTrain11LogMannager4infoENS_10shared_ptrINS3_8LogEventEEEE3$_1JEEEEELb0EEC2B7v160006ISA_vEEOT_', symObjAddr: 0xB1BC, symBinAddr: 0x10000BFFC, symSize: 0x20 }
  - { offsetInCU: 0x2965D, offset: 0x2965D, size: 0x8, addend: 0x0, symName: '__ZNSt3__117__compressed_pairINS_6__bindIZN7CoTrain11LogMannager4infoENS_10shared_ptrINS2_8LogEventEEEE3$_1JEEENS_9allocatorIS8_EEEC2B7v160006IJOS8_EJOSA_EEENS_21piecewise_construct_tENS_5tupleIJDpT_EEENSG_IJDpT0_EEE', symObjAddr: 0xB1DC, symBinAddr: 0x10000C01C, symSize: 0x7C }
  - { offsetInCU: 0x296CA, offset: 0x296CA, size: 0x8, addend: 0x0, symName: '__ZNSt3__122__compressed_pair_elemINS_6__bindIZN7CoTrain11LogMannager4infoENS_10shared_ptrINS2_8LogEventEEEE3$_1JEEELi0ELb0EEC2B7v160006IJOS8_EJLm0EEEENS_21piecewise_construct_tENS_5tupleIJDpT_EEENS_15__tuple_indicesIJXspT0_EEEE', symObjAddr: 0xB258, symBinAddr: 0x10000C098, symSize: 0x44 }
  - { offsetInCU: 0x2972E, offset: 0x2972E, size: 0x8, addend: 0x0, symName: '__ZNSt3__122__compressed_pair_elemINS_9allocatorINS_6__bindIZN7CoTrain11LogMannager4infoENS_10shared_ptrINS3_8LogEventEEEE3$_1JEEEEELi1ELb1EEC2B7v160006IJOSA_EJLm0EEEENS_21piecewise_construct_tENS_5tupleIJDpT_EEENS_15__tuple_indicesIJXspT0_EEEE', symObjAddr: 0xB29C, symBinAddr: 0x10000C0DC, symSize: 0x38 }
  - { offsetInCU: 0x29792, offset: 0x29792, size: 0x8, addend: 0x0, symName: '__ZNSt3__122__compressed_pair_elemINS_6__bindIZN7CoTrain11LogMannager4infoENS_10shared_ptrINS2_8LogEventEEEE3$_1JEEELi0ELb0EED2Ev', symObjAddr: 0xB2D4, symBinAddr: 0x10000C114, symSize: 0x2C }
  - { offsetInCU: 0x297BE, offset: 0x297BE, size: 0x8, addend: 0x0, symName: '__ZNSt3__16__bindIZN7CoTrain11LogMannager4infoENS_10shared_ptrINS1_8LogEventEEEE3$_1JEEC1EOS7_', symObjAddr: 0xB324, symBinAddr: 0x10000C164, symSize: 0x34 }
  - { offsetInCU: 0x297F4, offset: 0x297F4, size: 0x8, addend: 0x0, symName: '__ZNSt3__112__tuple_leafILm0EONS_6__bindIZN7CoTrain11LogMannager4infoENS_10shared_ptrINS2_8LogEventEEEE3$_1JEEELb0EE3getB7v160006Ev', symObjAddr: 0xB358, symBinAddr: 0x10000C198, symSize: 0x18 }
  - { offsetInCU: 0x2981A, offset: 0x2981A, size: 0x8, addend: 0x0, symName: '__ZNSt3__16__bindIZN7CoTrain11LogMannager4infoENS_10shared_ptrINS1_8LogEventEEEE3$_1JEEC2EOS7_', symObjAddr: 0xB370, symBinAddr: 0x10000C1B0, symSize: 0x34 }
  - { offsetInCU: 0x29850, offset: 0x29850, size: 0x8, addend: 0x0, symName: '__ZNSt3__112__tuple_leafILm0EONS_9allocatorINS_6__bindIZN7CoTrain11LogMannager4infoENS_10shared_ptrINS3_8LogEventEEEE3$_1JEEEEELb0EE3getB7v160006Ev', symObjAddr: 0xB3C8, symBinAddr: 0x10000C208, symSize: 0x18 }
  - { offsetInCU: 0x29876, offset: 0x29876, size: 0x8, addend: 0x0, symName: '__ZNSt3__110__function6__funcINS_6__bindIZN7CoTrain11LogMannager4infoENS_10shared_ptrINS3_8LogEventEEEE3$_1JEEENS_9allocatorIS9_EEFvvEED2Ev', symObjAddr: 0xB3E0, symBinAddr: 0x10000C220, symSize: 0x48 }
  - { offsetInCU: 0x298A3, offset: 0x298A3, size: 0x8, addend: 0x0, symName: '__ZNSt3__110__function12__alloc_funcINS_6__bindIZN7CoTrain11LogMannager4infoENS_10shared_ptrINS3_8LogEventEEEE3$_1JEEENS_9allocatorIS9_EEFvvEED1Ev', symObjAddr: 0xB428, symBinAddr: 0x10000C268, symSize: 0x2C }
  - { offsetInCU: 0x298CF, offset: 0x298CF, size: 0x8, addend: 0x0, symName: '__ZNSt3__110__function12__alloc_funcINS_6__bindIZN7CoTrain11LogMannager4infoENS_10shared_ptrINS3_8LogEventEEEE3$_1JEEENS_9allocatorIS9_EEFvvEED2Ev', symObjAddr: 0xB454, symBinAddr: 0x10000C294, symSize: 0x2C }
  - { offsetInCU: 0x298FB, offset: 0x298FB, size: 0x8, addend: 0x0, symName: '__ZNSt3__117__compressed_pairINS_6__bindIZN7CoTrain11LogMannager4infoENS_10shared_ptrINS2_8LogEventEEEE3$_1JEEENS_9allocatorIS8_EEED1Ev', symObjAddr: 0xB480, symBinAddr: 0x10000C2C0, symSize: 0x2C }
  - { offsetInCU: 0x29927, offset: 0x29927, size: 0x8, addend: 0x0, symName: '__ZNSt3__117__compressed_pairINS_6__bindIZN7CoTrain11LogMannager4infoENS_10shared_ptrINS2_8LogEventEEEE3$_1JEEENS_9allocatorIS8_EEED2Ev', symObjAddr: 0xB4AC, symBinAddr: 0x10000C2EC, symSize: 0x2C }
  - { offsetInCU: 0x29953, offset: 0x29953, size: 0x8, addend: 0x0, symName: '__ZNKSt3__110__function12__alloc_funcINS_6__bindIZN7CoTrain11LogMannager4infoENS_10shared_ptrINS3_8LogEventEEEE3$_1JEEENS_9allocatorIS9_EEFvvEE15__get_allocatorB7v160006Ev', symObjAddr: 0xB4D8, symBinAddr: 0x10000C318, symSize: 0x24 }
  - { offsetInCU: 0x299A7, offset: 0x299A7, size: 0x8, addend: 0x0, symName: '__ZNSt3__110unique_ptrINS_10__function6__funcINS_6__bindIZN7CoTrain11LogMannager4infoENS_10shared_ptrINS4_8LogEventEEEE3$_1JEEENS_9allocatorISA_EEFvvEEENS_22__allocator_destructorINSB_ISE_EEEEEC1B7v160006ILb1EvEEPSE_NS_16__dependent_typeINS_27__unique_ptr_deleter_sfinaeISH_EEXT_EE20__good_rval_ref_typeE', symObjAddr: 0xB4FC, symBinAddr: 0x10000C33C, symSize: 0x3C }
  - { offsetInCU: 0x299FA, offset: 0x299FA, size: 0x8, addend: 0x0, symName: '__ZNKSt3__110unique_ptrINS_10__function6__funcINS_6__bindIZN7CoTrain11LogMannager4infoENS_10shared_ptrINS4_8LogEventEEEE3$_1JEEENS_9allocatorISA_EEFvvEEENS_22__allocator_destructorINSB_ISE_EEEEE3getB7v160006Ev', symObjAddr: 0xB538, symBinAddr: 0x10000C378, symSize: 0x28 }
  - { offsetInCU: 0x29A20, offset: 0x29A20, size: 0x8, addend: 0x0, symName: '__ZNKSt3__110__function12__alloc_funcINS_6__bindIZN7CoTrain11LogMannager4infoENS_10shared_ptrINS3_8LogEventEEEE3$_1JEEENS_9allocatorIS9_EEFvvEE8__targetB7v160006Ev', symObjAddr: 0xB560, symBinAddr: 0x10000C3A0, symSize: 0x24 }
  - { offsetInCU: 0x29A4C, offset: 0x29A4C, size: 0x8, addend: 0x0, symName: '__ZNSt3__19allocatorINS_6__bindIZN7CoTrain11LogMannager4infoENS_10shared_ptrINS2_8LogEventEEEE3$_1JEEEEC1B7v160006INS_10__function6__funcIS8_S9_FvvEEEEERKNS0_IT_EE', symObjAddr: 0xB584, symBinAddr: 0x10000C3C4, symSize: 0x34 }
  - { offsetInCU: 0x29A89, offset: 0x29A89, size: 0x8, addend: 0x0, symName: '__ZNSt3__110__function6__funcINS_6__bindIZN7CoTrain11LogMannager4infoENS_10shared_ptrINS3_8LogEventEEEE3$_1JEEENS_9allocatorIS9_EEFvvEEC1B7v160006ERKS9_OSB_', symObjAddr: 0xB5B8, symBinAddr: 0x10000C3F8, symSize: 0x3C }
  - { offsetInCU: 0x29AD1, offset: 0x29AD1, size: 0x8, addend: 0x0, symName: '__ZNSt3__110unique_ptrINS_10__function6__funcINS_6__bindIZN7CoTrain11LogMannager4infoENS_10shared_ptrINS4_8LogEventEEEE3$_1JEEENS_9allocatorISA_EEFvvEEENS_22__allocator_destructorINSB_ISE_EEEEE7releaseB7v160006Ev', symObjAddr: 0xB5F4, symBinAddr: 0x10000C434, symSize: 0x44 }
  - { offsetInCU: 0x29B06, offset: 0x29B06, size: 0x8, addend: 0x0, symName: '__ZNSt3__110unique_ptrINS_10__function6__funcINS_6__bindIZN7CoTrain11LogMannager4infoENS_10shared_ptrINS4_8LogEventEEEE3$_1JEEENS_9allocatorISA_EEFvvEEENS_22__allocator_destructorINSB_ISE_EEEEED1B7v160006Ev', symObjAddr: 0xB638, symBinAddr: 0x10000C478, symSize: 0x2C }
  - { offsetInCU: 0x29B30, offset: 0x29B30, size: 0x8, addend: 0x0, symName: '__ZNKSt3__117__compressed_pairINS_6__bindIZN7CoTrain11LogMannager4infoENS_10shared_ptrINS2_8LogEventEEEE3$_1JEEENS_9allocatorIS8_EEE6secondB7v160006Ev', symObjAddr: 0xB664, symBinAddr: 0x10000C4A4, symSize: 0x24 }
  - { offsetInCU: 0x29B56, offset: 0x29B56, size: 0x8, addend: 0x0, symName: '__ZNKSt3__122__compressed_pair_elemINS_9allocatorINS_6__bindIZN7CoTrain11LogMannager4infoENS_10shared_ptrINS3_8LogEventEEEE3$_1JEEEEELi1ELb1EE5__getB7v160006Ev', symObjAddr: 0xB688, symBinAddr: 0x10000C4C8, symSize: 0x14 }
  - { offsetInCU: 0x29B7C, offset: 0x29B7C, size: 0x8, addend: 0x0, symName: '__ZNSt3__110unique_ptrINS_10__function6__funcINS_6__bindIZN7CoTrain11LogMannager4infoENS_10shared_ptrINS4_8LogEventEEEE3$_1JEEENS_9allocatorISA_EEFvvEEENS_22__allocator_destructorINSB_ISE_EEEEEC2B7v160006ILb1EvEEPSE_NS_16__dependent_typeINS_27__unique_ptr_deleter_sfinaeISH_EEXT_EE20__good_rval_ref_typeE', symObjAddr: 0xB69C, symBinAddr: 0x10000C4DC, symSize: 0x48 }
  - { offsetInCU: 0x29BCF, offset: 0x29BCF, size: 0x8, addend: 0x0, symName: '__ZNKSt3__117__compressed_pairINS_6__bindIZN7CoTrain11LogMannager4infoENS_10shared_ptrINS2_8LogEventEEEE3$_1JEEENS_9allocatorIS8_EEE5firstB7v160006Ev', symObjAddr: 0xB6E4, symBinAddr: 0x10000C524, symSize: 0x24 }
  - { offsetInCU: 0x29BF5, offset: 0x29BF5, size: 0x8, addend: 0x0, symName: '__ZNKSt3__122__compressed_pair_elemINS_6__bindIZN7CoTrain11LogMannager4infoENS_10shared_ptrINS2_8LogEventEEEE3$_1JEEELi0ELb0EE5__getB7v160006Ev', symObjAddr: 0xB708, symBinAddr: 0x10000C548, symSize: 0x14 }
  - { offsetInCU: 0x29C1B, offset: 0x29C1B, size: 0x8, addend: 0x0, symName: '__ZNSt3__19allocatorINS_6__bindIZN7CoTrain11LogMannager4infoENS_10shared_ptrINS2_8LogEventEEEE3$_1JEEEEC2B7v160006INS_10__function6__funcIS8_S9_FvvEEEEERKNS0_IT_EE', symObjAddr: 0xB71C, symBinAddr: 0x10000C55C, symSize: 0x30 }
  - { offsetInCU: 0x29C58, offset: 0x29C58, size: 0x8, addend: 0x0, symName: '__ZNSt3__110__function6__funcINS_6__bindIZN7CoTrain11LogMannager4infoENS_10shared_ptrINS3_8LogEventEEEE3$_1JEEENS_9allocatorIS9_EEFvvEEC2B7v160006ERKS9_OSB_', symObjAddr: 0xB74C, symBinAddr: 0x10000C58C, symSize: 0x88 }
  - { offsetInCU: 0x29CA0, offset: 0x29CA0, size: 0x8, addend: 0x0, symName: '__ZNSt3__110__function12__alloc_funcINS_6__bindIZN7CoTrain11LogMannager4infoENS_10shared_ptrINS3_8LogEventEEEE3$_1JEEENS_9allocatorIS9_EEFvvEEC1B7v160006ERKS9_OSB_', symObjAddr: 0xB7D4, symBinAddr: 0x10000C614, symSize: 0x3C }
  - { offsetInCU: 0x29CE8, offset: 0x29CE8, size: 0x8, addend: 0x0, symName: '__ZNSt3__110__function12__alloc_funcINS_6__bindIZN7CoTrain11LogMannager4infoENS_10shared_ptrINS3_8LogEventEEEE3$_1JEEENS_9allocatorIS9_EEFvvEEC2B7v160006ERKS9_OSB_', symObjAddr: 0xB810, symBinAddr: 0x10000C650, symSize: 0x5C }
  - { offsetInCU: 0x29D30, offset: 0x29D30, size: 0x8, addend: 0x0, symName: '__ZNSt3__117__compressed_pairINS_6__bindIZN7CoTrain11LogMannager4infoENS_10shared_ptrINS2_8LogEventEEEE3$_1JEEENS_9allocatorIS8_EEEC1B7v160006IJRKS8_EJOSA_EEENS_21piecewise_construct_tENS_5tupleIJDpT_EEENSH_IJDpT0_EEE', symObjAddr: 0xB898, symBinAddr: 0x10000C6D8, symSize: 0x3C }
  - { offsetInCU: 0x29D9D, offset: 0x29D9D, size: 0x8, addend: 0x0, symName: '__ZNSt3__15tupleIJRKNS_6__bindIZN7CoTrain11LogMannager4infoENS_10shared_ptrINS2_8LogEventEEEE3$_1JEEEEEC1B7v160006INS_4_AndELi0EEESA_', symObjAddr: 0xB8D4, symBinAddr: 0x10000C714, symSize: 0x34 }
  - { offsetInCU: 0x29DE5, offset: 0x29DE5, size: 0x8, addend: 0x0, symName: '__ZNSt3__15tupleIJRKNS_6__bindIZN7CoTrain11LogMannager4infoENS_10shared_ptrINS2_8LogEventEEEE3$_1JEEEEEC2B7v160006INS_4_AndELi0EEESA_', symObjAddr: 0xB908, symBinAddr: 0x10000C748, symSize: 0x34 }
  - { offsetInCU: 0x29E2D, offset: 0x29E2D, size: 0x8, addend: 0x0, symName: '__ZNSt3__112__tuple_implINS_15__tuple_indicesIJLm0EEEEJRKNS_6__bindIZN7CoTrain11LogMannager4infoENS_10shared_ptrINS4_8LogEventEEEE3$_1JEEEEEC1B7v160006IJLm0EEJSC_EJEJEJSC_EEENS1_IJXspT_EEEENS_13__tuple_typesIJDpT0_EEENS1_IJXspT1_EEEENSG_IJDpT2_EEEDpOT3_', symObjAddr: 0xB93C, symBinAddr: 0x10000C77C, symSize: 0x34 }
  - { offsetInCU: 0x29EC2, offset: 0x29EC2, size: 0x8, addend: 0x0, symName: '__ZNSt3__112__tuple_implINS_15__tuple_indicesIJLm0EEEEJRKNS_6__bindIZN7CoTrain11LogMannager4infoENS_10shared_ptrINS4_8LogEventEEEE3$_1JEEEEEC2B7v160006IJLm0EEJSC_EJEJEJSC_EEENS1_IJXspT_EEEENS_13__tuple_typesIJDpT0_EEENS1_IJXspT1_EEEENSG_IJDpT2_EEEDpOT3_', symObjAddr: 0xB970, symBinAddr: 0x10000C7B0, symSize: 0x34 }
  - { offsetInCU: 0x29F57, offset: 0x29F57, size: 0x8, addend: 0x0, symName: '__ZNSt3__112__tuple_leafILm0ERKNS_6__bindIZN7CoTrain11LogMannager4infoENS_10shared_ptrINS2_8LogEventEEEE3$_1JEEELb0EEC2B7v160006ISA_vEEOT_', symObjAddr: 0xB9A4, symBinAddr: 0x10000C7E4, symSize: 0x20 }
  - { offsetInCU: 0x29F9A, offset: 0x29F9A, size: 0x8, addend: 0x0, symName: '__ZNSt3__117__compressed_pairINS_6__bindIZN7CoTrain11LogMannager4infoENS_10shared_ptrINS2_8LogEventEEEE3$_1JEEENS_9allocatorIS8_EEEC2B7v160006IJRKS8_EJOSA_EEENS_21piecewise_construct_tENS_5tupleIJDpT_EEENSH_IJDpT0_EEE', symObjAddr: 0xB9C4, symBinAddr: 0x10000C804, symSize: 0x54 }
  - { offsetInCU: 0x2A007, offset: 0x2A007, size: 0x8, addend: 0x0, symName: '__ZNSt3__122__compressed_pair_elemINS_6__bindIZN7CoTrain11LogMannager4infoENS_10shared_ptrINS2_8LogEventEEEE3$_1JEEELi0ELb0EEC2B7v160006IJRKS8_EJLm0EEEENS_21piecewise_construct_tENS_5tupleIJDpT_EEENS_15__tuple_indicesIJXspT0_EEEE', symObjAddr: 0xBA18, symBinAddr: 0x10000C858, symSize: 0x44 }
  - { offsetInCU: 0x2A06B, offset: 0x2A06B, size: 0x8, addend: 0x0, symName: '__ZNSt3__16__bindIZN7CoTrain11LogMannager4infoENS_10shared_ptrINS1_8LogEventEEEE3$_1JEEC1ERKS7_', symObjAddr: 0xBA80, symBinAddr: 0x10000C8C0, symSize: 0x34 }
  - { offsetInCU: 0x2A0A1, offset: 0x2A0A1, size: 0x8, addend: 0x0, symName: '__ZNSt3__112__tuple_leafILm0ERKNS_6__bindIZN7CoTrain11LogMannager4infoENS_10shared_ptrINS2_8LogEventEEEE3$_1JEEELb0EE3getB7v160006Ev', symObjAddr: 0xBAB4, symBinAddr: 0x10000C8F4, symSize: 0x18 }
  - { offsetInCU: 0x2A0C7, offset: 0x2A0C7, size: 0x8, addend: 0x0, symName: '__ZNSt3__16__bindIZN7CoTrain11LogMannager4infoENS_10shared_ptrINS1_8LogEventEEEE3$_1JEEC2ERKS7_', symObjAddr: 0xBACC, symBinAddr: 0x10000C90C, symSize: 0x34 }
  - { offsetInCU: 0x2A108, offset: 0x2A108, size: 0x8, addend: 0x0, symName: '__ZZN7CoTrain11LogMannager4infoENSt3__110shared_ptrINS_8LogEventEEEEN3$_1C1ERKS5_', symObjAddr: 0xBB00, symBinAddr: 0x10000C940, symSize: 0x34 }
  - { offsetInCU: 0x2A13D, offset: 0x2A13D, size: 0x8, addend: 0x0, symName: '__ZZN7CoTrain11LogMannager4infoENSt3__110shared_ptrINS_8LogEventEEEEN3$_1C2ERKS5_', symObjAddr: 0xBB34, symBinAddr: 0x10000C974, symSize: 0x48 }
  - { offsetInCU: 0x2A172, offset: 0x2A172, size: 0x8, addend: 0x0, symName: '__ZNSt3__117__compressed_pairIPNS_10__function6__funcINS_6__bindIZN7CoTrain11LogMannager4infoENS_10shared_ptrINS4_8LogEventEEEE3$_1JEEENS_9allocatorISA_EEFvvEEENS_22__allocator_destructorINSB_ISE_EEEEE5firstB7v160006Ev', symObjAddr: 0xBB7C, symBinAddr: 0x10000C9BC, symSize: 0x24 }
  - { offsetInCU: 0x2A198, offset: 0x2A198, size: 0x8, addend: 0x0, symName: '__ZNSt3__122__compressed_pair_elemIPNS_10__function6__funcINS_6__bindIZN7CoTrain11LogMannager4infoENS_10shared_ptrINS4_8LogEventEEEE3$_1JEEENS_9allocatorISA_EEFvvEEELi0ELb0EE5__getB7v160006Ev', symObjAddr: 0xBBA0, symBinAddr: 0x10000C9E0, symSize: 0x14 }
  - { offsetInCU: 0x2A1BE, offset: 0x2A1BE, size: 0x8, addend: 0x0, symName: '__ZNSt3__110unique_ptrINS_10__function6__funcINS_6__bindIZN7CoTrain11LogMannager4infoENS_10shared_ptrINS4_8LogEventEEEE3$_1JEEENS_9allocatorISA_EEFvvEEENS_22__allocator_destructorINSB_ISE_EEEEED2B7v160006Ev', symObjAddr: 0xBBB4, symBinAddr: 0x10000C9F4, symSize: 0x30 }
  - { offsetInCU: 0x2A1E8, offset: 0x2A1E8, size: 0x8, addend: 0x0, symName: '__ZNSt3__110unique_ptrINS_10__function6__funcINS_6__bindIZN7CoTrain11LogMannager4infoENS_10shared_ptrINS4_8LogEventEEEE3$_1JEEENS_9allocatorISA_EEFvvEEENS_22__allocator_destructorINSB_ISE_EEEEE5resetB7v160006EPSE_', symObjAddr: 0xBBE4, symBinAddr: 0x10000CA24, symSize: 0x78 }
  - { offsetInCU: 0x2A22C, offset: 0x2A22C, size: 0x8, addend: 0x0, symName: '__ZNSt3__117__compressed_pairIPNS_10__function6__funcINS_6__bindIZN7CoTrain11LogMannager4infoENS_10shared_ptrINS4_8LogEventEEEE3$_1JEEENS_9allocatorISA_EEFvvEEENS_22__allocator_destructorINSB_ISE_EEEEE6secondB7v160006Ev', symObjAddr: 0xBC5C, symBinAddr: 0x10000CA9C, symSize: 0x28 }
  - { offsetInCU: 0x2A252, offset: 0x2A252, size: 0x8, addend: 0x0, symName: '__ZNSt3__122__allocator_destructorINS_9allocatorINS_10__function6__funcINS_6__bindIZN7CoTrain11LogMannager4infoENS_10shared_ptrINS5_8LogEventEEEE3$_1JEEENS1_ISB_EEFvvEEEEEEclB7v160006EPSE_', symObjAddr: 0xBC84, symBinAddr: 0x10000CAC4, symSize: 0x34 }
  - { offsetInCU: 0x2A287, offset: 0x2A287, size: 0x8, addend: 0x0, symName: '__ZNSt3__122__compressed_pair_elemINS_22__allocator_destructorINS_9allocatorINS_10__function6__funcINS_6__bindIZN7CoTrain11LogMannager4infoENS_10shared_ptrINS6_8LogEventEEEE3$_1JEEENS2_ISC_EEFvvEEEEEEELi1ELb0EE5__getB7v160006Ev', symObjAddr: 0xBCB8, symBinAddr: 0x10000CAF8, symSize: 0x14 }
  - { offsetInCU: 0x2A2AD, offset: 0x2A2AD, size: 0x8, addend: 0x0, symName: '__ZNSt3__116allocator_traitsINS_9allocatorINS_10__function6__funcINS_6__bindIZN7CoTrain11LogMannager4infoENS_10shared_ptrINS5_8LogEventEEEE3$_1JEEENS1_ISB_EEFvvEEEEEE10deallocateB7v160006ERSF_PSE_m', symObjAddr: 0xBCCC, symBinAddr: 0x10000CB0C, symSize: 0x34 }
  - { offsetInCU: 0x2A2EF, offset: 0x2A2EF, size: 0x8, addend: 0x0, symName: '__ZNSt3__19allocatorINS_10__function6__funcINS_6__bindIZN7CoTrain11LogMannager4infoENS_10shared_ptrINS4_8LogEventEEEE3$_1JEEENS0_ISA_EEFvvEEEE10deallocateB7v160006EPSD_m', symObjAddr: 0xBD00, symBinAddr: 0x10000CB40, symSize: 0x44 }
  - { offsetInCU: 0x2A333, offset: 0x2A333, size: 0x8, addend: 0x0, symName: '__ZNSt3__110__function6__funcINS_6__bindIZN7CoTrain11LogMannager4infoENS_10shared_ptrINS3_8LogEventEEEE3$_1JEEENS_9allocatorIS9_EEFvvEEC1B7v160006ERKS9_RKSB_', symObjAddr: 0xBD44, symBinAddr: 0x10000CB84, symSize: 0x3C }
  - { offsetInCU: 0x2A37B, offset: 0x2A37B, size: 0x8, addend: 0x0, symName: '__ZNSt3__110__function6__funcINS_6__bindIZN7CoTrain11LogMannager4infoENS_10shared_ptrINS3_8LogEventEEEE3$_1JEEENS_9allocatorIS9_EEFvvEEC2B7v160006ERKS9_RKSB_', symObjAddr: 0xBD80, symBinAddr: 0x10000CBC0, symSize: 0x88 }
  - { offsetInCU: 0x2A3C3, offset: 0x2A3C3, size: 0x8, addend: 0x0, symName: '__ZNSt3__110__function12__alloc_funcINS_6__bindIZN7CoTrain11LogMannager4infoENS_10shared_ptrINS3_8LogEventEEEE3$_1JEEENS_9allocatorIS9_EEFvvEEC1B7v160006ERKS9_RKSB_', symObjAddr: 0xBE08, symBinAddr: 0x10000CC48, symSize: 0x3C }
  - { offsetInCU: 0x2A40B, offset: 0x2A40B, size: 0x8, addend: 0x0, symName: '__ZNSt3__110__function12__alloc_funcINS_6__bindIZN7CoTrain11LogMannager4infoENS_10shared_ptrINS3_8LogEventEEEE3$_1JEEENS_9allocatorIS9_EEFvvEEC2B7v160006ERKS9_RKSB_', symObjAddr: 0xBE44, symBinAddr: 0x10000CC84, symSize: 0x5C }
  - { offsetInCU: 0x2A453, offset: 0x2A453, size: 0x8, addend: 0x0, symName: '__ZNSt3__117__compressed_pairINS_6__bindIZN7CoTrain11LogMannager4infoENS_10shared_ptrINS2_8LogEventEEEE3$_1JEEENS_9allocatorIS8_EEEC1B7v160006IJRKS8_EJRKSA_EEENS_21piecewise_construct_tENS_5tupleIJDpT_EEENSI_IJDpT0_EEE', symObjAddr: 0xBECC, symBinAddr: 0x10000CD0C, symSize: 0x3C }
  - { offsetInCU: 0x2A4C0, offset: 0x2A4C0, size: 0x8, addend: 0x0, symName: '__ZNSt3__15tupleIJRKNS_9allocatorINS_6__bindIZN7CoTrain11LogMannager4infoENS_10shared_ptrINS3_8LogEventEEEE3$_1JEEEEEEEC1B7v160006INS_4_AndELi0EEESC_', symObjAddr: 0xBF08, symBinAddr: 0x10000CD48, symSize: 0x34 }
  - { offsetInCU: 0x2A508, offset: 0x2A508, size: 0x8, addend: 0x0, symName: '__ZNSt3__15tupleIJRKNS_9allocatorINS_6__bindIZN7CoTrain11LogMannager4infoENS_10shared_ptrINS3_8LogEventEEEE3$_1JEEEEEEEC2B7v160006INS_4_AndELi0EEESC_', symObjAddr: 0xBF3C, symBinAddr: 0x10000CD7C, symSize: 0x34 }
  - { offsetInCU: 0x2A550, offset: 0x2A550, size: 0x8, addend: 0x0, symName: '__ZNSt3__112__tuple_implINS_15__tuple_indicesIJLm0EEEEJRKNS_9allocatorINS_6__bindIZN7CoTrain11LogMannager4infoENS_10shared_ptrINS5_8LogEventEEEE3$_1JEEEEEEEC1B7v160006IJLm0EEJSE_EJEJEJSE_EEENS1_IJXspT_EEEENS_13__tuple_typesIJDpT0_EEENS1_IJXspT1_EEEENSI_IJDpT2_EEEDpOT3_', symObjAddr: 0xBF70, symBinAddr: 0x10000CDB0, symSize: 0x34 }
  - { offsetInCU: 0x2A5E5, offset: 0x2A5E5, size: 0x8, addend: 0x0, symName: '__ZNSt3__112__tuple_implINS_15__tuple_indicesIJLm0EEEEJRKNS_9allocatorINS_6__bindIZN7CoTrain11LogMannager4infoENS_10shared_ptrINS5_8LogEventEEEE3$_1JEEEEEEEC2B7v160006IJLm0EEJSE_EJEJEJSE_EEENS1_IJXspT_EEEENS_13__tuple_typesIJDpT0_EEENS1_IJXspT1_EEEENSI_IJDpT2_EEEDpOT3_', symObjAddr: 0xBFA4, symBinAddr: 0x10000CDE4, symSize: 0x34 }
  - { offsetInCU: 0x2A67A, offset: 0x2A67A, size: 0x8, addend: 0x0, symName: '__ZNSt3__112__tuple_leafILm0ERKNS_9allocatorINS_6__bindIZN7CoTrain11LogMannager4infoENS_10shared_ptrINS3_8LogEventEEEE3$_1JEEEEELb0EEC2B7v160006ISC_vEEOT_', symObjAddr: 0xBFD8, symBinAddr: 0x10000CE18, symSize: 0x20 }
  - { offsetInCU: 0x2A6BD, offset: 0x2A6BD, size: 0x8, addend: 0x0, symName: '__ZNSt3__117__compressed_pairINS_6__bindIZN7CoTrain11LogMannager4infoENS_10shared_ptrINS2_8LogEventEEEE3$_1JEEENS_9allocatorIS8_EEEC2B7v160006IJRKS8_EJRKSA_EEENS_21piecewise_construct_tENS_5tupleIJDpT_EEENSI_IJDpT0_EEE', symObjAddr: 0xBFF8, symBinAddr: 0x10000CE38, symSize: 0x7C }
  - { offsetInCU: 0x2A72A, offset: 0x2A72A, size: 0x8, addend: 0x0, symName: '__ZNSt3__122__compressed_pair_elemINS_9allocatorINS_6__bindIZN7CoTrain11LogMannager4infoENS_10shared_ptrINS3_8LogEventEEEE3$_1JEEEEELi1ELb1EEC2B7v160006IJRKSA_EJLm0EEEENS_21piecewise_construct_tENS_5tupleIJDpT_EEENS_15__tuple_indicesIJXspT0_EEEE', symObjAddr: 0xC074, symBinAddr: 0x10000CEB4, symSize: 0x38 }
  - { offsetInCU: 0x2A78E, offset: 0x2A78E, size: 0x8, addend: 0x0, symName: '__ZNSt3__112__tuple_leafILm0ERKNS_9allocatorINS_6__bindIZN7CoTrain11LogMannager4infoENS_10shared_ptrINS3_8LogEventEEEE3$_1JEEEEELb0EE3getB7v160006Ev', symObjAddr: 0xC0D0, symBinAddr: 0x10000CF10, symSize: 0x18 }
  - { offsetInCU: 0x2A7B4, offset: 0x2A7B4, size: 0x8, addend: 0x0, symName: '__ZNSt3__110__function12__alloc_funcINS_6__bindIZN7CoTrain11LogMannager4infoENS_10shared_ptrINS3_8LogEventEEEE3$_1JEEENS_9allocatorIS9_EEFvvEE7destroyB7v160006Ev', symObjAddr: 0xC0E8, symBinAddr: 0x10000CF28, symSize: 0x24 }
  - { offsetInCU: 0x2A7DA, offset: 0x2A7DA, size: 0x8, addend: 0x0, symName: '__ZNSt3__110__function12__alloc_funcINS_6__bindIZN7CoTrain11LogMannager4infoENS_10shared_ptrINS3_8LogEventEEEE3$_1JEEENS_9allocatorIS9_EEFvvEEclB7v160006Ev', symObjAddr: 0xC10C, symBinAddr: 0x10000CF4C, symSize: 0x28 }
  - { offsetInCU: 0x2A800, offset: 0x2A800, size: 0x8, addend: 0x0, symName: '__ZNSt3__128__invoke_void_return_wrapperIvLb1EE6__callIJRNS_6__bindIZN7CoTrain11LogMannager4infoENS_10shared_ptrINS4_8LogEventEEEE3$_1JEEEEEEvDpOT_', symObjAddr: 0xC134, symBinAddr: 0x10000CF74, symSize: 0x24 }
  - { offsetInCU: 0x2A82F, offset: 0x2A82F, size: 0x8, addend: 0x0, symName: '__ZNSt3__117__compressed_pairINS_6__bindIZN7CoTrain11LogMannager4infoENS_10shared_ptrINS2_8LogEventEEEE3$_1JEEENS_9allocatorIS8_EEE5firstB7v160006Ev', symObjAddr: 0xC158, symBinAddr: 0x10000CF98, symSize: 0x24 }
  - { offsetInCU: 0x2A855, offset: 0x2A855, size: 0x8, addend: 0x0, symName: '__ZNSt3__16__bindIZN7CoTrain11LogMannager4infoENS_10shared_ptrINS1_8LogEventEEEE3$_1JEEclB7v160006IJEEENS_13__bind_returnIS6_NS_5tupleIJEEENSA_IJDpOT_EEEXsr22__is_valid_bind_returnIS6_SB_SF_EE5valueEE4typeESE_', symObjAddr: 0xC1A0, symBinAddr: 0x10000CFE0, symSize: 0x30 }
  - { offsetInCU: 0x2A886, offset: 0x2A886, size: 0x8, addend: 0x0, symName: '__ZZN7CoTrain11LogMannager4infoENSt3__110shared_ptrINS_8LogEventEEEENK3$_1clEv', symObjAddr: 0xC220, symBinAddr: 0x10000D060, symSize: 0x84 }
  - { offsetInCU: 0x2A8B0, offset: 0x2A8B0, size: 0x8, addend: 0x0, symName: '__ZNSt3__122__compressed_pair_elemINS_6__bindIZN7CoTrain11LogMannager4infoENS_10shared_ptrINS2_8LogEventEEEE3$_1JEEELi0ELb0EE5__getB7v160006Ev', symObjAddr: 0xC2A4, symBinAddr: 0x10000D0E4, symSize: 0x14 }
  - { offsetInCU: 0x2A8D6, offset: 0x2A8D6, size: 0x8, addend: 0x0, symName: '__ZNSt3__110unique_ptrINS_10__function6__baseIFvvEEENS_22__allocator_destructorINS_9allocatorINS1_6__funcINS_6__bindIZN7CoTrain11LogMannager4infoENS_10shared_ptrINS9_8LogEventEEEE3$_1JEEENS6_ISF_EES3_EEEEEEED2B7v160006Ev', symObjAddr: 0xC2B8, symBinAddr: 0x10000D0F8, symSize: 0x30 }
  - { offsetInCU: 0x2A900, offset: 0x2A900, size: 0x8, addend: 0x0, symName: '__ZNSt3__110unique_ptrINS_10__function6__baseIFvvEEENS_22__allocator_destructorINS_9allocatorINS1_6__funcINS_6__bindIZN7CoTrain11LogMannager4infoENS_10shared_ptrINS9_8LogEventEEEE3$_1JEEENS6_ISF_EES3_EEEEEEE5resetB7v160006EPSH_', symObjAddr: 0xC2E8, symBinAddr: 0x10000D128, symSize: 0x78 }
  - { offsetInCU: 0x2A944, offset: 0x2A944, size: 0x8, addend: 0x0, symName: '__ZNSt3__16__bindIZN7CoTrain11LogMannager4infoENS_10shared_ptrINS1_8LogEventEEEE3$_1JEED2Ev', symObjAddr: 0xC360, symBinAddr: 0x10000D1A0, symSize: 0x2C }
  - { offsetInCU: 0x2A971, offset: 0x2A971, size: 0x8, addend: 0x0, symName: '__ZN7CoTrain4TaskC2IZNS_11LogMannager4warnENSt3__110shared_ptrINS_8LogEventEEEE3$_2JEEEiOT_DpOT0_', symObjAddr: 0xC38C, symBinAddr: 0x10000D1CC, symSize: 0x84 }
  - { offsetInCU: 0x2A9C7, offset: 0x2A9C7, size: 0x8, addend: 0x0, symName: '__ZNSt3__18functionIFvvEEC1INS_6__bindIZN7CoTrain11LogMannager4warnENS_10shared_ptrINS5_8LogEventEEEE3$_2JEEEvEET_', symObjAddr: 0xC448, symBinAddr: 0x10000D288, symSize: 0x34 }
  - { offsetInCU: 0x2AA13, offset: 0x2AA13, size: 0x8, addend: 0x0, symName: '__ZNSt3__16__bindIZN7CoTrain11LogMannager4warnENS_10shared_ptrINS1_8LogEventEEEE3$_2JEED1Ev', symObjAddr: 0xC47C, symBinAddr: 0x10000D2BC, symSize: 0x2C }
  - { offsetInCU: 0x2AA40, offset: 0x2AA40, size: 0x8, addend: 0x0, symName: '__ZNSt3__16__bindIZN7CoTrain11LogMannager4warnENS_10shared_ptrINS1_8LogEventEEEE3$_2JEEC1B7v160006IS6_JEvEEOT_DpOT0_', symObjAddr: 0xC4A8, symBinAddr: 0x10000D2E8, symSize: 0x34 }
  - { offsetInCU: 0x2AA88, offset: 0x2AA88, size: 0x8, addend: 0x0, symName: '__ZNSt3__16__bindIZN7CoTrain11LogMannager4warnENS_10shared_ptrINS1_8LogEventEEEE3$_2JEEC2B7v160006IS6_JEvEEOT_DpOT0_', symObjAddr: 0xC4DC, symBinAddr: 0x10000D31C, symSize: 0x34 }
  - { offsetInCU: 0x2AAD0, offset: 0x2AAD0, size: 0x8, addend: 0x0, symName: '__ZZN7CoTrain11LogMannager4warnENSt3__110shared_ptrINS_8LogEventEEEEN3$_2C1EOS5_', symObjAddr: 0xC510, symBinAddr: 0x10000D350, symSize: 0x34 }
  - { offsetInCU: 0x2AB05, offset: 0x2AB05, size: 0x8, addend: 0x0, symName: '__ZZN7CoTrain11LogMannager4warnENSt3__110shared_ptrINS_8LogEventEEEEN3$_2C2EOS5_', symObjAddr: 0xC544, symBinAddr: 0x10000D384, symSize: 0x48 }
  - { offsetInCU: 0x2AB3A, offset: 0x2AB3A, size: 0x8, addend: 0x0, symName: '__ZNSt3__18functionIFvvEEC2INS_6__bindIZN7CoTrain11LogMannager4warnENS_10shared_ptrINS5_8LogEventEEEE3$_2JEEEvEET_', symObjAddr: 0xC58C, symBinAddr: 0x10000D3CC, symSize: 0x34 }
  - { offsetInCU: 0x2AB80, offset: 0x2AB80, size: 0x8, addend: 0x0, symName: '__ZNSt3__110__function12__value_funcIFvvEEC1B7v160006INS_6__bindIZN7CoTrain11LogMannager4warnENS_10shared_ptrINS6_8LogEventEEEE3$_2JEEEvEEOT_', symObjAddr: 0xC5C0, symBinAddr: 0x10000D400, symSize: 0x50 }
  - { offsetInCU: 0x2ABC3, offset: 0x2ABC3, size: 0x8, addend: 0x0, symName: '__ZNSt3__19allocatorINS_6__bindIZN7CoTrain11LogMannager4warnENS_10shared_ptrINS2_8LogEventEEEE3$_2JEEEEC1B7v160006Ev', symObjAddr: 0xC610, symBinAddr: 0x10000D450, symSize: 0x2C }
  - { offsetInCU: 0x2ABED, offset: 0x2ABED, size: 0x8, addend: 0x0, symName: '__ZNSt3__110__function12__value_funcIFvvEEC1B7v160006INS_6__bindIZN7CoTrain11LogMannager4warnENS_10shared_ptrINS6_8LogEventEEEE3$_2JEEENS_9allocatorISC_EEEEOT_RKT0_', symObjAddr: 0xC63C, symBinAddr: 0x10000D47C, symSize: 0x3C }
  - { offsetInCU: 0x2AC47, offset: 0x2AC47, size: 0x8, addend: 0x0, symName: '__ZNSt3__19allocatorINS_6__bindIZN7CoTrain11LogMannager4warnENS_10shared_ptrINS2_8LogEventEEEE3$_2JEEEEC2B7v160006Ev', symObjAddr: 0xC678, symBinAddr: 0x10000D4B8, symSize: 0x2C }
  - { offsetInCU: 0x2AC71, offset: 0x2AC71, size: 0x8, addend: 0x0, symName: '__ZNSt3__116__non_trivial_ifILb1ENS_9allocatorINS_6__bindIZN7CoTrain11LogMannager4warnENS_10shared_ptrINS3_8LogEventEEEE3$_2JEEEEEEC2B7v160006Ev', symObjAddr: 0xC6A4, symBinAddr: 0x10000D4E4, symSize: 0x14 }
  - { offsetInCU: 0x2AC9B, offset: 0x2AC9B, size: 0x8, addend: 0x0, symName: '__ZNSt3__110__function12__value_funcIFvvEEC2B7v160006INS_6__bindIZN7CoTrain11LogMannager4warnENS_10shared_ptrINS6_8LogEventEEEE3$_2JEEENS_9allocatorISC_EEEEOT_RKT0_', symObjAddr: 0xC6B8, symBinAddr: 0x10000D4F8, symSize: 0xF4 }
  - { offsetInCU: 0x2AD54, offset: 0x2AD54, size: 0x8, addend: 0x0, symName: '__ZNSt3__19allocatorINS_10__function6__funcINS_6__bindIZN7CoTrain11LogMannager4warnENS_10shared_ptrINS4_8LogEventEEEE3$_2JEEENS0_ISA_EEFvvEEEEC1B7v160006ISA_EERKNS0_IT_EE', symObjAddr: 0xC7C4, symBinAddr: 0x10000D604, symSize: 0x34 }
  - { offsetInCU: 0x2AD91, offset: 0x2AD91, size: 0x8, addend: 0x0, symName: '__ZNSt3__19allocatorINS_10__function6__funcINS_6__bindIZN7CoTrain11LogMannager4warnENS_10shared_ptrINS4_8LogEventEEEE3$_2JEEENS0_ISA_EEFvvEEEE8allocateB7v160006Em', symObjAddr: 0xC7F8, symBinAddr: 0x10000D638, symSize: 0x5C }
  - { offsetInCU: 0x2ADD8, offset: 0x2ADD8, size: 0x8, addend: 0x0, symName: '__ZNSt3__122__allocator_destructorINS_9allocatorINS_10__function6__funcINS_6__bindIZN7CoTrain11LogMannager4warnENS_10shared_ptrINS5_8LogEventEEEE3$_2JEEENS1_ISB_EEFvvEEEEEEC1B7v160006ERSF_m', symObjAddr: 0xC854, symBinAddr: 0x10000D694, symSize: 0x3C }
  - { offsetInCU: 0x2AEC1, offset: 0x2AEC1, size: 0x8, addend: 0x0, symName: '__ZNSt3__110unique_ptrINS_10__function6__baseIFvvEEENS_22__allocator_destructorINS_9allocatorINS1_6__funcINS_6__bindIZN7CoTrain11LogMannager4warnENS_10shared_ptrINS9_8LogEventEEEE3$_2JEEENS6_ISF_EES3_EEEEEEEC1B7v160006ILb1EvEEPSH_NS_16__dependent_typeINS_27__unique_ptr_deleter_sfinaeISJ_EEXT_EE20__good_rval_ref_typeE', symObjAddr: 0xC890, symBinAddr: 0x10000D6D0, symSize: 0x3C }
  - { offsetInCU: 0x2AF14, offset: 0x2AF14, size: 0x8, addend: 0x0, symName: '__ZNKSt3__110unique_ptrINS_10__function6__baseIFvvEEENS_22__allocator_destructorINS_9allocatorINS1_6__funcINS_6__bindIZN7CoTrain11LogMannager4warnENS_10shared_ptrINS9_8LogEventEEEE3$_2JEEENS6_ISF_EES3_EEEEEEE3getB7v160006Ev', symObjAddr: 0xC8CC, symBinAddr: 0x10000D70C, symSize: 0x28 }
  - { offsetInCU: 0x2AF3A, offset: 0x2AF3A, size: 0x8, addend: 0x0, symName: '__ZNSt3__110__function6__funcINS_6__bindIZN7CoTrain11LogMannager4warnENS_10shared_ptrINS3_8LogEventEEEE3$_2JEEENS_9allocatorIS9_EEFvvEEC1B7v160006EOS9_OSB_', symObjAddr: 0xC8F4, symBinAddr: 0x10000D734, symSize: 0x3C }
  - { offsetInCU: 0x2AF82, offset: 0x2AF82, size: 0x8, addend: 0x0, symName: '__ZNSt3__110unique_ptrINS_10__function6__baseIFvvEEENS_22__allocator_destructorINS_9allocatorINS1_6__funcINS_6__bindIZN7CoTrain11LogMannager4warnENS_10shared_ptrINS9_8LogEventEEEE3$_2JEEENS6_ISF_EES3_EEEEEEE7releaseB7v160006Ev', symObjAddr: 0xC930, symBinAddr: 0x10000D770, symSize: 0x44 }
  - { offsetInCU: 0x2AFB7, offset: 0x2AFB7, size: 0x8, addend: 0x0, symName: '__ZNSt3__110unique_ptrINS_10__function6__baseIFvvEEENS_22__allocator_destructorINS_9allocatorINS1_6__funcINS_6__bindIZN7CoTrain11LogMannager4warnENS_10shared_ptrINS9_8LogEventEEEE3$_2JEEENS6_ISF_EES3_EEEEEEED1B7v160006Ev', symObjAddr: 0xC974, symBinAddr: 0x10000D7B4, symSize: 0x2C }
  - { offsetInCU: 0x2AFE1, offset: 0x2AFE1, size: 0x8, addend: 0x0, symName: '__ZNSt3__19allocatorINS_10__function6__funcINS_6__bindIZN7CoTrain11LogMannager4warnENS_10shared_ptrINS4_8LogEventEEEE3$_2JEEENS0_ISA_EEFvvEEEEC2B7v160006ISA_EERKNS0_IT_EE', symObjAddr: 0xC9A0, symBinAddr: 0x10000D7E0, symSize: 0x30 }
  - { offsetInCU: 0x2B01E, offset: 0x2B01E, size: 0x8, addend: 0x0, symName: '__ZNSt3__116__non_trivial_ifILb1ENS_9allocatorINS_10__function6__funcINS_6__bindIZN7CoTrain11LogMannager4warnENS_10shared_ptrINS5_8LogEventEEEE3$_2JEEENS1_ISB_EEFvvEEEEEEC2B7v160006Ev', symObjAddr: 0xC9D0, symBinAddr: 0x10000D810, symSize: 0x14 }
  - { offsetInCU: 0x2B053, offset: 0x2B053, size: 0x8, addend: 0x0, symName: '__ZNSt3__116allocator_traitsINS_9allocatorINS_10__function6__funcINS_6__bindIZN7CoTrain11LogMannager4warnENS_10shared_ptrINS5_8LogEventEEEE3$_2JEEENS1_ISB_EEFvvEEEEEE8max_sizeB7v160006ISF_vEEmRKSF_', symObjAddr: 0xC9E4, symBinAddr: 0x10000D824, symSize: 0x24 }
  - { offsetInCU: 0x2B081, offset: 0x2B081, size: 0x8, addend: 0x0, symName: '__ZNKSt3__19allocatorINS_10__function6__funcINS_6__bindIZN7CoTrain11LogMannager4warnENS_10shared_ptrINS4_8LogEventEEEE3$_2JEEENS0_ISA_EEFvvEEEE8max_sizeB7v160006Ev', symObjAddr: 0xCA08, symBinAddr: 0x10000D848, symSize: 0x18 }
  - { offsetInCU: 0x2B0A7, offset: 0x2B0A7, size: 0x8, addend: 0x0, symName: '__ZNSt3__122__allocator_destructorINS_9allocatorINS_10__function6__funcINS_6__bindIZN7CoTrain11LogMannager4warnENS_10shared_ptrINS5_8LogEventEEEE3$_2JEEENS1_ISB_EEFvvEEEEEEC2B7v160006ERSF_m', symObjAddr: 0xCA20, symBinAddr: 0x10000D860, symSize: 0x2C }
  - { offsetInCU: 0x2B0EF, offset: 0x2B0EF, size: 0x8, addend: 0x0, symName: '__ZNSt3__110unique_ptrINS_10__function6__baseIFvvEEENS_22__allocator_destructorINS_9allocatorINS1_6__funcINS_6__bindIZN7CoTrain11LogMannager4warnENS_10shared_ptrINS9_8LogEventEEEE3$_2JEEENS6_ISF_EES3_EEEEEEEC2B7v160006ILb1EvEEPSH_NS_16__dependent_typeINS_27__unique_ptr_deleter_sfinaeISJ_EEXT_EE20__good_rval_ref_typeE', symObjAddr: 0xCA4C, symBinAddr: 0x10000D88C, symSize: 0x48 }
  - { offsetInCU: 0x2B142, offset: 0x2B142, size: 0x8, addend: 0x0, symName: '__ZNSt3__117__compressed_pairIPNS_10__function6__funcINS_6__bindIZN7CoTrain11LogMannager4warnENS_10shared_ptrINS4_8LogEventEEEE3$_2JEEENS_9allocatorISA_EEFvvEEENS_22__allocator_destructorINSB_ISE_EEEEEC1B7v160006IRSF_SI_EEOT_OT0_', symObjAddr: 0xCA94, symBinAddr: 0x10000D8D4, symSize: 0x3C }
  - { offsetInCU: 0x2B19C, offset: 0x2B19C, size: 0x8, addend: 0x0, symName: '__ZNSt3__117__compressed_pairIPNS_10__function6__funcINS_6__bindIZN7CoTrain11LogMannager4warnENS_10shared_ptrINS4_8LogEventEEEE3$_2JEEENS_9allocatorISA_EEFvvEEENS_22__allocator_destructorINSB_ISE_EEEEEC2B7v160006IRSF_SI_EEOT_OT0_', symObjAddr: 0xCAD0, symBinAddr: 0x10000D910, symSize: 0x48 }
  - { offsetInCU: 0x2B1F6, offset: 0x2B1F6, size: 0x8, addend: 0x0, symName: '__ZNSt3__122__compressed_pair_elemIPNS_10__function6__funcINS_6__bindIZN7CoTrain11LogMannager4warnENS_10shared_ptrINS4_8LogEventEEEE3$_2JEEENS_9allocatorISA_EEFvvEEELi0ELb0EEC2B7v160006IRSF_vEEOT_', symObjAddr: 0xCB18, symBinAddr: 0x10000D958, symSize: 0x24 }
  - { offsetInCU: 0x2B239, offset: 0x2B239, size: 0x8, addend: 0x0, symName: '__ZNSt3__122__compressed_pair_elemINS_22__allocator_destructorINS_9allocatorINS_10__function6__funcINS_6__bindIZN7CoTrain11LogMannager4warnENS_10shared_ptrINS6_8LogEventEEEE3$_2JEEENS2_ISC_EEFvvEEEEEEELi1ELb0EEC2B7v160006ISH_vEEOT_', symObjAddr: 0xCB3C, symBinAddr: 0x10000D97C, symSize: 0x24 }
  - { offsetInCU: 0x2B27C, offset: 0x2B27C, size: 0x8, addend: 0x0, symName: '__ZNKSt3__117__compressed_pairIPNS_10__function6__funcINS_6__bindIZN7CoTrain11LogMannager4warnENS_10shared_ptrINS4_8LogEventEEEE3$_2JEEENS_9allocatorISA_EEFvvEEENS_22__allocator_destructorINSB_ISE_EEEEE5firstB7v160006Ev', symObjAddr: 0xCB60, symBinAddr: 0x10000D9A0, symSize: 0x24 }
  - { offsetInCU: 0x2B2A2, offset: 0x2B2A2, size: 0x8, addend: 0x0, symName: '__ZNKSt3__122__compressed_pair_elemIPNS_10__function6__funcINS_6__bindIZN7CoTrain11LogMannager4warnENS_10shared_ptrINS4_8LogEventEEEE3$_2JEEENS_9allocatorISA_EEFvvEEELi0ELb0EE5__getB7v160006Ev', symObjAddr: 0xCB84, symBinAddr: 0x10000D9C4, symSize: 0x14 }
  - { offsetInCU: 0x2B2C8, offset: 0x2B2C8, size: 0x8, addend: 0x0, symName: '__ZNSt3__110__function6__funcINS_6__bindIZN7CoTrain11LogMannager4warnENS_10shared_ptrINS3_8LogEventEEEE3$_2JEEENS_9allocatorIS9_EEFvvEEC2B7v160006EOS9_OSB_', symObjAddr: 0xCB98, symBinAddr: 0x10000D9D8, symSize: 0x88 }
  - { offsetInCU: 0x2B310, offset: 0x2B310, size: 0x8, addend: 0x0, symName: '__ZNSt3__110__function12__alloc_funcINS_6__bindIZN7CoTrain11LogMannager4warnENS_10shared_ptrINS3_8LogEventEEEE3$_2JEEENS_9allocatorIS9_EEFvvEEC1B7v160006EOS9_OSB_', symObjAddr: 0xCC20, symBinAddr: 0x10000DA60, symSize: 0x3C }
  - { offsetInCU: 0x2B358, offset: 0x2B358, size: 0x8, addend: 0x0, symName: '__ZNSt3__110__function6__funcINS_6__bindIZN7CoTrain11LogMannager4warnENS_10shared_ptrINS3_8LogEventEEEE3$_2JEEENS_9allocatorIS9_EEFvvEED1Ev', symObjAddr: 0xCC5C, symBinAddr: 0x10000DA9C, symSize: 0x2C }
  - { offsetInCU: 0x2B385, offset: 0x2B385, size: 0x8, addend: 0x0, symName: '__ZNSt3__110__function6__funcINS_6__bindIZN7CoTrain11LogMannager4warnENS_10shared_ptrINS3_8LogEventEEEE3$_2JEEENS_9allocatorIS9_EEFvvEED0Ev', symObjAddr: 0xCC88, symBinAddr: 0x10000DAC8, symSize: 0x30 }
  - { offsetInCU: 0x2B3B2, offset: 0x2B3B2, size: 0x8, addend: 0x0, symName: '__ZNKSt3__110__function6__funcINS_6__bindIZN7CoTrain11LogMannager4warnENS_10shared_ptrINS3_8LogEventEEEE3$_2JEEENS_9allocatorIS9_EEFvvEE7__cloneEv', symObjAddr: 0xCCB8, symBinAddr: 0x10000DAF8, symSize: 0xFC }
  - { offsetInCU: 0x2B404, offset: 0x2B404, size: 0x8, addend: 0x0, symName: '__ZNKSt3__110__function6__funcINS_6__bindIZN7CoTrain11LogMannager4warnENS_10shared_ptrINS3_8LogEventEEEE3$_2JEEENS_9allocatorIS9_EEFvvEE7__cloneEPNS0_6__baseISC_EE', symObjAddr: 0xCDB4, symBinAddr: 0x10000DBF4, symSize: 0x58 }
  - { offsetInCU: 0x2B43B, offset: 0x2B43B, size: 0x8, addend: 0x0, symName: '__ZNSt3__110__function6__funcINS_6__bindIZN7CoTrain11LogMannager4warnENS_10shared_ptrINS3_8LogEventEEEE3$_2JEEENS_9allocatorIS9_EEFvvEE7destroyEv', symObjAddr: 0xCE0C, symBinAddr: 0x10000DC4C, symSize: 0x28 }
  - { offsetInCU: 0x2B463, offset: 0x2B463, size: 0x8, addend: 0x0, symName: '__ZNSt3__110__function6__funcINS_6__bindIZN7CoTrain11LogMannager4warnENS_10shared_ptrINS3_8LogEventEEEE3$_2JEEENS_9allocatorIS9_EEFvvEE18destroy_deallocateEv', symObjAddr: 0xCE34, symBinAddr: 0x10000DC74, symSize: 0x58 }
  - { offsetInCU: 0x2B4A6, offset: 0x2B4A6, size: 0x8, addend: 0x0, symName: '__ZNSt3__110__function6__funcINS_6__bindIZN7CoTrain11LogMannager4warnENS_10shared_ptrINS3_8LogEventEEEE3$_2JEEENS_9allocatorIS9_EEFvvEEclEv', symObjAddr: 0xCE8C, symBinAddr: 0x10000DCCC, symSize: 0x28 }
  - { offsetInCU: 0x2B4CE, offset: 0x2B4CE, size: 0x8, addend: 0x0, symName: '__ZNKSt3__110__function6__funcINS_6__bindIZN7CoTrain11LogMannager4warnENS_10shared_ptrINS3_8LogEventEEEE3$_2JEEENS_9allocatorIS9_EEFvvEE6targetERKSt9type_info', symObjAddr: 0xCEB4, symBinAddr: 0x10000DCF4, symSize: 0x60 }
  - { offsetInCU: 0x2B505, offset: 0x2B505, size: 0x8, addend: 0x0, symName: '__ZNKSt3__110__function6__funcINS_6__bindIZN7CoTrain11LogMannager4warnENS_10shared_ptrINS3_8LogEventEEEE3$_2JEEENS_9allocatorIS9_EEFvvEE11target_typeEv', symObjAddr: 0xCF14, symBinAddr: 0x10000DD54, symSize: 0x18 }
  - { offsetInCU: 0x2B52D, offset: 0x2B52D, size: 0x8, addend: 0x0, symName: '__ZNSt3__110__function12__alloc_funcINS_6__bindIZN7CoTrain11LogMannager4warnENS_10shared_ptrINS3_8LogEventEEEE3$_2JEEENS_9allocatorIS9_EEFvvEEC2B7v160006EOS9_OSB_', symObjAddr: 0xCF2C, symBinAddr: 0x10000DD6C, symSize: 0x5C }
  - { offsetInCU: 0x2B575, offset: 0x2B575, size: 0x8, addend: 0x0, symName: '__ZNSt3__117__compressed_pairINS_6__bindIZN7CoTrain11LogMannager4warnENS_10shared_ptrINS2_8LogEventEEEE3$_2JEEENS_9allocatorIS8_EEEC1B7v160006IJOS8_EJOSA_EEENS_21piecewise_construct_tENS_5tupleIJDpT_EEENSG_IJDpT0_EEE', symObjAddr: 0xCFE0, symBinAddr: 0x10000DE20, symSize: 0x3C }
  - { offsetInCU: 0x2B5E2, offset: 0x2B5E2, size: 0x8, addend: 0x0, symName: '__ZNSt3__15tupleIJONS_6__bindIZN7CoTrain11LogMannager4warnENS_10shared_ptrINS2_8LogEventEEEE3$_2JEEEEEC1B7v160006IJS8_ELi0EEEDpOT_', symObjAddr: 0xD01C, symBinAddr: 0x10000DE5C, symSize: 0x34 }
  - { offsetInCU: 0x2B62C, offset: 0x2B62C, size: 0x8, addend: 0x0, symName: '__ZNSt3__15tupleIJONS_6__bindIZN7CoTrain11LogMannager4warnENS_10shared_ptrINS2_8LogEventEEEE3$_2JEEEEEC2B7v160006IJS8_ELi0EEEDpOT_', symObjAddr: 0xD050, symBinAddr: 0x10000DE90, symSize: 0x34 }
  - { offsetInCU: 0x2B676, offset: 0x2B676, size: 0x8, addend: 0x0, symName: '__ZNSt3__112__tuple_implINS_15__tuple_indicesIJLm0EEEEJONS_6__bindIZN7CoTrain11LogMannager4warnENS_10shared_ptrINS4_8LogEventEEEE3$_2JEEEEEC1B7v160006IJLm0EEJSB_EJEJEJSA_EEENS1_IJXspT_EEEENS_13__tuple_typesIJDpT0_EEENS1_IJXspT1_EEEENSF_IJDpT2_EEEDpOT3_', symObjAddr: 0xD084, symBinAddr: 0x10000DEC4, symSize: 0x34 }
  - { offsetInCU: 0x2B70B, offset: 0x2B70B, size: 0x8, addend: 0x0, symName: '__ZNSt3__112__tuple_implINS_15__tuple_indicesIJLm0EEEEJONS_6__bindIZN7CoTrain11LogMannager4warnENS_10shared_ptrINS4_8LogEventEEEE3$_2JEEEEEC2B7v160006IJLm0EEJSB_EJEJEJSA_EEENS1_IJXspT_EEEENS_13__tuple_typesIJDpT0_EEENS1_IJXspT1_EEEENSF_IJDpT2_EEEDpOT3_', symObjAddr: 0xD0B8, symBinAddr: 0x10000DEF8, symSize: 0x34 }
  - { offsetInCU: 0x2B7A0, offset: 0x2B7A0, size: 0x8, addend: 0x0, symName: '__ZNSt3__112__tuple_leafILm0EONS_6__bindIZN7CoTrain11LogMannager4warnENS_10shared_ptrINS2_8LogEventEEEE3$_2JEEELb0EEC2B7v160006IS8_vEEOT_', symObjAddr: 0xD0EC, symBinAddr: 0x10000DF2C, symSize: 0x20 }
  - { offsetInCU: 0x2B7E3, offset: 0x2B7E3, size: 0x8, addend: 0x0, symName: '__ZNSt3__15tupleIJONS_9allocatorINS_6__bindIZN7CoTrain11LogMannager4warnENS_10shared_ptrINS3_8LogEventEEEE3$_2JEEEEEEEC1B7v160006IJSA_ELi0EEEDpOT_', symObjAddr: 0xD10C, symBinAddr: 0x10000DF4C, symSize: 0x34 }
  - { offsetInCU: 0x2B82D, offset: 0x2B82D, size: 0x8, addend: 0x0, symName: '__ZNSt3__15tupleIJONS_9allocatorINS_6__bindIZN7CoTrain11LogMannager4warnENS_10shared_ptrINS3_8LogEventEEEE3$_2JEEEEEEEC2B7v160006IJSA_ELi0EEEDpOT_', symObjAddr: 0xD140, symBinAddr: 0x10000DF80, symSize: 0x34 }
  - { offsetInCU: 0x2B877, offset: 0x2B877, size: 0x8, addend: 0x0, symName: '__ZNSt3__112__tuple_implINS_15__tuple_indicesIJLm0EEEEJONS_9allocatorINS_6__bindIZN7CoTrain11LogMannager4warnENS_10shared_ptrINS5_8LogEventEEEE3$_2JEEEEEEEC1B7v160006IJLm0EEJSD_EJEJEJSC_EEENS1_IJXspT_EEEENS_13__tuple_typesIJDpT0_EEENS1_IJXspT1_EEEENSH_IJDpT2_EEEDpOT3_', symObjAddr: 0xD174, symBinAddr: 0x10000DFB4, symSize: 0x34 }
  - { offsetInCU: 0x2B90C, offset: 0x2B90C, size: 0x8, addend: 0x0, symName: '__ZNSt3__112__tuple_implINS_15__tuple_indicesIJLm0EEEEJONS_9allocatorINS_6__bindIZN7CoTrain11LogMannager4warnENS_10shared_ptrINS5_8LogEventEEEE3$_2JEEEEEEEC2B7v160006IJLm0EEJSD_EJEJEJSC_EEENS1_IJXspT_EEEENS_13__tuple_typesIJDpT0_EEENS1_IJXspT1_EEEENSH_IJDpT2_EEEDpOT3_', symObjAddr: 0xD1A8, symBinAddr: 0x10000DFE8, symSize: 0x34 }
  - { offsetInCU: 0x2B9A1, offset: 0x2B9A1, size: 0x8, addend: 0x0, symName: '__ZNSt3__112__tuple_leafILm0EONS_9allocatorINS_6__bindIZN7CoTrain11LogMannager4warnENS_10shared_ptrINS3_8LogEventEEEE3$_2JEEEEELb0EEC2B7v160006ISA_vEEOT_', symObjAddr: 0xD1DC, symBinAddr: 0x10000E01C, symSize: 0x20 }
  - { offsetInCU: 0x2B9E4, offset: 0x2B9E4, size: 0x8, addend: 0x0, symName: '__ZNSt3__117__compressed_pairINS_6__bindIZN7CoTrain11LogMannager4warnENS_10shared_ptrINS2_8LogEventEEEE3$_2JEEENS_9allocatorIS8_EEEC2B7v160006IJOS8_EJOSA_EEENS_21piecewise_construct_tENS_5tupleIJDpT_EEENSG_IJDpT0_EEE', symObjAddr: 0xD1FC, symBinAddr: 0x10000E03C, symSize: 0x7C }
  - { offsetInCU: 0x2BA51, offset: 0x2BA51, size: 0x8, addend: 0x0, symName: '__ZNSt3__122__compressed_pair_elemINS_6__bindIZN7CoTrain11LogMannager4warnENS_10shared_ptrINS2_8LogEventEEEE3$_2JEEELi0ELb0EEC2B7v160006IJOS8_EJLm0EEEENS_21piecewise_construct_tENS_5tupleIJDpT_EEENS_15__tuple_indicesIJXspT0_EEEE', symObjAddr: 0xD278, symBinAddr: 0x10000E0B8, symSize: 0x44 }
  - { offsetInCU: 0x2BAB5, offset: 0x2BAB5, size: 0x8, addend: 0x0, symName: '__ZNSt3__122__compressed_pair_elemINS_9allocatorINS_6__bindIZN7CoTrain11LogMannager4warnENS_10shared_ptrINS3_8LogEventEEEE3$_2JEEEEELi1ELb1EEC2B7v160006IJOSA_EJLm0EEEENS_21piecewise_construct_tENS_5tupleIJDpT_EEENS_15__tuple_indicesIJXspT0_EEEE', symObjAddr: 0xD2BC, symBinAddr: 0x10000E0FC, symSize: 0x38 }
  - { offsetInCU: 0x2BB19, offset: 0x2BB19, size: 0x8, addend: 0x0, symName: '__ZNSt3__122__compressed_pair_elemINS_6__bindIZN7CoTrain11LogMannager4warnENS_10shared_ptrINS2_8LogEventEEEE3$_2JEEELi0ELb0EED2Ev', symObjAddr: 0xD2F4, symBinAddr: 0x10000E134, symSize: 0x2C }
  - { offsetInCU: 0x2BB45, offset: 0x2BB45, size: 0x8, addend: 0x0, symName: '__ZNSt3__16__bindIZN7CoTrain11LogMannager4warnENS_10shared_ptrINS1_8LogEventEEEE3$_2JEEC1EOS7_', symObjAddr: 0xD344, symBinAddr: 0x10000E184, symSize: 0x34 }
  - { offsetInCU: 0x2BB7B, offset: 0x2BB7B, size: 0x8, addend: 0x0, symName: '__ZNSt3__112__tuple_leafILm0EONS_6__bindIZN7CoTrain11LogMannager4warnENS_10shared_ptrINS2_8LogEventEEEE3$_2JEEELb0EE3getB7v160006Ev', symObjAddr: 0xD378, symBinAddr: 0x10000E1B8, symSize: 0x18 }
  - { offsetInCU: 0x2BBA1, offset: 0x2BBA1, size: 0x8, addend: 0x0, symName: '__ZNSt3__16__bindIZN7CoTrain11LogMannager4warnENS_10shared_ptrINS1_8LogEventEEEE3$_2JEEC2EOS7_', symObjAddr: 0xD390, symBinAddr: 0x10000E1D0, symSize: 0x34 }
  - { offsetInCU: 0x2BBD7, offset: 0x2BBD7, size: 0x8, addend: 0x0, symName: '__ZNSt3__112__tuple_leafILm0EONS_9allocatorINS_6__bindIZN7CoTrain11LogMannager4warnENS_10shared_ptrINS3_8LogEventEEEE3$_2JEEEEELb0EE3getB7v160006Ev', symObjAddr: 0xD3E8, symBinAddr: 0x10000E228, symSize: 0x18 }
  - { offsetInCU: 0x2BBFD, offset: 0x2BBFD, size: 0x8, addend: 0x0, symName: '__ZNSt3__110__function6__funcINS_6__bindIZN7CoTrain11LogMannager4warnENS_10shared_ptrINS3_8LogEventEEEE3$_2JEEENS_9allocatorIS9_EEFvvEED2Ev', symObjAddr: 0xD400, symBinAddr: 0x10000E240, symSize: 0x48 }
  - { offsetInCU: 0x2BC2A, offset: 0x2BC2A, size: 0x8, addend: 0x0, symName: '__ZNSt3__110__function12__alloc_funcINS_6__bindIZN7CoTrain11LogMannager4warnENS_10shared_ptrINS3_8LogEventEEEE3$_2JEEENS_9allocatorIS9_EEFvvEED1Ev', symObjAddr: 0xD448, symBinAddr: 0x10000E288, symSize: 0x2C }
  - { offsetInCU: 0x2BC56, offset: 0x2BC56, size: 0x8, addend: 0x0, symName: '__ZNSt3__110__function12__alloc_funcINS_6__bindIZN7CoTrain11LogMannager4warnENS_10shared_ptrINS3_8LogEventEEEE3$_2JEEENS_9allocatorIS9_EEFvvEED2Ev', symObjAddr: 0xD474, symBinAddr: 0x10000E2B4, symSize: 0x2C }
  - { offsetInCU: 0x2BC82, offset: 0x2BC82, size: 0x8, addend: 0x0, symName: '__ZNSt3__117__compressed_pairINS_6__bindIZN7CoTrain11LogMannager4warnENS_10shared_ptrINS2_8LogEventEEEE3$_2JEEENS_9allocatorIS8_EEED1Ev', symObjAddr: 0xD4A0, symBinAddr: 0x10000E2E0, symSize: 0x2C }
  - { offsetInCU: 0x2BCAE, offset: 0x2BCAE, size: 0x8, addend: 0x0, symName: '__ZNSt3__117__compressed_pairINS_6__bindIZN7CoTrain11LogMannager4warnENS_10shared_ptrINS2_8LogEventEEEE3$_2JEEENS_9allocatorIS8_EEED2Ev', symObjAddr: 0xD4CC, symBinAddr: 0x10000E30C, symSize: 0x2C }
  - { offsetInCU: 0x2BCDA, offset: 0x2BCDA, size: 0x8, addend: 0x0, symName: '__ZNKSt3__110__function12__alloc_funcINS_6__bindIZN7CoTrain11LogMannager4warnENS_10shared_ptrINS3_8LogEventEEEE3$_2JEEENS_9allocatorIS9_EEFvvEE15__get_allocatorB7v160006Ev', symObjAddr: 0xD4F8, symBinAddr: 0x10000E338, symSize: 0x24 }
  - { offsetInCU: 0x2BD2E, offset: 0x2BD2E, size: 0x8, addend: 0x0, symName: '__ZNSt3__110unique_ptrINS_10__function6__funcINS_6__bindIZN7CoTrain11LogMannager4warnENS_10shared_ptrINS4_8LogEventEEEE3$_2JEEENS_9allocatorISA_EEFvvEEENS_22__allocator_destructorINSB_ISE_EEEEEC1B7v160006ILb1EvEEPSE_NS_16__dependent_typeINS_27__unique_ptr_deleter_sfinaeISH_EEXT_EE20__good_rval_ref_typeE', symObjAddr: 0xD51C, symBinAddr: 0x10000E35C, symSize: 0x3C }
  - { offsetInCU: 0x2BD81, offset: 0x2BD81, size: 0x8, addend: 0x0, symName: '__ZNKSt3__110unique_ptrINS_10__function6__funcINS_6__bindIZN7CoTrain11LogMannager4warnENS_10shared_ptrINS4_8LogEventEEEE3$_2JEEENS_9allocatorISA_EEFvvEEENS_22__allocator_destructorINSB_ISE_EEEEE3getB7v160006Ev', symObjAddr: 0xD558, symBinAddr: 0x10000E398, symSize: 0x28 }
  - { offsetInCU: 0x2BDA7, offset: 0x2BDA7, size: 0x8, addend: 0x0, symName: '__ZNKSt3__110__function12__alloc_funcINS_6__bindIZN7CoTrain11LogMannager4warnENS_10shared_ptrINS3_8LogEventEEEE3$_2JEEENS_9allocatorIS9_EEFvvEE8__targetB7v160006Ev', symObjAddr: 0xD580, symBinAddr: 0x10000E3C0, symSize: 0x24 }
  - { offsetInCU: 0x2BDD3, offset: 0x2BDD3, size: 0x8, addend: 0x0, symName: '__ZNSt3__19allocatorINS_6__bindIZN7CoTrain11LogMannager4warnENS_10shared_ptrINS2_8LogEventEEEE3$_2JEEEEC1B7v160006INS_10__function6__funcIS8_S9_FvvEEEEERKNS0_IT_EE', symObjAddr: 0xD5A4, symBinAddr: 0x10000E3E4, symSize: 0x34 }
  - { offsetInCU: 0x2BE10, offset: 0x2BE10, size: 0x8, addend: 0x0, symName: '__ZNSt3__110__function6__funcINS_6__bindIZN7CoTrain11LogMannager4warnENS_10shared_ptrINS3_8LogEventEEEE3$_2JEEENS_9allocatorIS9_EEFvvEEC1B7v160006ERKS9_OSB_', symObjAddr: 0xD5D8, symBinAddr: 0x10000E418, symSize: 0x3C }
  - { offsetInCU: 0x2BE58, offset: 0x2BE58, size: 0x8, addend: 0x0, symName: '__ZNSt3__110unique_ptrINS_10__function6__funcINS_6__bindIZN7CoTrain11LogMannager4warnENS_10shared_ptrINS4_8LogEventEEEE3$_2JEEENS_9allocatorISA_EEFvvEEENS_22__allocator_destructorINSB_ISE_EEEEE7releaseB7v160006Ev', symObjAddr: 0xD614, symBinAddr: 0x10000E454, symSize: 0x44 }
  - { offsetInCU: 0x2BE8D, offset: 0x2BE8D, size: 0x8, addend: 0x0, symName: '__ZNSt3__110unique_ptrINS_10__function6__funcINS_6__bindIZN7CoTrain11LogMannager4warnENS_10shared_ptrINS4_8LogEventEEEE3$_2JEEENS_9allocatorISA_EEFvvEEENS_22__allocator_destructorINSB_ISE_EEEEED1B7v160006Ev', symObjAddr: 0xD658, symBinAddr: 0x10000E498, symSize: 0x2C }
  - { offsetInCU: 0x2BEB7, offset: 0x2BEB7, size: 0x8, addend: 0x0, symName: '__ZNKSt3__117__compressed_pairINS_6__bindIZN7CoTrain11LogMannager4warnENS_10shared_ptrINS2_8LogEventEEEE3$_2JEEENS_9allocatorIS8_EEE6secondB7v160006Ev', symObjAddr: 0xD684, symBinAddr: 0x10000E4C4, symSize: 0x24 }
  - { offsetInCU: 0x2BEDD, offset: 0x2BEDD, size: 0x8, addend: 0x0, symName: '__ZNKSt3__122__compressed_pair_elemINS_9allocatorINS_6__bindIZN7CoTrain11LogMannager4warnENS_10shared_ptrINS3_8LogEventEEEE3$_2JEEEEELi1ELb1EE5__getB7v160006Ev', symObjAddr: 0xD6A8, symBinAddr: 0x10000E4E8, symSize: 0x14 }
  - { offsetInCU: 0x2BF03, offset: 0x2BF03, size: 0x8, addend: 0x0, symName: '__ZNSt3__110unique_ptrINS_10__function6__funcINS_6__bindIZN7CoTrain11LogMannager4warnENS_10shared_ptrINS4_8LogEventEEEE3$_2JEEENS_9allocatorISA_EEFvvEEENS_22__allocator_destructorINSB_ISE_EEEEEC2B7v160006ILb1EvEEPSE_NS_16__dependent_typeINS_27__unique_ptr_deleter_sfinaeISH_EEXT_EE20__good_rval_ref_typeE', symObjAddr: 0xD6BC, symBinAddr: 0x10000E4FC, symSize: 0x48 }
  - { offsetInCU: 0x2BF56, offset: 0x2BF56, size: 0x8, addend: 0x0, symName: '__ZNKSt3__117__compressed_pairINS_6__bindIZN7CoTrain11LogMannager4warnENS_10shared_ptrINS2_8LogEventEEEE3$_2JEEENS_9allocatorIS8_EEE5firstB7v160006Ev', symObjAddr: 0xD704, symBinAddr: 0x10000E544, symSize: 0x24 }
  - { offsetInCU: 0x2BF7C, offset: 0x2BF7C, size: 0x8, addend: 0x0, symName: '__ZNKSt3__122__compressed_pair_elemINS_6__bindIZN7CoTrain11LogMannager4warnENS_10shared_ptrINS2_8LogEventEEEE3$_2JEEELi0ELb0EE5__getB7v160006Ev', symObjAddr: 0xD728, symBinAddr: 0x10000E568, symSize: 0x14 }
  - { offsetInCU: 0x2BFA2, offset: 0x2BFA2, size: 0x8, addend: 0x0, symName: '__ZNSt3__19allocatorINS_6__bindIZN7CoTrain11LogMannager4warnENS_10shared_ptrINS2_8LogEventEEEE3$_2JEEEEC2B7v160006INS_10__function6__funcIS8_S9_FvvEEEEERKNS0_IT_EE', symObjAddr: 0xD73C, symBinAddr: 0x10000E57C, symSize: 0x30 }
  - { offsetInCU: 0x2BFDF, offset: 0x2BFDF, size: 0x8, addend: 0x0, symName: '__ZNSt3__110__function6__funcINS_6__bindIZN7CoTrain11LogMannager4warnENS_10shared_ptrINS3_8LogEventEEEE3$_2JEEENS_9allocatorIS9_EEFvvEEC2B7v160006ERKS9_OSB_', symObjAddr: 0xD76C, symBinAddr: 0x10000E5AC, symSize: 0x88 }
  - { offsetInCU: 0x2C027, offset: 0x2C027, size: 0x8, addend: 0x0, symName: '__ZNSt3__110__function12__alloc_funcINS_6__bindIZN7CoTrain11LogMannager4warnENS_10shared_ptrINS3_8LogEventEEEE3$_2JEEENS_9allocatorIS9_EEFvvEEC1B7v160006ERKS9_OSB_', symObjAddr: 0xD7F4, symBinAddr: 0x10000E634, symSize: 0x3C }
  - { offsetInCU: 0x2C06F, offset: 0x2C06F, size: 0x8, addend: 0x0, symName: '__ZNSt3__110__function12__alloc_funcINS_6__bindIZN7CoTrain11LogMannager4warnENS_10shared_ptrINS3_8LogEventEEEE3$_2JEEENS_9allocatorIS9_EEFvvEEC2B7v160006ERKS9_OSB_', symObjAddr: 0xD830, symBinAddr: 0x10000E670, symSize: 0x5C }
  - { offsetInCU: 0x2C0B7, offset: 0x2C0B7, size: 0x8, addend: 0x0, symName: '__ZNSt3__117__compressed_pairINS_6__bindIZN7CoTrain11LogMannager4warnENS_10shared_ptrINS2_8LogEventEEEE3$_2JEEENS_9allocatorIS8_EEEC1B7v160006IJRKS8_EJOSA_EEENS_21piecewise_construct_tENS_5tupleIJDpT_EEENSH_IJDpT0_EEE', symObjAddr: 0xD8B8, symBinAddr: 0x10000E6F8, symSize: 0x3C }
  - { offsetInCU: 0x2C124, offset: 0x2C124, size: 0x8, addend: 0x0, symName: '__ZNSt3__15tupleIJRKNS_6__bindIZN7CoTrain11LogMannager4warnENS_10shared_ptrINS2_8LogEventEEEE3$_2JEEEEEC1B7v160006INS_4_AndELi0EEESA_', symObjAddr: 0xD8F4, symBinAddr: 0x10000E734, symSize: 0x34 }
  - { offsetInCU: 0x2C16C, offset: 0x2C16C, size: 0x8, addend: 0x0, symName: '__ZNSt3__15tupleIJRKNS_6__bindIZN7CoTrain11LogMannager4warnENS_10shared_ptrINS2_8LogEventEEEE3$_2JEEEEEC2B7v160006INS_4_AndELi0EEESA_', symObjAddr: 0xD928, symBinAddr: 0x10000E768, symSize: 0x34 }
  - { offsetInCU: 0x2C1B4, offset: 0x2C1B4, size: 0x8, addend: 0x0, symName: '__ZNSt3__112__tuple_implINS_15__tuple_indicesIJLm0EEEEJRKNS_6__bindIZN7CoTrain11LogMannager4warnENS_10shared_ptrINS4_8LogEventEEEE3$_2JEEEEEC1B7v160006IJLm0EEJSC_EJEJEJSC_EEENS1_IJXspT_EEEENS_13__tuple_typesIJDpT0_EEENS1_IJXspT1_EEEENSG_IJDpT2_EEEDpOT3_', symObjAddr: 0xD95C, symBinAddr: 0x10000E79C, symSize: 0x34 }
  - { offsetInCU: 0x2C249, offset: 0x2C249, size: 0x8, addend: 0x0, symName: '__ZNSt3__112__tuple_implINS_15__tuple_indicesIJLm0EEEEJRKNS_6__bindIZN7CoTrain11LogMannager4warnENS_10shared_ptrINS4_8LogEventEEEE3$_2JEEEEEC2B7v160006IJLm0EEJSC_EJEJEJSC_EEENS1_IJXspT_EEEENS_13__tuple_typesIJDpT0_EEENS1_IJXspT1_EEEENSG_IJDpT2_EEEDpOT3_', symObjAddr: 0xD990, symBinAddr: 0x10000E7D0, symSize: 0x34 }
  - { offsetInCU: 0x2C2DE, offset: 0x2C2DE, size: 0x8, addend: 0x0, symName: '__ZNSt3__112__tuple_leafILm0ERKNS_6__bindIZN7CoTrain11LogMannager4warnENS_10shared_ptrINS2_8LogEventEEEE3$_2JEEELb0EEC2B7v160006ISA_vEEOT_', symObjAddr: 0xD9C4, symBinAddr: 0x10000E804, symSize: 0x20 }
  - { offsetInCU: 0x2C321, offset: 0x2C321, size: 0x8, addend: 0x0, symName: '__ZNSt3__117__compressed_pairINS_6__bindIZN7CoTrain11LogMannager4warnENS_10shared_ptrINS2_8LogEventEEEE3$_2JEEENS_9allocatorIS8_EEEC2B7v160006IJRKS8_EJOSA_EEENS_21piecewise_construct_tENS_5tupleIJDpT_EEENSH_IJDpT0_EEE', symObjAddr: 0xD9E4, symBinAddr: 0x10000E824, symSize: 0x54 }
  - { offsetInCU: 0x2C38E, offset: 0x2C38E, size: 0x8, addend: 0x0, symName: '__ZNSt3__122__compressed_pair_elemINS_6__bindIZN7CoTrain11LogMannager4warnENS_10shared_ptrINS2_8LogEventEEEE3$_2JEEELi0ELb0EEC2B7v160006IJRKS8_EJLm0EEEENS_21piecewise_construct_tENS_5tupleIJDpT_EEENS_15__tuple_indicesIJXspT0_EEEE', symObjAddr: 0xDA38, symBinAddr: 0x10000E878, symSize: 0x44 }
  - { offsetInCU: 0x2C3F2, offset: 0x2C3F2, size: 0x8, addend: 0x0, symName: '__ZNSt3__16__bindIZN7CoTrain11LogMannager4warnENS_10shared_ptrINS1_8LogEventEEEE3$_2JEEC1ERKS7_', symObjAddr: 0xDAA0, symBinAddr: 0x10000E8E0, symSize: 0x34 }
  - { offsetInCU: 0x2C428, offset: 0x2C428, size: 0x8, addend: 0x0, symName: '__ZNSt3__112__tuple_leafILm0ERKNS_6__bindIZN7CoTrain11LogMannager4warnENS_10shared_ptrINS2_8LogEventEEEE3$_2JEEELb0EE3getB7v160006Ev', symObjAddr: 0xDAD4, symBinAddr: 0x10000E914, symSize: 0x18 }
  - { offsetInCU: 0x2C44E, offset: 0x2C44E, size: 0x8, addend: 0x0, symName: '__ZNSt3__16__bindIZN7CoTrain11LogMannager4warnENS_10shared_ptrINS1_8LogEventEEEE3$_2JEEC2ERKS7_', symObjAddr: 0xDAEC, symBinAddr: 0x10000E92C, symSize: 0x34 }
  - { offsetInCU: 0x2C48F, offset: 0x2C48F, size: 0x8, addend: 0x0, symName: '__ZZN7CoTrain11LogMannager4warnENSt3__110shared_ptrINS_8LogEventEEEEN3$_2C1ERKS5_', symObjAddr: 0xDB20, symBinAddr: 0x10000E960, symSize: 0x34 }
  - { offsetInCU: 0x2C4C4, offset: 0x2C4C4, size: 0x8, addend: 0x0, symName: '__ZZN7CoTrain11LogMannager4warnENSt3__110shared_ptrINS_8LogEventEEEEN3$_2C2ERKS5_', symObjAddr: 0xDB54, symBinAddr: 0x10000E994, symSize: 0x48 }
  - { offsetInCU: 0x2C4F9, offset: 0x2C4F9, size: 0x8, addend: 0x0, symName: '__ZNSt3__117__compressed_pairIPNS_10__function6__funcINS_6__bindIZN7CoTrain11LogMannager4warnENS_10shared_ptrINS4_8LogEventEEEE3$_2JEEENS_9allocatorISA_EEFvvEEENS_22__allocator_destructorINSB_ISE_EEEEE5firstB7v160006Ev', symObjAddr: 0xDB9C, symBinAddr: 0x10000E9DC, symSize: 0x24 }
  - { offsetInCU: 0x2C51F, offset: 0x2C51F, size: 0x8, addend: 0x0, symName: '__ZNSt3__122__compressed_pair_elemIPNS_10__function6__funcINS_6__bindIZN7CoTrain11LogMannager4warnENS_10shared_ptrINS4_8LogEventEEEE3$_2JEEENS_9allocatorISA_EEFvvEEELi0ELb0EE5__getB7v160006Ev', symObjAddr: 0xDBC0, symBinAddr: 0x10000EA00, symSize: 0x14 }
  - { offsetInCU: 0x2C545, offset: 0x2C545, size: 0x8, addend: 0x0, symName: '__ZNSt3__110unique_ptrINS_10__function6__funcINS_6__bindIZN7CoTrain11LogMannager4warnENS_10shared_ptrINS4_8LogEventEEEE3$_2JEEENS_9allocatorISA_EEFvvEEENS_22__allocator_destructorINSB_ISE_EEEEED2B7v160006Ev', symObjAddr: 0xDBD4, symBinAddr: 0x10000EA14, symSize: 0x30 }
  - { offsetInCU: 0x2C56F, offset: 0x2C56F, size: 0x8, addend: 0x0, symName: '__ZNSt3__110unique_ptrINS_10__function6__funcINS_6__bindIZN7CoTrain11LogMannager4warnENS_10shared_ptrINS4_8LogEventEEEE3$_2JEEENS_9allocatorISA_EEFvvEEENS_22__allocator_destructorINSB_ISE_EEEEE5resetB7v160006EPSE_', symObjAddr: 0xDC04, symBinAddr: 0x10000EA44, symSize: 0x78 }
  - { offsetInCU: 0x2C5B3, offset: 0x2C5B3, size: 0x8, addend: 0x0, symName: '__ZNSt3__117__compressed_pairIPNS_10__function6__funcINS_6__bindIZN7CoTrain11LogMannager4warnENS_10shared_ptrINS4_8LogEventEEEE3$_2JEEENS_9allocatorISA_EEFvvEEENS_22__allocator_destructorINSB_ISE_EEEEE6secondB7v160006Ev', symObjAddr: 0xDC7C, symBinAddr: 0x10000EABC, symSize: 0x28 }
  - { offsetInCU: 0x2C5D9, offset: 0x2C5D9, size: 0x8, addend: 0x0, symName: '__ZNSt3__122__allocator_destructorINS_9allocatorINS_10__function6__funcINS_6__bindIZN7CoTrain11LogMannager4warnENS_10shared_ptrINS5_8LogEventEEEE3$_2JEEENS1_ISB_EEFvvEEEEEEclB7v160006EPSE_', symObjAddr: 0xDCA4, symBinAddr: 0x10000EAE4, symSize: 0x34 }
  - { offsetInCU: 0x2C60E, offset: 0x2C60E, size: 0x8, addend: 0x0, symName: '__ZNSt3__122__compressed_pair_elemINS_22__allocator_destructorINS_9allocatorINS_10__function6__funcINS_6__bindIZN7CoTrain11LogMannager4warnENS_10shared_ptrINS6_8LogEventEEEE3$_2JEEENS2_ISC_EEFvvEEEEEEELi1ELb0EE5__getB7v160006Ev', symObjAddr: 0xDCD8, symBinAddr: 0x10000EB18, symSize: 0x14 }
  - { offsetInCU: 0x2C634, offset: 0x2C634, size: 0x8, addend: 0x0, symName: '__ZNSt3__116allocator_traitsINS_9allocatorINS_10__function6__funcINS_6__bindIZN7CoTrain11LogMannager4warnENS_10shared_ptrINS5_8LogEventEEEE3$_2JEEENS1_ISB_EEFvvEEEEEE10deallocateB7v160006ERSF_PSE_m', symObjAddr: 0xDCEC, symBinAddr: 0x10000EB2C, symSize: 0x34 }
  - { offsetInCU: 0x2C676, offset: 0x2C676, size: 0x8, addend: 0x0, symName: '__ZNSt3__19allocatorINS_10__function6__funcINS_6__bindIZN7CoTrain11LogMannager4warnENS_10shared_ptrINS4_8LogEventEEEE3$_2JEEENS0_ISA_EEFvvEEEE10deallocateB7v160006EPSD_m', symObjAddr: 0xDD20, symBinAddr: 0x10000EB60, symSize: 0x44 }
  - { offsetInCU: 0x2C6BA, offset: 0x2C6BA, size: 0x8, addend: 0x0, symName: '__ZNSt3__110__function6__funcINS_6__bindIZN7CoTrain11LogMannager4warnENS_10shared_ptrINS3_8LogEventEEEE3$_2JEEENS_9allocatorIS9_EEFvvEEC1B7v160006ERKS9_RKSB_', symObjAddr: 0xDD64, symBinAddr: 0x10000EBA4, symSize: 0x3C }
  - { offsetInCU: 0x2C702, offset: 0x2C702, size: 0x8, addend: 0x0, symName: '__ZNSt3__110__function6__funcINS_6__bindIZN7CoTrain11LogMannager4warnENS_10shared_ptrINS3_8LogEventEEEE3$_2JEEENS_9allocatorIS9_EEFvvEEC2B7v160006ERKS9_RKSB_', symObjAddr: 0xDDA0, symBinAddr: 0x10000EBE0, symSize: 0x88 }
  - { offsetInCU: 0x2C74A, offset: 0x2C74A, size: 0x8, addend: 0x0, symName: '__ZNSt3__110__function12__alloc_funcINS_6__bindIZN7CoTrain11LogMannager4warnENS_10shared_ptrINS3_8LogEventEEEE3$_2JEEENS_9allocatorIS9_EEFvvEEC1B7v160006ERKS9_RKSB_', symObjAddr: 0xDE28, symBinAddr: 0x10000EC68, symSize: 0x3C }
  - { offsetInCU: 0x2C792, offset: 0x2C792, size: 0x8, addend: 0x0, symName: '__ZNSt3__110__function12__alloc_funcINS_6__bindIZN7CoTrain11LogMannager4warnENS_10shared_ptrINS3_8LogEventEEEE3$_2JEEENS_9allocatorIS9_EEFvvEEC2B7v160006ERKS9_RKSB_', symObjAddr: 0xDE64, symBinAddr: 0x10000ECA4, symSize: 0x5C }
  - { offsetInCU: 0x2C7DA, offset: 0x2C7DA, size: 0x8, addend: 0x0, symName: '__ZNSt3__117__compressed_pairINS_6__bindIZN7CoTrain11LogMannager4warnENS_10shared_ptrINS2_8LogEventEEEE3$_2JEEENS_9allocatorIS8_EEEC1B7v160006IJRKS8_EJRKSA_EEENS_21piecewise_construct_tENS_5tupleIJDpT_EEENSI_IJDpT0_EEE', symObjAddr: 0xDEEC, symBinAddr: 0x10000ED2C, symSize: 0x3C }
  - { offsetInCU: 0x2C847, offset: 0x2C847, size: 0x8, addend: 0x0, symName: '__ZNSt3__15tupleIJRKNS_9allocatorINS_6__bindIZN7CoTrain11LogMannager4warnENS_10shared_ptrINS3_8LogEventEEEE3$_2JEEEEEEEC1B7v160006INS_4_AndELi0EEESC_', symObjAddr: 0xDF28, symBinAddr: 0x10000ED68, symSize: 0x34 }
  - { offsetInCU: 0x2C88F, offset: 0x2C88F, size: 0x8, addend: 0x0, symName: '__ZNSt3__15tupleIJRKNS_9allocatorINS_6__bindIZN7CoTrain11LogMannager4warnENS_10shared_ptrINS3_8LogEventEEEE3$_2JEEEEEEEC2B7v160006INS_4_AndELi0EEESC_', symObjAddr: 0xDF5C, symBinAddr: 0x10000ED9C, symSize: 0x34 }
  - { offsetInCU: 0x2C8D7, offset: 0x2C8D7, size: 0x8, addend: 0x0, symName: '__ZNSt3__112__tuple_implINS_15__tuple_indicesIJLm0EEEEJRKNS_9allocatorINS_6__bindIZN7CoTrain11LogMannager4warnENS_10shared_ptrINS5_8LogEventEEEE3$_2JEEEEEEEC1B7v160006IJLm0EEJSE_EJEJEJSE_EEENS1_IJXspT_EEEENS_13__tuple_typesIJDpT0_EEENS1_IJXspT1_EEEENSI_IJDpT2_EEEDpOT3_', symObjAddr: 0xDF90, symBinAddr: 0x10000EDD0, symSize: 0x34 }
  - { offsetInCU: 0x2C96C, offset: 0x2C96C, size: 0x8, addend: 0x0, symName: '__ZNSt3__112__tuple_implINS_15__tuple_indicesIJLm0EEEEJRKNS_9allocatorINS_6__bindIZN7CoTrain11LogMannager4warnENS_10shared_ptrINS5_8LogEventEEEE3$_2JEEEEEEEC2B7v160006IJLm0EEJSE_EJEJEJSE_EEENS1_IJXspT_EEEENS_13__tuple_typesIJDpT0_EEENS1_IJXspT1_EEEENSI_IJDpT2_EEEDpOT3_', symObjAddr: 0xDFC4, symBinAddr: 0x10000EE04, symSize: 0x34 }
  - { offsetInCU: 0x2CA01, offset: 0x2CA01, size: 0x8, addend: 0x0, symName: '__ZNSt3__112__tuple_leafILm0ERKNS_9allocatorINS_6__bindIZN7CoTrain11LogMannager4warnENS_10shared_ptrINS3_8LogEventEEEE3$_2JEEEEELb0EEC2B7v160006ISC_vEEOT_', symObjAddr: 0xDFF8, symBinAddr: 0x10000EE38, symSize: 0x20 }
  - { offsetInCU: 0x2CA44, offset: 0x2CA44, size: 0x8, addend: 0x0, symName: '__ZNSt3__117__compressed_pairINS_6__bindIZN7CoTrain11LogMannager4warnENS_10shared_ptrINS2_8LogEventEEEE3$_2JEEENS_9allocatorIS8_EEEC2B7v160006IJRKS8_EJRKSA_EEENS_21piecewise_construct_tENS_5tupleIJDpT_EEENSI_IJDpT0_EEE', symObjAddr: 0xE018, symBinAddr: 0x10000EE58, symSize: 0x7C }
  - { offsetInCU: 0x2CAB1, offset: 0x2CAB1, size: 0x8, addend: 0x0, symName: '__ZNSt3__122__compressed_pair_elemINS_9allocatorINS_6__bindIZN7CoTrain11LogMannager4warnENS_10shared_ptrINS3_8LogEventEEEE3$_2JEEEEELi1ELb1EEC2B7v160006IJRKSA_EJLm0EEEENS_21piecewise_construct_tENS_5tupleIJDpT_EEENS_15__tuple_indicesIJXspT0_EEEE', symObjAddr: 0xE094, symBinAddr: 0x10000EED4, symSize: 0x38 }
  - { offsetInCU: 0x2CB15, offset: 0x2CB15, size: 0x8, addend: 0x0, symName: '__ZNSt3__112__tuple_leafILm0ERKNS_9allocatorINS_6__bindIZN7CoTrain11LogMannager4warnENS_10shared_ptrINS3_8LogEventEEEE3$_2JEEEEELb0EE3getB7v160006Ev', symObjAddr: 0xE0F0, symBinAddr: 0x10000EF30, symSize: 0x18 }
  - { offsetInCU: 0x2CB3B, offset: 0x2CB3B, size: 0x8, addend: 0x0, symName: '__ZNSt3__110__function12__alloc_funcINS_6__bindIZN7CoTrain11LogMannager4warnENS_10shared_ptrINS3_8LogEventEEEE3$_2JEEENS_9allocatorIS9_EEFvvEE7destroyB7v160006Ev', symObjAddr: 0xE108, symBinAddr: 0x10000EF48, symSize: 0x24 }
  - { offsetInCU: 0x2CB61, offset: 0x2CB61, size: 0x8, addend: 0x0, symName: '__ZNSt3__110__function12__alloc_funcINS_6__bindIZN7CoTrain11LogMannager4warnENS_10shared_ptrINS3_8LogEventEEEE3$_2JEEENS_9allocatorIS9_EEFvvEEclB7v160006Ev', symObjAddr: 0xE12C, symBinAddr: 0x10000EF6C, symSize: 0x28 }
  - { offsetInCU: 0x2CB87, offset: 0x2CB87, size: 0x8, addend: 0x0, symName: '__ZNSt3__128__invoke_void_return_wrapperIvLb1EE6__callIJRNS_6__bindIZN7CoTrain11LogMannager4warnENS_10shared_ptrINS4_8LogEventEEEE3$_2JEEEEEEvDpOT_', symObjAddr: 0xE154, symBinAddr: 0x10000EF94, symSize: 0x24 }
  - { offsetInCU: 0x2CBB6, offset: 0x2CBB6, size: 0x8, addend: 0x0, symName: '__ZNSt3__117__compressed_pairINS_6__bindIZN7CoTrain11LogMannager4warnENS_10shared_ptrINS2_8LogEventEEEE3$_2JEEENS_9allocatorIS8_EEE5firstB7v160006Ev', symObjAddr: 0xE178, symBinAddr: 0x10000EFB8, symSize: 0x24 }
  - { offsetInCU: 0x2CBDC, offset: 0x2CBDC, size: 0x8, addend: 0x0, symName: '__ZNSt3__16__bindIZN7CoTrain11LogMannager4warnENS_10shared_ptrINS1_8LogEventEEEE3$_2JEEclB7v160006IJEEENS_13__bind_returnIS6_NS_5tupleIJEEENSA_IJDpOT_EEEXsr22__is_valid_bind_returnIS6_SB_SF_EE5valueEE4typeESE_', symObjAddr: 0xE1C0, symBinAddr: 0x10000F000, symSize: 0x30 }
  - { offsetInCU: 0x2CC0D, offset: 0x2CC0D, size: 0x8, addend: 0x0, symName: '__ZZN7CoTrain11LogMannager4warnENSt3__110shared_ptrINS_8LogEventEEEENK3$_2clEv', symObjAddr: 0xE240, symBinAddr: 0x10000F080, symSize: 0x84 }
  - { offsetInCU: 0x2CC37, offset: 0x2CC37, size: 0x8, addend: 0x0, symName: '__ZNSt3__122__compressed_pair_elemINS_6__bindIZN7CoTrain11LogMannager4warnENS_10shared_ptrINS2_8LogEventEEEE3$_2JEEELi0ELb0EE5__getB7v160006Ev', symObjAddr: 0xE2C4, symBinAddr: 0x10000F104, symSize: 0x14 }
  - { offsetInCU: 0x2CC5D, offset: 0x2CC5D, size: 0x8, addend: 0x0, symName: '__ZNSt3__110unique_ptrINS_10__function6__baseIFvvEEENS_22__allocator_destructorINS_9allocatorINS1_6__funcINS_6__bindIZN7CoTrain11LogMannager4warnENS_10shared_ptrINS9_8LogEventEEEE3$_2JEEENS6_ISF_EES3_EEEEEEED2B7v160006Ev', symObjAddr: 0xE2D8, symBinAddr: 0x10000F118, symSize: 0x30 }
  - { offsetInCU: 0x2CC87, offset: 0x2CC87, size: 0x8, addend: 0x0, symName: '__ZNSt3__110unique_ptrINS_10__function6__baseIFvvEEENS_22__allocator_destructorINS_9allocatorINS1_6__funcINS_6__bindIZN7CoTrain11LogMannager4warnENS_10shared_ptrINS9_8LogEventEEEE3$_2JEEENS6_ISF_EES3_EEEEEEE5resetB7v160006EPSH_', symObjAddr: 0xE308, symBinAddr: 0x10000F148, symSize: 0x78 }
  - { offsetInCU: 0x2CCCB, offset: 0x2CCCB, size: 0x8, addend: 0x0, symName: '__ZNSt3__16__bindIZN7CoTrain11LogMannager4warnENS_10shared_ptrINS1_8LogEventEEEE3$_2JEED2Ev', symObjAddr: 0xE380, symBinAddr: 0x10000F1C0, symSize: 0x2C }
  - { offsetInCU: 0x2CCF8, offset: 0x2CCF8, size: 0x8, addend: 0x0, symName: '__ZN7CoTrain4TaskC2IZNS_11LogMannager5errorENSt3__110shared_ptrINS_8LogEventEEEE3$_3JEEEiOT_DpOT0_', symObjAddr: 0xE3AC, symBinAddr: 0x10000F1EC, symSize: 0x84 }
  - { offsetInCU: 0x2CD4E, offset: 0x2CD4E, size: 0x8, addend: 0x0, symName: '__ZNSt3__18functionIFvvEEC1INS_6__bindIZN7CoTrain11LogMannager5errorENS_10shared_ptrINS5_8LogEventEEEE3$_3JEEEvEET_', symObjAddr: 0xE468, symBinAddr: 0x10000F2A8, symSize: 0x34 }
  - { offsetInCU: 0x2CD9A, offset: 0x2CD9A, size: 0x8, addend: 0x0, symName: '__ZNSt3__16__bindIZN7CoTrain11LogMannager5errorENS_10shared_ptrINS1_8LogEventEEEE3$_3JEED1Ev', symObjAddr: 0xE49C, symBinAddr: 0x10000F2DC, symSize: 0x2C }
  - { offsetInCU: 0x2CDC7, offset: 0x2CDC7, size: 0x8, addend: 0x0, symName: '__ZNSt3__16__bindIZN7CoTrain11LogMannager5errorENS_10shared_ptrINS1_8LogEventEEEE3$_3JEEC1B7v160006IS6_JEvEEOT_DpOT0_', symObjAddr: 0xE4C8, symBinAddr: 0x10000F308, symSize: 0x34 }
  - { offsetInCU: 0x2CE0F, offset: 0x2CE0F, size: 0x8, addend: 0x0, symName: '__ZNSt3__16__bindIZN7CoTrain11LogMannager5errorENS_10shared_ptrINS1_8LogEventEEEE3$_3JEEC2B7v160006IS6_JEvEEOT_DpOT0_', symObjAddr: 0xE4FC, symBinAddr: 0x10000F33C, symSize: 0x34 }
  - { offsetInCU: 0x2CE57, offset: 0x2CE57, size: 0x8, addend: 0x0, symName: '__ZZN7CoTrain11LogMannager5errorENSt3__110shared_ptrINS_8LogEventEEEEN3$_3C1EOS5_', symObjAddr: 0xE530, symBinAddr: 0x10000F370, symSize: 0x34 }
  - { offsetInCU: 0x2CE8C, offset: 0x2CE8C, size: 0x8, addend: 0x0, symName: '__ZZN7CoTrain11LogMannager5errorENSt3__110shared_ptrINS_8LogEventEEEEN3$_3C2EOS5_', symObjAddr: 0xE564, symBinAddr: 0x10000F3A4, symSize: 0x48 }
  - { offsetInCU: 0x2CEC1, offset: 0x2CEC1, size: 0x8, addend: 0x0, symName: '__ZNSt3__18functionIFvvEEC2INS_6__bindIZN7CoTrain11LogMannager5errorENS_10shared_ptrINS5_8LogEventEEEE3$_3JEEEvEET_', symObjAddr: 0xE5AC, symBinAddr: 0x10000F3EC, symSize: 0x34 }
  - { offsetInCU: 0x2CF07, offset: 0x2CF07, size: 0x8, addend: 0x0, symName: '__ZNSt3__110__function12__value_funcIFvvEEC1B7v160006INS_6__bindIZN7CoTrain11LogMannager5errorENS_10shared_ptrINS6_8LogEventEEEE3$_3JEEEvEEOT_', symObjAddr: 0xE5E0, symBinAddr: 0x10000F420, symSize: 0x50 }
  - { offsetInCU: 0x2CF4A, offset: 0x2CF4A, size: 0x8, addend: 0x0, symName: '__ZNSt3__19allocatorINS_6__bindIZN7CoTrain11LogMannager5errorENS_10shared_ptrINS2_8LogEventEEEE3$_3JEEEEC1B7v160006Ev', symObjAddr: 0xE630, symBinAddr: 0x10000F470, symSize: 0x2C }
  - { offsetInCU: 0x2CF74, offset: 0x2CF74, size: 0x8, addend: 0x0, symName: '__ZNSt3__110__function12__value_funcIFvvEEC1B7v160006INS_6__bindIZN7CoTrain11LogMannager5errorENS_10shared_ptrINS6_8LogEventEEEE3$_3JEEENS_9allocatorISC_EEEEOT_RKT0_', symObjAddr: 0xE65C, symBinAddr: 0x10000F49C, symSize: 0x3C }
  - { offsetInCU: 0x2CFCE, offset: 0x2CFCE, size: 0x8, addend: 0x0, symName: '__ZNSt3__19allocatorINS_6__bindIZN7CoTrain11LogMannager5errorENS_10shared_ptrINS2_8LogEventEEEE3$_3JEEEEC2B7v160006Ev', symObjAddr: 0xE698, symBinAddr: 0x10000F4D8, symSize: 0x2C }
  - { offsetInCU: 0x2CFF8, offset: 0x2CFF8, size: 0x8, addend: 0x0, symName: '__ZNSt3__116__non_trivial_ifILb1ENS_9allocatorINS_6__bindIZN7CoTrain11LogMannager5errorENS_10shared_ptrINS3_8LogEventEEEE3$_3JEEEEEEC2B7v160006Ev', symObjAddr: 0xE6C4, symBinAddr: 0x10000F504, symSize: 0x14 }
  - { offsetInCU: 0x2D022, offset: 0x2D022, size: 0x8, addend: 0x0, symName: '__ZNSt3__110__function12__value_funcIFvvEEC2B7v160006INS_6__bindIZN7CoTrain11LogMannager5errorENS_10shared_ptrINS6_8LogEventEEEE3$_3JEEENS_9allocatorISC_EEEEOT_RKT0_', symObjAddr: 0xE6D8, symBinAddr: 0x10000F518, symSize: 0xF4 }
  - { offsetInCU: 0x2D0DB, offset: 0x2D0DB, size: 0x8, addend: 0x0, symName: '__ZNSt3__19allocatorINS_10__function6__funcINS_6__bindIZN7CoTrain11LogMannager5errorENS_10shared_ptrINS4_8LogEventEEEE3$_3JEEENS0_ISA_EEFvvEEEEC1B7v160006ISA_EERKNS0_IT_EE', symObjAddr: 0xE7E4, symBinAddr: 0x10000F624, symSize: 0x34 }
  - { offsetInCU: 0x2D118, offset: 0x2D118, size: 0x8, addend: 0x0, symName: '__ZNSt3__19allocatorINS_10__function6__funcINS_6__bindIZN7CoTrain11LogMannager5errorENS_10shared_ptrINS4_8LogEventEEEE3$_3JEEENS0_ISA_EEFvvEEEE8allocateB7v160006Em', symObjAddr: 0xE818, symBinAddr: 0x10000F658, symSize: 0x5C }
  - { offsetInCU: 0x2D15F, offset: 0x2D15F, size: 0x8, addend: 0x0, symName: '__ZNSt3__122__allocator_destructorINS_9allocatorINS_10__function6__funcINS_6__bindIZN7CoTrain11LogMannager5errorENS_10shared_ptrINS5_8LogEventEEEE3$_3JEEENS1_ISB_EEFvvEEEEEEC1B7v160006ERSF_m', symObjAddr: 0xE874, symBinAddr: 0x10000F6B4, symSize: 0x3C }
  - { offsetInCU: 0x2D248, offset: 0x2D248, size: 0x8, addend: 0x0, symName: '__ZNSt3__110unique_ptrINS_10__function6__baseIFvvEEENS_22__allocator_destructorINS_9allocatorINS1_6__funcINS_6__bindIZN7CoTrain11LogMannager5errorENS_10shared_ptrINS9_8LogEventEEEE3$_3JEEENS6_ISF_EES3_EEEEEEEC1B7v160006ILb1EvEEPSH_NS_16__dependent_typeINS_27__unique_ptr_deleter_sfinaeISJ_EEXT_EE20__good_rval_ref_typeE', symObjAddr: 0xE8B0, symBinAddr: 0x10000F6F0, symSize: 0x3C }
  - { offsetInCU: 0x2D29B, offset: 0x2D29B, size: 0x8, addend: 0x0, symName: '__ZNKSt3__110unique_ptrINS_10__function6__baseIFvvEEENS_22__allocator_destructorINS_9allocatorINS1_6__funcINS_6__bindIZN7CoTrain11LogMannager5errorENS_10shared_ptrINS9_8LogEventEEEE3$_3JEEENS6_ISF_EES3_EEEEEEE3getB7v160006Ev', symObjAddr: 0xE8EC, symBinAddr: 0x10000F72C, symSize: 0x28 }
  - { offsetInCU: 0x2D2C1, offset: 0x2D2C1, size: 0x8, addend: 0x0, symName: '__ZNSt3__110__function6__funcINS_6__bindIZN7CoTrain11LogMannager5errorENS_10shared_ptrINS3_8LogEventEEEE3$_3JEEENS_9allocatorIS9_EEFvvEEC1B7v160006EOS9_OSB_', symObjAddr: 0xE914, symBinAddr: 0x10000F754, symSize: 0x3C }
  - { offsetInCU: 0x2D309, offset: 0x2D309, size: 0x8, addend: 0x0, symName: '__ZNSt3__110unique_ptrINS_10__function6__baseIFvvEEENS_22__allocator_destructorINS_9allocatorINS1_6__funcINS_6__bindIZN7CoTrain11LogMannager5errorENS_10shared_ptrINS9_8LogEventEEEE3$_3JEEENS6_ISF_EES3_EEEEEEE7releaseB7v160006Ev', symObjAddr: 0xE950, symBinAddr: 0x10000F790, symSize: 0x44 }
  - { offsetInCU: 0x2D33E, offset: 0x2D33E, size: 0x8, addend: 0x0, symName: '__ZNSt3__110unique_ptrINS_10__function6__baseIFvvEEENS_22__allocator_destructorINS_9allocatorINS1_6__funcINS_6__bindIZN7CoTrain11LogMannager5errorENS_10shared_ptrINS9_8LogEventEEEE3$_3JEEENS6_ISF_EES3_EEEEEEED1B7v160006Ev', symObjAddr: 0xE994, symBinAddr: 0x10000F7D4, symSize: 0x2C }
  - { offsetInCU: 0x2D368, offset: 0x2D368, size: 0x8, addend: 0x0, symName: '__ZNSt3__19allocatorINS_10__function6__funcINS_6__bindIZN7CoTrain11LogMannager5errorENS_10shared_ptrINS4_8LogEventEEEE3$_3JEEENS0_ISA_EEFvvEEEEC2B7v160006ISA_EERKNS0_IT_EE', symObjAddr: 0xE9C0, symBinAddr: 0x10000F800, symSize: 0x30 }
  - { offsetInCU: 0x2D3A5, offset: 0x2D3A5, size: 0x8, addend: 0x0, symName: '__ZNSt3__116__non_trivial_ifILb1ENS_9allocatorINS_10__function6__funcINS_6__bindIZN7CoTrain11LogMannager5errorENS_10shared_ptrINS5_8LogEventEEEE3$_3JEEENS1_ISB_EEFvvEEEEEEC2B7v160006Ev', symObjAddr: 0xE9F0, symBinAddr: 0x10000F830, symSize: 0x14 }
  - { offsetInCU: 0x2D3DA, offset: 0x2D3DA, size: 0x8, addend: 0x0, symName: '__ZNSt3__116allocator_traitsINS_9allocatorINS_10__function6__funcINS_6__bindIZN7CoTrain11LogMannager5errorENS_10shared_ptrINS5_8LogEventEEEE3$_3JEEENS1_ISB_EEFvvEEEEEE8max_sizeB7v160006ISF_vEEmRKSF_', symObjAddr: 0xEA04, symBinAddr: 0x10000F844, symSize: 0x24 }
  - { offsetInCU: 0x2D408, offset: 0x2D408, size: 0x8, addend: 0x0, symName: '__ZNKSt3__19allocatorINS_10__function6__funcINS_6__bindIZN7CoTrain11LogMannager5errorENS_10shared_ptrINS4_8LogEventEEEE3$_3JEEENS0_ISA_EEFvvEEEE8max_sizeB7v160006Ev', symObjAddr: 0xEA28, symBinAddr: 0x10000F868, symSize: 0x18 }
  - { offsetInCU: 0x2D42E, offset: 0x2D42E, size: 0x8, addend: 0x0, symName: '__ZNSt3__122__allocator_destructorINS_9allocatorINS_10__function6__funcINS_6__bindIZN7CoTrain11LogMannager5errorENS_10shared_ptrINS5_8LogEventEEEE3$_3JEEENS1_ISB_EEFvvEEEEEEC2B7v160006ERSF_m', symObjAddr: 0xEA40, symBinAddr: 0x10000F880, symSize: 0x2C }
  - { offsetInCU: 0x2D476, offset: 0x2D476, size: 0x8, addend: 0x0, symName: '__ZNSt3__110unique_ptrINS_10__function6__baseIFvvEEENS_22__allocator_destructorINS_9allocatorINS1_6__funcINS_6__bindIZN7CoTrain11LogMannager5errorENS_10shared_ptrINS9_8LogEventEEEE3$_3JEEENS6_ISF_EES3_EEEEEEEC2B7v160006ILb1EvEEPSH_NS_16__dependent_typeINS_27__unique_ptr_deleter_sfinaeISJ_EEXT_EE20__good_rval_ref_typeE', symObjAddr: 0xEA6C, symBinAddr: 0x10000F8AC, symSize: 0x48 }
  - { offsetInCU: 0x2D4C9, offset: 0x2D4C9, size: 0x8, addend: 0x0, symName: '__ZNSt3__117__compressed_pairIPNS_10__function6__funcINS_6__bindIZN7CoTrain11LogMannager5errorENS_10shared_ptrINS4_8LogEventEEEE3$_3JEEENS_9allocatorISA_EEFvvEEENS_22__allocator_destructorINSB_ISE_EEEEEC1B7v160006IRSF_SI_EEOT_OT0_', symObjAddr: 0xEAB4, symBinAddr: 0x10000F8F4, symSize: 0x3C }
  - { offsetInCU: 0x2D523, offset: 0x2D523, size: 0x8, addend: 0x0, symName: '__ZNSt3__117__compressed_pairIPNS_10__function6__funcINS_6__bindIZN7CoTrain11LogMannager5errorENS_10shared_ptrINS4_8LogEventEEEE3$_3JEEENS_9allocatorISA_EEFvvEEENS_22__allocator_destructorINSB_ISE_EEEEEC2B7v160006IRSF_SI_EEOT_OT0_', symObjAddr: 0xEAF0, symBinAddr: 0x10000F930, symSize: 0x48 }
  - { offsetInCU: 0x2D57D, offset: 0x2D57D, size: 0x8, addend: 0x0, symName: '__ZNSt3__122__compressed_pair_elemIPNS_10__function6__funcINS_6__bindIZN7CoTrain11LogMannager5errorENS_10shared_ptrINS4_8LogEventEEEE3$_3JEEENS_9allocatorISA_EEFvvEEELi0ELb0EEC2B7v160006IRSF_vEEOT_', symObjAddr: 0xEB38, symBinAddr: 0x10000F978, symSize: 0x24 }
  - { offsetInCU: 0x2D5C0, offset: 0x2D5C0, size: 0x8, addend: 0x0, symName: '__ZNSt3__122__compressed_pair_elemINS_22__allocator_destructorINS_9allocatorINS_10__function6__funcINS_6__bindIZN7CoTrain11LogMannager5errorENS_10shared_ptrINS6_8LogEventEEEE3$_3JEEENS2_ISC_EEFvvEEEEEEELi1ELb0EEC2B7v160006ISH_vEEOT_', symObjAddr: 0xEB5C, symBinAddr: 0x10000F99C, symSize: 0x24 }
  - { offsetInCU: 0x2D603, offset: 0x2D603, size: 0x8, addend: 0x0, symName: '__ZNKSt3__117__compressed_pairIPNS_10__function6__funcINS_6__bindIZN7CoTrain11LogMannager5errorENS_10shared_ptrINS4_8LogEventEEEE3$_3JEEENS_9allocatorISA_EEFvvEEENS_22__allocator_destructorINSB_ISE_EEEEE5firstB7v160006Ev', symObjAddr: 0xEB80, symBinAddr: 0x10000F9C0, symSize: 0x24 }
  - { offsetInCU: 0x2D629, offset: 0x2D629, size: 0x8, addend: 0x0, symName: '__ZNKSt3__122__compressed_pair_elemIPNS_10__function6__funcINS_6__bindIZN7CoTrain11LogMannager5errorENS_10shared_ptrINS4_8LogEventEEEE3$_3JEEENS_9allocatorISA_EEFvvEEELi0ELb0EE5__getB7v160006Ev', symObjAddr: 0xEBA4, symBinAddr: 0x10000F9E4, symSize: 0x14 }
  - { offsetInCU: 0x2D64F, offset: 0x2D64F, size: 0x8, addend: 0x0, symName: '__ZNSt3__110__function6__funcINS_6__bindIZN7CoTrain11LogMannager5errorENS_10shared_ptrINS3_8LogEventEEEE3$_3JEEENS_9allocatorIS9_EEFvvEEC2B7v160006EOS9_OSB_', symObjAddr: 0xEBB8, symBinAddr: 0x10000F9F8, symSize: 0x88 }
  - { offsetInCU: 0x2D697, offset: 0x2D697, size: 0x8, addend: 0x0, symName: '__ZNSt3__110__function12__alloc_funcINS_6__bindIZN7CoTrain11LogMannager5errorENS_10shared_ptrINS3_8LogEventEEEE3$_3JEEENS_9allocatorIS9_EEFvvEEC1B7v160006EOS9_OSB_', symObjAddr: 0xEC40, symBinAddr: 0x10000FA80, symSize: 0x3C }
  - { offsetInCU: 0x2D6DF, offset: 0x2D6DF, size: 0x8, addend: 0x0, symName: '__ZNSt3__110__function6__funcINS_6__bindIZN7CoTrain11LogMannager5errorENS_10shared_ptrINS3_8LogEventEEEE3$_3JEEENS_9allocatorIS9_EEFvvEED1Ev', symObjAddr: 0xEC7C, symBinAddr: 0x10000FABC, symSize: 0x2C }
  - { offsetInCU: 0x2D70C, offset: 0x2D70C, size: 0x8, addend: 0x0, symName: '__ZNSt3__110__function6__funcINS_6__bindIZN7CoTrain11LogMannager5errorENS_10shared_ptrINS3_8LogEventEEEE3$_3JEEENS_9allocatorIS9_EEFvvEED0Ev', symObjAddr: 0xECA8, symBinAddr: 0x10000FAE8, symSize: 0x30 }
  - { offsetInCU: 0x2D739, offset: 0x2D739, size: 0x8, addend: 0x0, symName: '__ZNKSt3__110__function6__funcINS_6__bindIZN7CoTrain11LogMannager5errorENS_10shared_ptrINS3_8LogEventEEEE3$_3JEEENS_9allocatorIS9_EEFvvEE7__cloneEv', symObjAddr: 0xECD8, symBinAddr: 0x10000FB18, symSize: 0xFC }
  - { offsetInCU: 0x2D78B, offset: 0x2D78B, size: 0x8, addend: 0x0, symName: '__ZNKSt3__110__function6__funcINS_6__bindIZN7CoTrain11LogMannager5errorENS_10shared_ptrINS3_8LogEventEEEE3$_3JEEENS_9allocatorIS9_EEFvvEE7__cloneEPNS0_6__baseISC_EE', symObjAddr: 0xEDD4, symBinAddr: 0x10000FC14, symSize: 0x58 }
  - { offsetInCU: 0x2D7C2, offset: 0x2D7C2, size: 0x8, addend: 0x0, symName: '__ZNSt3__110__function6__funcINS_6__bindIZN7CoTrain11LogMannager5errorENS_10shared_ptrINS3_8LogEventEEEE3$_3JEEENS_9allocatorIS9_EEFvvEE7destroyEv', symObjAddr: 0xEE2C, symBinAddr: 0x10000FC6C, symSize: 0x28 }
  - { offsetInCU: 0x2D7EA, offset: 0x2D7EA, size: 0x8, addend: 0x0, symName: '__ZNSt3__110__function6__funcINS_6__bindIZN7CoTrain11LogMannager5errorENS_10shared_ptrINS3_8LogEventEEEE3$_3JEEENS_9allocatorIS9_EEFvvEE18destroy_deallocateEv', symObjAddr: 0xEE54, symBinAddr: 0x10000FC94, symSize: 0x58 }
  - { offsetInCU: 0x2D82D, offset: 0x2D82D, size: 0x8, addend: 0x0, symName: '__ZNSt3__110__function6__funcINS_6__bindIZN7CoTrain11LogMannager5errorENS_10shared_ptrINS3_8LogEventEEEE3$_3JEEENS_9allocatorIS9_EEFvvEEclEv', symObjAddr: 0xEEAC, symBinAddr: 0x10000FCEC, symSize: 0x28 }
  - { offsetInCU: 0x2D855, offset: 0x2D855, size: 0x8, addend: 0x0, symName: '__ZNKSt3__110__function6__funcINS_6__bindIZN7CoTrain11LogMannager5errorENS_10shared_ptrINS3_8LogEventEEEE3$_3JEEENS_9allocatorIS9_EEFvvEE6targetERKSt9type_info', symObjAddr: 0xEED4, symBinAddr: 0x10000FD14, symSize: 0x60 }
  - { offsetInCU: 0x2D88C, offset: 0x2D88C, size: 0x8, addend: 0x0, symName: '__ZNKSt3__110__function6__funcINS_6__bindIZN7CoTrain11LogMannager5errorENS_10shared_ptrINS3_8LogEventEEEE3$_3JEEENS_9allocatorIS9_EEFvvEE11target_typeEv', symObjAddr: 0xEF34, symBinAddr: 0x10000FD74, symSize: 0x18 }
  - { offsetInCU: 0x2D8B4, offset: 0x2D8B4, size: 0x8, addend: 0x0, symName: '__ZNSt3__110__function12__alloc_funcINS_6__bindIZN7CoTrain11LogMannager5errorENS_10shared_ptrINS3_8LogEventEEEE3$_3JEEENS_9allocatorIS9_EEFvvEEC2B7v160006EOS9_OSB_', symObjAddr: 0xEF4C, symBinAddr: 0x10000FD8C, symSize: 0x5C }
  - { offsetInCU: 0x2D8FC, offset: 0x2D8FC, size: 0x8, addend: 0x0, symName: '__ZNSt3__117__compressed_pairINS_6__bindIZN7CoTrain11LogMannager5errorENS_10shared_ptrINS2_8LogEventEEEE3$_3JEEENS_9allocatorIS8_EEEC1B7v160006IJOS8_EJOSA_EEENS_21piecewise_construct_tENS_5tupleIJDpT_EEENSG_IJDpT0_EEE', symObjAddr: 0xF000, symBinAddr: 0x10000FE40, symSize: 0x3C }
  - { offsetInCU: 0x2D969, offset: 0x2D969, size: 0x8, addend: 0x0, symName: '__ZNSt3__15tupleIJONS_6__bindIZN7CoTrain11LogMannager5errorENS_10shared_ptrINS2_8LogEventEEEE3$_3JEEEEEC1B7v160006IJS8_ELi0EEEDpOT_', symObjAddr: 0xF03C, symBinAddr: 0x10000FE7C, symSize: 0x34 }
  - { offsetInCU: 0x2D9B3, offset: 0x2D9B3, size: 0x8, addend: 0x0, symName: '__ZNSt3__15tupleIJONS_6__bindIZN7CoTrain11LogMannager5errorENS_10shared_ptrINS2_8LogEventEEEE3$_3JEEEEEC2B7v160006IJS8_ELi0EEEDpOT_', symObjAddr: 0xF070, symBinAddr: 0x10000FEB0, symSize: 0x34 }
  - { offsetInCU: 0x2D9FD, offset: 0x2D9FD, size: 0x8, addend: 0x0, symName: '__ZNSt3__112__tuple_implINS_15__tuple_indicesIJLm0EEEEJONS_6__bindIZN7CoTrain11LogMannager5errorENS_10shared_ptrINS4_8LogEventEEEE3$_3JEEEEEC1B7v160006IJLm0EEJSB_EJEJEJSA_EEENS1_IJXspT_EEEENS_13__tuple_typesIJDpT0_EEENS1_IJXspT1_EEEENSF_IJDpT2_EEEDpOT3_', symObjAddr: 0xF0A4, symBinAddr: 0x10000FEE4, symSize: 0x34 }
  - { offsetInCU: 0x2DA92, offset: 0x2DA92, size: 0x8, addend: 0x0, symName: '__ZNSt3__112__tuple_implINS_15__tuple_indicesIJLm0EEEEJONS_6__bindIZN7CoTrain11LogMannager5errorENS_10shared_ptrINS4_8LogEventEEEE3$_3JEEEEEC2B7v160006IJLm0EEJSB_EJEJEJSA_EEENS1_IJXspT_EEEENS_13__tuple_typesIJDpT0_EEENS1_IJXspT1_EEEENSF_IJDpT2_EEEDpOT3_', symObjAddr: 0xF0D8, symBinAddr: 0x10000FF18, symSize: 0x34 }
  - { offsetInCU: 0x2DB27, offset: 0x2DB27, size: 0x8, addend: 0x0, symName: '__ZNSt3__112__tuple_leafILm0EONS_6__bindIZN7CoTrain11LogMannager5errorENS_10shared_ptrINS2_8LogEventEEEE3$_3JEEELb0EEC2B7v160006IS8_vEEOT_', symObjAddr: 0xF10C, symBinAddr: 0x10000FF4C, symSize: 0x20 }
  - { offsetInCU: 0x2DB6A, offset: 0x2DB6A, size: 0x8, addend: 0x0, symName: '__ZNSt3__15tupleIJONS_9allocatorINS_6__bindIZN7CoTrain11LogMannager5errorENS_10shared_ptrINS3_8LogEventEEEE3$_3JEEEEEEEC1B7v160006IJSA_ELi0EEEDpOT_', symObjAddr: 0xF12C, symBinAddr: 0x10000FF6C, symSize: 0x34 }
  - { offsetInCU: 0x2DBB4, offset: 0x2DBB4, size: 0x8, addend: 0x0, symName: '__ZNSt3__15tupleIJONS_9allocatorINS_6__bindIZN7CoTrain11LogMannager5errorENS_10shared_ptrINS3_8LogEventEEEE3$_3JEEEEEEEC2B7v160006IJSA_ELi0EEEDpOT_', symObjAddr: 0xF160, symBinAddr: 0x10000FFA0, symSize: 0x34 }
  - { offsetInCU: 0x2DBFE, offset: 0x2DBFE, size: 0x8, addend: 0x0, symName: '__ZNSt3__112__tuple_implINS_15__tuple_indicesIJLm0EEEEJONS_9allocatorINS_6__bindIZN7CoTrain11LogMannager5errorENS_10shared_ptrINS5_8LogEventEEEE3$_3JEEEEEEEC1B7v160006IJLm0EEJSD_EJEJEJSC_EEENS1_IJXspT_EEEENS_13__tuple_typesIJDpT0_EEENS1_IJXspT1_EEEENSH_IJDpT2_EEEDpOT3_', symObjAddr: 0xF194, symBinAddr: 0x10000FFD4, symSize: 0x34 }
  - { offsetInCU: 0x2DC93, offset: 0x2DC93, size: 0x8, addend: 0x0, symName: '__ZNSt3__112__tuple_implINS_15__tuple_indicesIJLm0EEEEJONS_9allocatorINS_6__bindIZN7CoTrain11LogMannager5errorENS_10shared_ptrINS5_8LogEventEEEE3$_3JEEEEEEEC2B7v160006IJLm0EEJSD_EJEJEJSC_EEENS1_IJXspT_EEEENS_13__tuple_typesIJDpT0_EEENS1_IJXspT1_EEEENSH_IJDpT2_EEEDpOT3_', symObjAddr: 0xF1C8, symBinAddr: 0x100010008, symSize: 0x34 }
  - { offsetInCU: 0x2DD28, offset: 0x2DD28, size: 0x8, addend: 0x0, symName: '__ZNSt3__112__tuple_leafILm0EONS_9allocatorINS_6__bindIZN7CoTrain11LogMannager5errorENS_10shared_ptrINS3_8LogEventEEEE3$_3JEEEEELb0EEC2B7v160006ISA_vEEOT_', symObjAddr: 0xF1FC, symBinAddr: 0x10001003C, symSize: 0x20 }
  - { offsetInCU: 0x2DD6B, offset: 0x2DD6B, size: 0x8, addend: 0x0, symName: '__ZNSt3__117__compressed_pairINS_6__bindIZN7CoTrain11LogMannager5errorENS_10shared_ptrINS2_8LogEventEEEE3$_3JEEENS_9allocatorIS8_EEEC2B7v160006IJOS8_EJOSA_EEENS_21piecewise_construct_tENS_5tupleIJDpT_EEENSG_IJDpT0_EEE', symObjAddr: 0xF21C, symBinAddr: 0x10001005C, symSize: 0x7C }
  - { offsetInCU: 0x2DDD8, offset: 0x2DDD8, size: 0x8, addend: 0x0, symName: '__ZNSt3__122__compressed_pair_elemINS_6__bindIZN7CoTrain11LogMannager5errorENS_10shared_ptrINS2_8LogEventEEEE3$_3JEEELi0ELb0EEC2B7v160006IJOS8_EJLm0EEEENS_21piecewise_construct_tENS_5tupleIJDpT_EEENS_15__tuple_indicesIJXspT0_EEEE', symObjAddr: 0xF298, symBinAddr: 0x1000100D8, symSize: 0x44 }
  - { offsetInCU: 0x2DE3C, offset: 0x2DE3C, size: 0x8, addend: 0x0, symName: '__ZNSt3__122__compressed_pair_elemINS_9allocatorINS_6__bindIZN7CoTrain11LogMannager5errorENS_10shared_ptrINS3_8LogEventEEEE3$_3JEEEEELi1ELb1EEC2B7v160006IJOSA_EJLm0EEEENS_21piecewise_construct_tENS_5tupleIJDpT_EEENS_15__tuple_indicesIJXspT0_EEEE', symObjAddr: 0xF2DC, symBinAddr: 0x10001011C, symSize: 0x38 }
  - { offsetInCU: 0x2DEA0, offset: 0x2DEA0, size: 0x8, addend: 0x0, symName: '__ZNSt3__122__compressed_pair_elemINS_6__bindIZN7CoTrain11LogMannager5errorENS_10shared_ptrINS2_8LogEventEEEE3$_3JEEELi0ELb0EED2Ev', symObjAddr: 0xF314, symBinAddr: 0x100010154, symSize: 0x2C }
  - { offsetInCU: 0x2DECC, offset: 0x2DECC, size: 0x8, addend: 0x0, symName: '__ZNSt3__16__bindIZN7CoTrain11LogMannager5errorENS_10shared_ptrINS1_8LogEventEEEE3$_3JEEC1EOS7_', symObjAddr: 0xF364, symBinAddr: 0x1000101A4, symSize: 0x34 }
  - { offsetInCU: 0x2DF02, offset: 0x2DF02, size: 0x8, addend: 0x0, symName: '__ZNSt3__112__tuple_leafILm0EONS_6__bindIZN7CoTrain11LogMannager5errorENS_10shared_ptrINS2_8LogEventEEEE3$_3JEEELb0EE3getB7v160006Ev', symObjAddr: 0xF398, symBinAddr: 0x1000101D8, symSize: 0x18 }
  - { offsetInCU: 0x2DF28, offset: 0x2DF28, size: 0x8, addend: 0x0, symName: '__ZNSt3__16__bindIZN7CoTrain11LogMannager5errorENS_10shared_ptrINS1_8LogEventEEEE3$_3JEEC2EOS7_', symObjAddr: 0xF3B0, symBinAddr: 0x1000101F0, symSize: 0x34 }
  - { offsetInCU: 0x2DF5E, offset: 0x2DF5E, size: 0x8, addend: 0x0, symName: '__ZNSt3__112__tuple_leafILm0EONS_9allocatorINS_6__bindIZN7CoTrain11LogMannager5errorENS_10shared_ptrINS3_8LogEventEEEE3$_3JEEEEELb0EE3getB7v160006Ev', symObjAddr: 0xF408, symBinAddr: 0x100010248, symSize: 0x18 }
  - { offsetInCU: 0x2DF84, offset: 0x2DF84, size: 0x8, addend: 0x0, symName: '__ZNSt3__110__function6__funcINS_6__bindIZN7CoTrain11LogMannager5errorENS_10shared_ptrINS3_8LogEventEEEE3$_3JEEENS_9allocatorIS9_EEFvvEED2Ev', symObjAddr: 0xF420, symBinAddr: 0x100010260, symSize: 0x48 }
  - { offsetInCU: 0x2DFB1, offset: 0x2DFB1, size: 0x8, addend: 0x0, symName: '__ZNSt3__110__function12__alloc_funcINS_6__bindIZN7CoTrain11LogMannager5errorENS_10shared_ptrINS3_8LogEventEEEE3$_3JEEENS_9allocatorIS9_EEFvvEED1Ev', symObjAddr: 0xF468, symBinAddr: 0x1000102A8, symSize: 0x2C }
  - { offsetInCU: 0x2DFDD, offset: 0x2DFDD, size: 0x8, addend: 0x0, symName: '__ZNSt3__110__function12__alloc_funcINS_6__bindIZN7CoTrain11LogMannager5errorENS_10shared_ptrINS3_8LogEventEEEE3$_3JEEENS_9allocatorIS9_EEFvvEED2Ev', symObjAddr: 0xF494, symBinAddr: 0x1000102D4, symSize: 0x2C }
  - { offsetInCU: 0x2E009, offset: 0x2E009, size: 0x8, addend: 0x0, symName: '__ZNSt3__117__compressed_pairINS_6__bindIZN7CoTrain11LogMannager5errorENS_10shared_ptrINS2_8LogEventEEEE3$_3JEEENS_9allocatorIS8_EEED1Ev', symObjAddr: 0xF4C0, symBinAddr: 0x100010300, symSize: 0x2C }
  - { offsetInCU: 0x2E035, offset: 0x2E035, size: 0x8, addend: 0x0, symName: '__ZNSt3__117__compressed_pairINS_6__bindIZN7CoTrain11LogMannager5errorENS_10shared_ptrINS2_8LogEventEEEE3$_3JEEENS_9allocatorIS8_EEED2Ev', symObjAddr: 0xF4EC, symBinAddr: 0x10001032C, symSize: 0x2C }
  - { offsetInCU: 0x2E061, offset: 0x2E061, size: 0x8, addend: 0x0, symName: '__ZNKSt3__110__function12__alloc_funcINS_6__bindIZN7CoTrain11LogMannager5errorENS_10shared_ptrINS3_8LogEventEEEE3$_3JEEENS_9allocatorIS9_EEFvvEE15__get_allocatorB7v160006Ev', symObjAddr: 0xF518, symBinAddr: 0x100010358, symSize: 0x24 }
  - { offsetInCU: 0x2E0B5, offset: 0x2E0B5, size: 0x8, addend: 0x0, symName: '__ZNSt3__110unique_ptrINS_10__function6__funcINS_6__bindIZN7CoTrain11LogMannager5errorENS_10shared_ptrINS4_8LogEventEEEE3$_3JEEENS_9allocatorISA_EEFvvEEENS_22__allocator_destructorINSB_ISE_EEEEEC1B7v160006ILb1EvEEPSE_NS_16__dependent_typeINS_27__unique_ptr_deleter_sfinaeISH_EEXT_EE20__good_rval_ref_typeE', symObjAddr: 0xF53C, symBinAddr: 0x10001037C, symSize: 0x3C }
  - { offsetInCU: 0x2E108, offset: 0x2E108, size: 0x8, addend: 0x0, symName: '__ZNKSt3__110unique_ptrINS_10__function6__funcINS_6__bindIZN7CoTrain11LogMannager5errorENS_10shared_ptrINS4_8LogEventEEEE3$_3JEEENS_9allocatorISA_EEFvvEEENS_22__allocator_destructorINSB_ISE_EEEEE3getB7v160006Ev', symObjAddr: 0xF578, symBinAddr: 0x1000103B8, symSize: 0x28 }
  - { offsetInCU: 0x2E12E, offset: 0x2E12E, size: 0x8, addend: 0x0, symName: '__ZNKSt3__110__function12__alloc_funcINS_6__bindIZN7CoTrain11LogMannager5errorENS_10shared_ptrINS3_8LogEventEEEE3$_3JEEENS_9allocatorIS9_EEFvvEE8__targetB7v160006Ev', symObjAddr: 0xF5A0, symBinAddr: 0x1000103E0, symSize: 0x24 }
  - { offsetInCU: 0x2E15A, offset: 0x2E15A, size: 0x8, addend: 0x0, symName: '__ZNSt3__19allocatorINS_6__bindIZN7CoTrain11LogMannager5errorENS_10shared_ptrINS2_8LogEventEEEE3$_3JEEEEC1B7v160006INS_10__function6__funcIS8_S9_FvvEEEEERKNS0_IT_EE', symObjAddr: 0xF5C4, symBinAddr: 0x100010404, symSize: 0x34 }
  - { offsetInCU: 0x2E197, offset: 0x2E197, size: 0x8, addend: 0x0, symName: '__ZNSt3__110__function6__funcINS_6__bindIZN7CoTrain11LogMannager5errorENS_10shared_ptrINS3_8LogEventEEEE3$_3JEEENS_9allocatorIS9_EEFvvEEC1B7v160006ERKS9_OSB_', symObjAddr: 0xF5F8, symBinAddr: 0x100010438, symSize: 0x3C }
  - { offsetInCU: 0x2E1DF, offset: 0x2E1DF, size: 0x8, addend: 0x0, symName: '__ZNSt3__110unique_ptrINS_10__function6__funcINS_6__bindIZN7CoTrain11LogMannager5errorENS_10shared_ptrINS4_8LogEventEEEE3$_3JEEENS_9allocatorISA_EEFvvEEENS_22__allocator_destructorINSB_ISE_EEEEE7releaseB7v160006Ev', symObjAddr: 0xF634, symBinAddr: 0x100010474, symSize: 0x44 }
  - { offsetInCU: 0x2E214, offset: 0x2E214, size: 0x8, addend: 0x0, symName: '__ZNSt3__110unique_ptrINS_10__function6__funcINS_6__bindIZN7CoTrain11LogMannager5errorENS_10shared_ptrINS4_8LogEventEEEE3$_3JEEENS_9allocatorISA_EEFvvEEENS_22__allocator_destructorINSB_ISE_EEEEED1B7v160006Ev', symObjAddr: 0xF678, symBinAddr: 0x1000104B8, symSize: 0x2C }
  - { offsetInCU: 0x2E23E, offset: 0x2E23E, size: 0x8, addend: 0x0, symName: '__ZNKSt3__117__compressed_pairINS_6__bindIZN7CoTrain11LogMannager5errorENS_10shared_ptrINS2_8LogEventEEEE3$_3JEEENS_9allocatorIS8_EEE6secondB7v160006Ev', symObjAddr: 0xF6A4, symBinAddr: 0x1000104E4, symSize: 0x24 }
  - { offsetInCU: 0x2E264, offset: 0x2E264, size: 0x8, addend: 0x0, symName: '__ZNKSt3__122__compressed_pair_elemINS_9allocatorINS_6__bindIZN7CoTrain11LogMannager5errorENS_10shared_ptrINS3_8LogEventEEEE3$_3JEEEEELi1ELb1EE5__getB7v160006Ev', symObjAddr: 0xF6C8, symBinAddr: 0x100010508, symSize: 0x14 }
  - { offsetInCU: 0x2E28A, offset: 0x2E28A, size: 0x8, addend: 0x0, symName: '__ZNSt3__110unique_ptrINS_10__function6__funcINS_6__bindIZN7CoTrain11LogMannager5errorENS_10shared_ptrINS4_8LogEventEEEE3$_3JEEENS_9allocatorISA_EEFvvEEENS_22__allocator_destructorINSB_ISE_EEEEEC2B7v160006ILb1EvEEPSE_NS_16__dependent_typeINS_27__unique_ptr_deleter_sfinaeISH_EEXT_EE20__good_rval_ref_typeE', symObjAddr: 0xF6DC, symBinAddr: 0x10001051C, symSize: 0x48 }
  - { offsetInCU: 0x2E2DD, offset: 0x2E2DD, size: 0x8, addend: 0x0, symName: '__ZNKSt3__117__compressed_pairINS_6__bindIZN7CoTrain11LogMannager5errorENS_10shared_ptrINS2_8LogEventEEEE3$_3JEEENS_9allocatorIS8_EEE5firstB7v160006Ev', symObjAddr: 0xF724, symBinAddr: 0x100010564, symSize: 0x24 }
  - { offsetInCU: 0x2E303, offset: 0x2E303, size: 0x8, addend: 0x0, symName: '__ZNKSt3__122__compressed_pair_elemINS_6__bindIZN7CoTrain11LogMannager5errorENS_10shared_ptrINS2_8LogEventEEEE3$_3JEEELi0ELb0EE5__getB7v160006Ev', symObjAddr: 0xF748, symBinAddr: 0x100010588, symSize: 0x14 }
  - { offsetInCU: 0x2E329, offset: 0x2E329, size: 0x8, addend: 0x0, symName: '__ZNSt3__19allocatorINS_6__bindIZN7CoTrain11LogMannager5errorENS_10shared_ptrINS2_8LogEventEEEE3$_3JEEEEC2B7v160006INS_10__function6__funcIS8_S9_FvvEEEEERKNS0_IT_EE', symObjAddr: 0xF75C, symBinAddr: 0x10001059C, symSize: 0x30 }
  - { offsetInCU: 0x2E366, offset: 0x2E366, size: 0x8, addend: 0x0, symName: '__ZNSt3__110__function6__funcINS_6__bindIZN7CoTrain11LogMannager5errorENS_10shared_ptrINS3_8LogEventEEEE3$_3JEEENS_9allocatorIS9_EEFvvEEC2B7v160006ERKS9_OSB_', symObjAddr: 0xF78C, symBinAddr: 0x1000105CC, symSize: 0x88 }
  - { offsetInCU: 0x2E3AE, offset: 0x2E3AE, size: 0x8, addend: 0x0, symName: '__ZNSt3__110__function12__alloc_funcINS_6__bindIZN7CoTrain11LogMannager5errorENS_10shared_ptrINS3_8LogEventEEEE3$_3JEEENS_9allocatorIS9_EEFvvEEC1B7v160006ERKS9_OSB_', symObjAddr: 0xF814, symBinAddr: 0x100010654, symSize: 0x3C }
  - { offsetInCU: 0x2E3F6, offset: 0x2E3F6, size: 0x8, addend: 0x0, symName: '__ZNSt3__110__function12__alloc_funcINS_6__bindIZN7CoTrain11LogMannager5errorENS_10shared_ptrINS3_8LogEventEEEE3$_3JEEENS_9allocatorIS9_EEFvvEEC2B7v160006ERKS9_OSB_', symObjAddr: 0xF850, symBinAddr: 0x100010690, symSize: 0x5C }
  - { offsetInCU: 0x2E43E, offset: 0x2E43E, size: 0x8, addend: 0x0, symName: '__ZNSt3__117__compressed_pairINS_6__bindIZN7CoTrain11LogMannager5errorENS_10shared_ptrINS2_8LogEventEEEE3$_3JEEENS_9allocatorIS8_EEEC1B7v160006IJRKS8_EJOSA_EEENS_21piecewise_construct_tENS_5tupleIJDpT_EEENSH_IJDpT0_EEE', symObjAddr: 0xF8D8, symBinAddr: 0x100010718, symSize: 0x3C }
  - { offsetInCU: 0x2E4AB, offset: 0x2E4AB, size: 0x8, addend: 0x0, symName: '__ZNSt3__15tupleIJRKNS_6__bindIZN7CoTrain11LogMannager5errorENS_10shared_ptrINS2_8LogEventEEEE3$_3JEEEEEC1B7v160006INS_4_AndELi0EEESA_', symObjAddr: 0xF914, symBinAddr: 0x100010754, symSize: 0x34 }
  - { offsetInCU: 0x2E4F3, offset: 0x2E4F3, size: 0x8, addend: 0x0, symName: '__ZNSt3__15tupleIJRKNS_6__bindIZN7CoTrain11LogMannager5errorENS_10shared_ptrINS2_8LogEventEEEE3$_3JEEEEEC2B7v160006INS_4_AndELi0EEESA_', symObjAddr: 0xF948, symBinAddr: 0x100010788, symSize: 0x34 }
  - { offsetInCU: 0x2E53B, offset: 0x2E53B, size: 0x8, addend: 0x0, symName: '__ZNSt3__112__tuple_implINS_15__tuple_indicesIJLm0EEEEJRKNS_6__bindIZN7CoTrain11LogMannager5errorENS_10shared_ptrINS4_8LogEventEEEE3$_3JEEEEEC1B7v160006IJLm0EEJSC_EJEJEJSC_EEENS1_IJXspT_EEEENS_13__tuple_typesIJDpT0_EEENS1_IJXspT1_EEEENSG_IJDpT2_EEEDpOT3_', symObjAddr: 0xF97C, symBinAddr: 0x1000107BC, symSize: 0x34 }
  - { offsetInCU: 0x2E5D0, offset: 0x2E5D0, size: 0x8, addend: 0x0, symName: '__ZNSt3__112__tuple_implINS_15__tuple_indicesIJLm0EEEEJRKNS_6__bindIZN7CoTrain11LogMannager5errorENS_10shared_ptrINS4_8LogEventEEEE3$_3JEEEEEC2B7v160006IJLm0EEJSC_EJEJEJSC_EEENS1_IJXspT_EEEENS_13__tuple_typesIJDpT0_EEENS1_IJXspT1_EEEENSG_IJDpT2_EEEDpOT3_', symObjAddr: 0xF9B0, symBinAddr: 0x1000107F0, symSize: 0x34 }
  - { offsetInCU: 0x2E665, offset: 0x2E665, size: 0x8, addend: 0x0, symName: '__ZNSt3__112__tuple_leafILm0ERKNS_6__bindIZN7CoTrain11LogMannager5errorENS_10shared_ptrINS2_8LogEventEEEE3$_3JEEELb0EEC2B7v160006ISA_vEEOT_', symObjAddr: 0xF9E4, symBinAddr: 0x100010824, symSize: 0x20 }
  - { offsetInCU: 0x2E6A8, offset: 0x2E6A8, size: 0x8, addend: 0x0, symName: '__ZNSt3__117__compressed_pairINS_6__bindIZN7CoTrain11LogMannager5errorENS_10shared_ptrINS2_8LogEventEEEE3$_3JEEENS_9allocatorIS8_EEEC2B7v160006IJRKS8_EJOSA_EEENS_21piecewise_construct_tENS_5tupleIJDpT_EEENSH_IJDpT0_EEE', symObjAddr: 0xFA04, symBinAddr: 0x100010844, symSize: 0x54 }
  - { offsetInCU: 0x2E715, offset: 0x2E715, size: 0x8, addend: 0x0, symName: '__ZNSt3__122__compressed_pair_elemINS_6__bindIZN7CoTrain11LogMannager5errorENS_10shared_ptrINS2_8LogEventEEEE3$_3JEEELi0ELb0EEC2B7v160006IJRKS8_EJLm0EEEENS_21piecewise_construct_tENS_5tupleIJDpT_EEENS_15__tuple_indicesIJXspT0_EEEE', symObjAddr: 0xFA58, symBinAddr: 0x100010898, symSize: 0x44 }
  - { offsetInCU: 0x2E779, offset: 0x2E779, size: 0x8, addend: 0x0, symName: '__ZNSt3__16__bindIZN7CoTrain11LogMannager5errorENS_10shared_ptrINS1_8LogEventEEEE3$_3JEEC1ERKS7_', symObjAddr: 0xFAC0, symBinAddr: 0x100010900, symSize: 0x34 }
  - { offsetInCU: 0x2E7AF, offset: 0x2E7AF, size: 0x8, addend: 0x0, symName: '__ZNSt3__112__tuple_leafILm0ERKNS_6__bindIZN7CoTrain11LogMannager5errorENS_10shared_ptrINS2_8LogEventEEEE3$_3JEEELb0EE3getB7v160006Ev', symObjAddr: 0xFAF4, symBinAddr: 0x100010934, symSize: 0x18 }
  - { offsetInCU: 0x2E7D5, offset: 0x2E7D5, size: 0x8, addend: 0x0, symName: '__ZNSt3__16__bindIZN7CoTrain11LogMannager5errorENS_10shared_ptrINS1_8LogEventEEEE3$_3JEEC2ERKS7_', symObjAddr: 0xFB0C, symBinAddr: 0x10001094C, symSize: 0x34 }
  - { offsetInCU: 0x2E816, offset: 0x2E816, size: 0x8, addend: 0x0, symName: '__ZZN7CoTrain11LogMannager5errorENSt3__110shared_ptrINS_8LogEventEEEEN3$_3C1ERKS5_', symObjAddr: 0xFB40, symBinAddr: 0x100010980, symSize: 0x34 }
  - { offsetInCU: 0x2E84B, offset: 0x2E84B, size: 0x8, addend: 0x0, symName: '__ZZN7CoTrain11LogMannager5errorENSt3__110shared_ptrINS_8LogEventEEEEN3$_3C2ERKS5_', symObjAddr: 0xFB74, symBinAddr: 0x1000109B4, symSize: 0x48 }
  - { offsetInCU: 0x2E880, offset: 0x2E880, size: 0x8, addend: 0x0, symName: '__ZNSt3__117__compressed_pairIPNS_10__function6__funcINS_6__bindIZN7CoTrain11LogMannager5errorENS_10shared_ptrINS4_8LogEventEEEE3$_3JEEENS_9allocatorISA_EEFvvEEENS_22__allocator_destructorINSB_ISE_EEEEE5firstB7v160006Ev', symObjAddr: 0xFBBC, symBinAddr: 0x1000109FC, symSize: 0x24 }
  - { offsetInCU: 0x2E8A6, offset: 0x2E8A6, size: 0x8, addend: 0x0, symName: '__ZNSt3__122__compressed_pair_elemIPNS_10__function6__funcINS_6__bindIZN7CoTrain11LogMannager5errorENS_10shared_ptrINS4_8LogEventEEEE3$_3JEEENS_9allocatorISA_EEFvvEEELi0ELb0EE5__getB7v160006Ev', symObjAddr: 0xFBE0, symBinAddr: 0x100010A20, symSize: 0x14 }
  - { offsetInCU: 0x2E8CC, offset: 0x2E8CC, size: 0x8, addend: 0x0, symName: '__ZNSt3__110unique_ptrINS_10__function6__funcINS_6__bindIZN7CoTrain11LogMannager5errorENS_10shared_ptrINS4_8LogEventEEEE3$_3JEEENS_9allocatorISA_EEFvvEEENS_22__allocator_destructorINSB_ISE_EEEEED2B7v160006Ev', symObjAddr: 0xFBF4, symBinAddr: 0x100010A34, symSize: 0x30 }
  - { offsetInCU: 0x2E8F6, offset: 0x2E8F6, size: 0x8, addend: 0x0, symName: '__ZNSt3__110unique_ptrINS_10__function6__funcINS_6__bindIZN7CoTrain11LogMannager5errorENS_10shared_ptrINS4_8LogEventEEEE3$_3JEEENS_9allocatorISA_EEFvvEEENS_22__allocator_destructorINSB_ISE_EEEEE5resetB7v160006EPSE_', symObjAddr: 0xFC24, symBinAddr: 0x100010A64, symSize: 0x78 }
  - { offsetInCU: 0x2E93A, offset: 0x2E93A, size: 0x8, addend: 0x0, symName: '__ZNSt3__117__compressed_pairIPNS_10__function6__funcINS_6__bindIZN7CoTrain11LogMannager5errorENS_10shared_ptrINS4_8LogEventEEEE3$_3JEEENS_9allocatorISA_EEFvvEEENS_22__allocator_destructorINSB_ISE_EEEEE6secondB7v160006Ev', symObjAddr: 0xFC9C, symBinAddr: 0x100010ADC, symSize: 0x28 }
  - { offsetInCU: 0x2E960, offset: 0x2E960, size: 0x8, addend: 0x0, symName: '__ZNSt3__122__allocator_destructorINS_9allocatorINS_10__function6__funcINS_6__bindIZN7CoTrain11LogMannager5errorENS_10shared_ptrINS5_8LogEventEEEE3$_3JEEENS1_ISB_EEFvvEEEEEEclB7v160006EPSE_', symObjAddr: 0xFCC4, symBinAddr: 0x100010B04, symSize: 0x34 }
  - { offsetInCU: 0x2E995, offset: 0x2E995, size: 0x8, addend: 0x0, symName: '__ZNSt3__122__compressed_pair_elemINS_22__allocator_destructorINS_9allocatorINS_10__function6__funcINS_6__bindIZN7CoTrain11LogMannager5errorENS_10shared_ptrINS6_8LogEventEEEE3$_3JEEENS2_ISC_EEFvvEEEEEEELi1ELb0EE5__getB7v160006Ev', symObjAddr: 0xFCF8, symBinAddr: 0x100010B38, symSize: 0x14 }
  - { offsetInCU: 0x2E9BB, offset: 0x2E9BB, size: 0x8, addend: 0x0, symName: '__ZNSt3__116allocator_traitsINS_9allocatorINS_10__function6__funcINS_6__bindIZN7CoTrain11LogMannager5errorENS_10shared_ptrINS5_8LogEventEEEE3$_3JEEENS1_ISB_EEFvvEEEEEE10deallocateB7v160006ERSF_PSE_m', symObjAddr: 0xFD0C, symBinAddr: 0x100010B4C, symSize: 0x34 }
  - { offsetInCU: 0x2E9FD, offset: 0x2E9FD, size: 0x8, addend: 0x0, symName: '__ZNSt3__19allocatorINS_10__function6__funcINS_6__bindIZN7CoTrain11LogMannager5errorENS_10shared_ptrINS4_8LogEventEEEE3$_3JEEENS0_ISA_EEFvvEEEE10deallocateB7v160006EPSD_m', symObjAddr: 0xFD40, symBinAddr: 0x100010B80, symSize: 0x44 }
  - { offsetInCU: 0x2EA41, offset: 0x2EA41, size: 0x8, addend: 0x0, symName: '__ZNSt3__110__function6__funcINS_6__bindIZN7CoTrain11LogMannager5errorENS_10shared_ptrINS3_8LogEventEEEE3$_3JEEENS_9allocatorIS9_EEFvvEEC1B7v160006ERKS9_RKSB_', symObjAddr: 0xFD84, symBinAddr: 0x100010BC4, symSize: 0x3C }
  - { offsetInCU: 0x2EA89, offset: 0x2EA89, size: 0x8, addend: 0x0, symName: '__ZNSt3__110__function6__funcINS_6__bindIZN7CoTrain11LogMannager5errorENS_10shared_ptrINS3_8LogEventEEEE3$_3JEEENS_9allocatorIS9_EEFvvEEC2B7v160006ERKS9_RKSB_', symObjAddr: 0xFDC0, symBinAddr: 0x100010C00, symSize: 0x88 }
  - { offsetInCU: 0x2EAD1, offset: 0x2EAD1, size: 0x8, addend: 0x0, symName: '__ZNSt3__110__function12__alloc_funcINS_6__bindIZN7CoTrain11LogMannager5errorENS_10shared_ptrINS3_8LogEventEEEE3$_3JEEENS_9allocatorIS9_EEFvvEEC1B7v160006ERKS9_RKSB_', symObjAddr: 0xFE48, symBinAddr: 0x100010C88, symSize: 0x3C }
  - { offsetInCU: 0x2EB19, offset: 0x2EB19, size: 0x8, addend: 0x0, symName: '__ZNSt3__110__function12__alloc_funcINS_6__bindIZN7CoTrain11LogMannager5errorENS_10shared_ptrINS3_8LogEventEEEE3$_3JEEENS_9allocatorIS9_EEFvvEEC2B7v160006ERKS9_RKSB_', symObjAddr: 0xFE84, symBinAddr: 0x100010CC4, symSize: 0x5C }
  - { offsetInCU: 0x2EB61, offset: 0x2EB61, size: 0x8, addend: 0x0, symName: '__ZNSt3__117__compressed_pairINS_6__bindIZN7CoTrain11LogMannager5errorENS_10shared_ptrINS2_8LogEventEEEE3$_3JEEENS_9allocatorIS8_EEEC1B7v160006IJRKS8_EJRKSA_EEENS_21piecewise_construct_tENS_5tupleIJDpT_EEENSI_IJDpT0_EEE', symObjAddr: 0xFF0C, symBinAddr: 0x100010D4C, symSize: 0x3C }
  - { offsetInCU: 0x2EBCE, offset: 0x2EBCE, size: 0x8, addend: 0x0, symName: '__ZNSt3__15tupleIJRKNS_9allocatorINS_6__bindIZN7CoTrain11LogMannager5errorENS_10shared_ptrINS3_8LogEventEEEE3$_3JEEEEEEEC1B7v160006INS_4_AndELi0EEESC_', symObjAddr: 0xFF48, symBinAddr: 0x100010D88, symSize: 0x34 }
  - { offsetInCU: 0x2EC16, offset: 0x2EC16, size: 0x8, addend: 0x0, symName: '__ZNSt3__15tupleIJRKNS_9allocatorINS_6__bindIZN7CoTrain11LogMannager5errorENS_10shared_ptrINS3_8LogEventEEEE3$_3JEEEEEEEC2B7v160006INS_4_AndELi0EEESC_', symObjAddr: 0xFF7C, symBinAddr: 0x100010DBC, symSize: 0x34 }
  - { offsetInCU: 0x2EC5E, offset: 0x2EC5E, size: 0x8, addend: 0x0, symName: '__ZNSt3__112__tuple_implINS_15__tuple_indicesIJLm0EEEEJRKNS_9allocatorINS_6__bindIZN7CoTrain11LogMannager5errorENS_10shared_ptrINS5_8LogEventEEEE3$_3JEEEEEEEC1B7v160006IJLm0EEJSE_EJEJEJSE_EEENS1_IJXspT_EEEENS_13__tuple_typesIJDpT0_EEENS1_IJXspT1_EEEENSI_IJDpT2_EEEDpOT3_', symObjAddr: 0xFFB0, symBinAddr: 0x100010DF0, symSize: 0x34 }
  - { offsetInCU: 0x2ECF3, offset: 0x2ECF3, size: 0x8, addend: 0x0, symName: '__ZNSt3__112__tuple_implINS_15__tuple_indicesIJLm0EEEEJRKNS_9allocatorINS_6__bindIZN7CoTrain11LogMannager5errorENS_10shared_ptrINS5_8LogEventEEEE3$_3JEEEEEEEC2B7v160006IJLm0EEJSE_EJEJEJSE_EEENS1_IJXspT_EEEENS_13__tuple_typesIJDpT0_EEENS1_IJXspT1_EEEENSI_IJDpT2_EEEDpOT3_', symObjAddr: 0xFFE4, symBinAddr: 0x100010E24, symSize: 0x34 }
  - { offsetInCU: 0x2ED88, offset: 0x2ED88, size: 0x8, addend: 0x0, symName: '__ZNSt3__112__tuple_leafILm0ERKNS_9allocatorINS_6__bindIZN7CoTrain11LogMannager5errorENS_10shared_ptrINS3_8LogEventEEEE3$_3JEEEEELb0EEC2B7v160006ISC_vEEOT_', symObjAddr: 0x10018, symBinAddr: 0x100010E58, symSize: 0x20 }
  - { offsetInCU: 0x2EDCB, offset: 0x2EDCB, size: 0x8, addend: 0x0, symName: '__ZNSt3__117__compressed_pairINS_6__bindIZN7CoTrain11LogMannager5errorENS_10shared_ptrINS2_8LogEventEEEE3$_3JEEENS_9allocatorIS8_EEEC2B7v160006IJRKS8_EJRKSA_EEENS_21piecewise_construct_tENS_5tupleIJDpT_EEENSI_IJDpT0_EEE', symObjAddr: 0x10038, symBinAddr: 0x100010E78, symSize: 0x7C }
  - { offsetInCU: 0x2EE38, offset: 0x2EE38, size: 0x8, addend: 0x0, symName: '__ZNSt3__122__compressed_pair_elemINS_9allocatorINS_6__bindIZN7CoTrain11LogMannager5errorENS_10shared_ptrINS3_8LogEventEEEE3$_3JEEEEELi1ELb1EEC2B7v160006IJRKSA_EJLm0EEEENS_21piecewise_construct_tENS_5tupleIJDpT_EEENS_15__tuple_indicesIJXspT0_EEEE', symObjAddr: 0x100B4, symBinAddr: 0x100010EF4, symSize: 0x38 }
  - { offsetInCU: 0x2EE9C, offset: 0x2EE9C, size: 0x8, addend: 0x0, symName: '__ZNSt3__112__tuple_leafILm0ERKNS_9allocatorINS_6__bindIZN7CoTrain11LogMannager5errorENS_10shared_ptrINS3_8LogEventEEEE3$_3JEEEEELb0EE3getB7v160006Ev', symObjAddr: 0x10110, symBinAddr: 0x100010F50, symSize: 0x18 }
  - { offsetInCU: 0x2EEC2, offset: 0x2EEC2, size: 0x8, addend: 0x0, symName: '__ZNSt3__110__function12__alloc_funcINS_6__bindIZN7CoTrain11LogMannager5errorENS_10shared_ptrINS3_8LogEventEEEE3$_3JEEENS_9allocatorIS9_EEFvvEE7destroyB7v160006Ev', symObjAddr: 0x10128, symBinAddr: 0x100010F68, symSize: 0x24 }
  - { offsetInCU: 0x2EEE8, offset: 0x2EEE8, size: 0x8, addend: 0x0, symName: '__ZNSt3__110__function12__alloc_funcINS_6__bindIZN7CoTrain11LogMannager5errorENS_10shared_ptrINS3_8LogEventEEEE3$_3JEEENS_9allocatorIS9_EEFvvEEclB7v160006Ev', symObjAddr: 0x1014C, symBinAddr: 0x100010F8C, symSize: 0x28 }
  - { offsetInCU: 0x2EF0E, offset: 0x2EF0E, size: 0x8, addend: 0x0, symName: '__ZNSt3__128__invoke_void_return_wrapperIvLb1EE6__callIJRNS_6__bindIZN7CoTrain11LogMannager5errorENS_10shared_ptrINS4_8LogEventEEEE3$_3JEEEEEEvDpOT_', symObjAddr: 0x10174, symBinAddr: 0x100010FB4, symSize: 0x24 }
  - { offsetInCU: 0x2EF3D, offset: 0x2EF3D, size: 0x8, addend: 0x0, symName: '__ZNSt3__117__compressed_pairINS_6__bindIZN7CoTrain11LogMannager5errorENS_10shared_ptrINS2_8LogEventEEEE3$_3JEEENS_9allocatorIS8_EEE5firstB7v160006Ev', symObjAddr: 0x10198, symBinAddr: 0x100010FD8, symSize: 0x24 }
  - { offsetInCU: 0x2EF63, offset: 0x2EF63, size: 0x8, addend: 0x0, symName: '__ZNSt3__16__bindIZN7CoTrain11LogMannager5errorENS_10shared_ptrINS1_8LogEventEEEE3$_3JEEclB7v160006IJEEENS_13__bind_returnIS6_NS_5tupleIJEEENSA_IJDpOT_EEEXsr22__is_valid_bind_returnIS6_SB_SF_EE5valueEE4typeESE_', symObjAddr: 0x101E0, symBinAddr: 0x100011020, symSize: 0x30 }
  - { offsetInCU: 0x2EF94, offset: 0x2EF94, size: 0x8, addend: 0x0, symName: '__ZZN7CoTrain11LogMannager5errorENSt3__110shared_ptrINS_8LogEventEEEENK3$_3clEv', symObjAddr: 0x10260, symBinAddr: 0x1000110A0, symSize: 0x84 }
  - { offsetInCU: 0x2EFBE, offset: 0x2EFBE, size: 0x8, addend: 0x0, symName: '__ZNSt3__122__compressed_pair_elemINS_6__bindIZN7CoTrain11LogMannager5errorENS_10shared_ptrINS2_8LogEventEEEE3$_3JEEELi0ELb0EE5__getB7v160006Ev', symObjAddr: 0x102E4, symBinAddr: 0x100011124, symSize: 0x14 }
  - { offsetInCU: 0x2EFE4, offset: 0x2EFE4, size: 0x8, addend: 0x0, symName: '__ZNSt3__110unique_ptrINS_10__function6__baseIFvvEEENS_22__allocator_destructorINS_9allocatorINS1_6__funcINS_6__bindIZN7CoTrain11LogMannager5errorENS_10shared_ptrINS9_8LogEventEEEE3$_3JEEENS6_ISF_EES3_EEEEEEED2B7v160006Ev', symObjAddr: 0x102F8, symBinAddr: 0x100011138, symSize: 0x30 }
  - { offsetInCU: 0x2F00E, offset: 0x2F00E, size: 0x8, addend: 0x0, symName: '__ZNSt3__110unique_ptrINS_10__function6__baseIFvvEEENS_22__allocator_destructorINS_9allocatorINS1_6__funcINS_6__bindIZN7CoTrain11LogMannager5errorENS_10shared_ptrINS9_8LogEventEEEE3$_3JEEENS6_ISF_EES3_EEEEEEE5resetB7v160006EPSH_', symObjAddr: 0x10328, symBinAddr: 0x100011168, symSize: 0x78 }
  - { offsetInCU: 0x2F052, offset: 0x2F052, size: 0x8, addend: 0x0, symName: '__ZNSt3__16__bindIZN7CoTrain11LogMannager5errorENS_10shared_ptrINS1_8LogEventEEEE3$_3JEED2Ev', symObjAddr: 0x103A0, symBinAddr: 0x1000111E0, symSize: 0x2C }
  - { offsetInCU: 0x2F07F, offset: 0x2F07F, size: 0x8, addend: 0x0, symName: '__ZN7CoTrain4TaskC2IZNS_11LogMannager5fatalENSt3__110shared_ptrINS_8LogEventEEEE3$_4JEEEiOT_DpOT0_', symObjAddr: 0x103CC, symBinAddr: 0x10001120C, symSize: 0x84 }
  - { offsetInCU: 0x2F0D5, offset: 0x2F0D5, size: 0x8, addend: 0x0, symName: '__ZNSt3__18functionIFvvEEC1INS_6__bindIZN7CoTrain11LogMannager5fatalENS_10shared_ptrINS5_8LogEventEEEE3$_4JEEEvEET_', symObjAddr: 0x10488, symBinAddr: 0x1000112C8, symSize: 0x34 }
  - { offsetInCU: 0x2F121, offset: 0x2F121, size: 0x8, addend: 0x0, symName: '__ZNSt3__16__bindIZN7CoTrain11LogMannager5fatalENS_10shared_ptrINS1_8LogEventEEEE3$_4JEED1Ev', symObjAddr: 0x104BC, symBinAddr: 0x1000112FC, symSize: 0x2C }
  - { offsetInCU: 0x2F14E, offset: 0x2F14E, size: 0x8, addend: 0x0, symName: '__ZNSt3__16__bindIZN7CoTrain11LogMannager5fatalENS_10shared_ptrINS1_8LogEventEEEE3$_4JEEC1B7v160006IS6_JEvEEOT_DpOT0_', symObjAddr: 0x104E8, symBinAddr: 0x100011328, symSize: 0x34 }
  - { offsetInCU: 0x2F196, offset: 0x2F196, size: 0x8, addend: 0x0, symName: '__ZNSt3__16__bindIZN7CoTrain11LogMannager5fatalENS_10shared_ptrINS1_8LogEventEEEE3$_4JEEC2B7v160006IS6_JEvEEOT_DpOT0_', symObjAddr: 0x1051C, symBinAddr: 0x10001135C, symSize: 0x34 }
  - { offsetInCU: 0x2F1DE, offset: 0x2F1DE, size: 0x8, addend: 0x0, symName: '__ZZN7CoTrain11LogMannager5fatalENSt3__110shared_ptrINS_8LogEventEEEEN3$_4C1EOS5_', symObjAddr: 0x10550, symBinAddr: 0x100011390, symSize: 0x34 }
  - { offsetInCU: 0x2F213, offset: 0x2F213, size: 0x8, addend: 0x0, symName: '__ZZN7CoTrain11LogMannager5fatalENSt3__110shared_ptrINS_8LogEventEEEEN3$_4C2EOS5_', symObjAddr: 0x10584, symBinAddr: 0x1000113C4, symSize: 0x48 }
  - { offsetInCU: 0x2F248, offset: 0x2F248, size: 0x8, addend: 0x0, symName: '__ZNSt3__18functionIFvvEEC2INS_6__bindIZN7CoTrain11LogMannager5fatalENS_10shared_ptrINS5_8LogEventEEEE3$_4JEEEvEET_', symObjAddr: 0x105CC, symBinAddr: 0x10001140C, symSize: 0x34 }
  - { offsetInCU: 0x2F28E, offset: 0x2F28E, size: 0x8, addend: 0x0, symName: '__ZNSt3__110__function12__value_funcIFvvEEC1B7v160006INS_6__bindIZN7CoTrain11LogMannager5fatalENS_10shared_ptrINS6_8LogEventEEEE3$_4JEEEvEEOT_', symObjAddr: 0x10600, symBinAddr: 0x100011440, symSize: 0x50 }
  - { offsetInCU: 0x2F2D1, offset: 0x2F2D1, size: 0x8, addend: 0x0, symName: '__ZNSt3__19allocatorINS_6__bindIZN7CoTrain11LogMannager5fatalENS_10shared_ptrINS2_8LogEventEEEE3$_4JEEEEC1B7v160006Ev', symObjAddr: 0x10650, symBinAddr: 0x100011490, symSize: 0x2C }
  - { offsetInCU: 0x2F2FB, offset: 0x2F2FB, size: 0x8, addend: 0x0, symName: '__ZNSt3__110__function12__value_funcIFvvEEC1B7v160006INS_6__bindIZN7CoTrain11LogMannager5fatalENS_10shared_ptrINS6_8LogEventEEEE3$_4JEEENS_9allocatorISC_EEEEOT_RKT0_', symObjAddr: 0x1067C, symBinAddr: 0x1000114BC, symSize: 0x3C }
  - { offsetInCU: 0x2F355, offset: 0x2F355, size: 0x8, addend: 0x0, symName: '__ZNSt3__19allocatorINS_6__bindIZN7CoTrain11LogMannager5fatalENS_10shared_ptrINS2_8LogEventEEEE3$_4JEEEEC2B7v160006Ev', symObjAddr: 0x106B8, symBinAddr: 0x1000114F8, symSize: 0x2C }
  - { offsetInCU: 0x2F37F, offset: 0x2F37F, size: 0x8, addend: 0x0, symName: '__ZNSt3__116__non_trivial_ifILb1ENS_9allocatorINS_6__bindIZN7CoTrain11LogMannager5fatalENS_10shared_ptrINS3_8LogEventEEEE3$_4JEEEEEEC2B7v160006Ev', symObjAddr: 0x106E4, symBinAddr: 0x100011524, symSize: 0x14 }
  - { offsetInCU: 0x2F3A9, offset: 0x2F3A9, size: 0x8, addend: 0x0, symName: '__ZNSt3__110__function12__value_funcIFvvEEC2B7v160006INS_6__bindIZN7CoTrain11LogMannager5fatalENS_10shared_ptrINS6_8LogEventEEEE3$_4JEEENS_9allocatorISC_EEEEOT_RKT0_', symObjAddr: 0x106F8, symBinAddr: 0x100011538, symSize: 0xF4 }
  - { offsetInCU: 0x2F462, offset: 0x2F462, size: 0x8, addend: 0x0, symName: '__ZNSt3__19allocatorINS_10__function6__funcINS_6__bindIZN7CoTrain11LogMannager5fatalENS_10shared_ptrINS4_8LogEventEEEE3$_4JEEENS0_ISA_EEFvvEEEEC1B7v160006ISA_EERKNS0_IT_EE', symObjAddr: 0x10804, symBinAddr: 0x100011644, symSize: 0x34 }
  - { offsetInCU: 0x2F49F, offset: 0x2F49F, size: 0x8, addend: 0x0, symName: '__ZNSt3__19allocatorINS_10__function6__funcINS_6__bindIZN7CoTrain11LogMannager5fatalENS_10shared_ptrINS4_8LogEventEEEE3$_4JEEENS0_ISA_EEFvvEEEE8allocateB7v160006Em', symObjAddr: 0x10838, symBinAddr: 0x100011678, symSize: 0x5C }
  - { offsetInCU: 0x2F4E6, offset: 0x2F4E6, size: 0x8, addend: 0x0, symName: '__ZNSt3__122__allocator_destructorINS_9allocatorINS_10__function6__funcINS_6__bindIZN7CoTrain11LogMannager5fatalENS_10shared_ptrINS5_8LogEventEEEE3$_4JEEENS1_ISB_EEFvvEEEEEEC1B7v160006ERSF_m', symObjAddr: 0x10894, symBinAddr: 0x1000116D4, symSize: 0x3C }
  - { offsetInCU: 0x2F5CF, offset: 0x2F5CF, size: 0x8, addend: 0x0, symName: '__ZNSt3__110unique_ptrINS_10__function6__baseIFvvEEENS_22__allocator_destructorINS_9allocatorINS1_6__funcINS_6__bindIZN7CoTrain11LogMannager5fatalENS_10shared_ptrINS9_8LogEventEEEE3$_4JEEENS6_ISF_EES3_EEEEEEEC1B7v160006ILb1EvEEPSH_NS_16__dependent_typeINS_27__unique_ptr_deleter_sfinaeISJ_EEXT_EE20__good_rval_ref_typeE', symObjAddr: 0x108D0, symBinAddr: 0x100011710, symSize: 0x3C }
  - { offsetInCU: 0x2F622, offset: 0x2F622, size: 0x8, addend: 0x0, symName: '__ZNKSt3__110unique_ptrINS_10__function6__baseIFvvEEENS_22__allocator_destructorINS_9allocatorINS1_6__funcINS_6__bindIZN7CoTrain11LogMannager5fatalENS_10shared_ptrINS9_8LogEventEEEE3$_4JEEENS6_ISF_EES3_EEEEEEE3getB7v160006Ev', symObjAddr: 0x1090C, symBinAddr: 0x10001174C, symSize: 0x28 }
  - { offsetInCU: 0x2F648, offset: 0x2F648, size: 0x8, addend: 0x0, symName: '__ZNSt3__110__function6__funcINS_6__bindIZN7CoTrain11LogMannager5fatalENS_10shared_ptrINS3_8LogEventEEEE3$_4JEEENS_9allocatorIS9_EEFvvEEC1B7v160006EOS9_OSB_', symObjAddr: 0x10934, symBinAddr: 0x100011774, symSize: 0x3C }
  - { offsetInCU: 0x2F690, offset: 0x2F690, size: 0x8, addend: 0x0, symName: '__ZNSt3__110unique_ptrINS_10__function6__baseIFvvEEENS_22__allocator_destructorINS_9allocatorINS1_6__funcINS_6__bindIZN7CoTrain11LogMannager5fatalENS_10shared_ptrINS9_8LogEventEEEE3$_4JEEENS6_ISF_EES3_EEEEEEE7releaseB7v160006Ev', symObjAddr: 0x10970, symBinAddr: 0x1000117B0, symSize: 0x44 }
  - { offsetInCU: 0x2F6C5, offset: 0x2F6C5, size: 0x8, addend: 0x0, symName: '__ZNSt3__110unique_ptrINS_10__function6__baseIFvvEEENS_22__allocator_destructorINS_9allocatorINS1_6__funcINS_6__bindIZN7CoTrain11LogMannager5fatalENS_10shared_ptrINS9_8LogEventEEEE3$_4JEEENS6_ISF_EES3_EEEEEEED1B7v160006Ev', symObjAddr: 0x109B4, symBinAddr: 0x1000117F4, symSize: 0x2C }
  - { offsetInCU: 0x2F6EF, offset: 0x2F6EF, size: 0x8, addend: 0x0, symName: '__ZNSt3__19allocatorINS_10__function6__funcINS_6__bindIZN7CoTrain11LogMannager5fatalENS_10shared_ptrINS4_8LogEventEEEE3$_4JEEENS0_ISA_EEFvvEEEEC2B7v160006ISA_EERKNS0_IT_EE', symObjAddr: 0x109E0, symBinAddr: 0x100011820, symSize: 0x30 }
  - { offsetInCU: 0x2F72C, offset: 0x2F72C, size: 0x8, addend: 0x0, symName: '__ZNSt3__116__non_trivial_ifILb1ENS_9allocatorINS_10__function6__funcINS_6__bindIZN7CoTrain11LogMannager5fatalENS_10shared_ptrINS5_8LogEventEEEE3$_4JEEENS1_ISB_EEFvvEEEEEEC2B7v160006Ev', symObjAddr: 0x10A10, symBinAddr: 0x100011850, symSize: 0x14 }
  - { offsetInCU: 0x2F761, offset: 0x2F761, size: 0x8, addend: 0x0, symName: '__ZNSt3__116allocator_traitsINS_9allocatorINS_10__function6__funcINS_6__bindIZN7CoTrain11LogMannager5fatalENS_10shared_ptrINS5_8LogEventEEEE3$_4JEEENS1_ISB_EEFvvEEEEEE8max_sizeB7v160006ISF_vEEmRKSF_', symObjAddr: 0x10A24, symBinAddr: 0x100011864, symSize: 0x24 }
  - { offsetInCU: 0x2F78F, offset: 0x2F78F, size: 0x8, addend: 0x0, symName: '__ZNKSt3__19allocatorINS_10__function6__funcINS_6__bindIZN7CoTrain11LogMannager5fatalENS_10shared_ptrINS4_8LogEventEEEE3$_4JEEENS0_ISA_EEFvvEEEE8max_sizeB7v160006Ev', symObjAddr: 0x10A48, symBinAddr: 0x100011888, symSize: 0x18 }
  - { offsetInCU: 0x2F7B5, offset: 0x2F7B5, size: 0x8, addend: 0x0, symName: '__ZNSt3__122__allocator_destructorINS_9allocatorINS_10__function6__funcINS_6__bindIZN7CoTrain11LogMannager5fatalENS_10shared_ptrINS5_8LogEventEEEE3$_4JEEENS1_ISB_EEFvvEEEEEEC2B7v160006ERSF_m', symObjAddr: 0x10A60, symBinAddr: 0x1000118A0, symSize: 0x2C }
  - { offsetInCU: 0x2F7FD, offset: 0x2F7FD, size: 0x8, addend: 0x0, symName: '__ZNSt3__110unique_ptrINS_10__function6__baseIFvvEEENS_22__allocator_destructorINS_9allocatorINS1_6__funcINS_6__bindIZN7CoTrain11LogMannager5fatalENS_10shared_ptrINS9_8LogEventEEEE3$_4JEEENS6_ISF_EES3_EEEEEEEC2B7v160006ILb1EvEEPSH_NS_16__dependent_typeINS_27__unique_ptr_deleter_sfinaeISJ_EEXT_EE20__good_rval_ref_typeE', symObjAddr: 0x10A8C, symBinAddr: 0x1000118CC, symSize: 0x48 }
  - { offsetInCU: 0x2F850, offset: 0x2F850, size: 0x8, addend: 0x0, symName: '__ZNSt3__117__compressed_pairIPNS_10__function6__funcINS_6__bindIZN7CoTrain11LogMannager5fatalENS_10shared_ptrINS4_8LogEventEEEE3$_4JEEENS_9allocatorISA_EEFvvEEENS_22__allocator_destructorINSB_ISE_EEEEEC1B7v160006IRSF_SI_EEOT_OT0_', symObjAddr: 0x10AD4, symBinAddr: 0x100011914, symSize: 0x3C }
  - { offsetInCU: 0x2F8AA, offset: 0x2F8AA, size: 0x8, addend: 0x0, symName: '__ZNSt3__117__compressed_pairIPNS_10__function6__funcINS_6__bindIZN7CoTrain11LogMannager5fatalENS_10shared_ptrINS4_8LogEventEEEE3$_4JEEENS_9allocatorISA_EEFvvEEENS_22__allocator_destructorINSB_ISE_EEEEEC2B7v160006IRSF_SI_EEOT_OT0_', symObjAddr: 0x10B10, symBinAddr: 0x100011950, symSize: 0x48 }
  - { offsetInCU: 0x2F904, offset: 0x2F904, size: 0x8, addend: 0x0, symName: '__ZNSt3__122__compressed_pair_elemIPNS_10__function6__funcINS_6__bindIZN7CoTrain11LogMannager5fatalENS_10shared_ptrINS4_8LogEventEEEE3$_4JEEENS_9allocatorISA_EEFvvEEELi0ELb0EEC2B7v160006IRSF_vEEOT_', symObjAddr: 0x10B58, symBinAddr: 0x100011998, symSize: 0x24 }
  - { offsetInCU: 0x2F947, offset: 0x2F947, size: 0x8, addend: 0x0, symName: '__ZNSt3__122__compressed_pair_elemINS_22__allocator_destructorINS_9allocatorINS_10__function6__funcINS_6__bindIZN7CoTrain11LogMannager5fatalENS_10shared_ptrINS6_8LogEventEEEE3$_4JEEENS2_ISC_EEFvvEEEEEEELi1ELb0EEC2B7v160006ISH_vEEOT_', symObjAddr: 0x10B7C, symBinAddr: 0x1000119BC, symSize: 0x24 }
  - { offsetInCU: 0x2F98A, offset: 0x2F98A, size: 0x8, addend: 0x0, symName: '__ZNKSt3__117__compressed_pairIPNS_10__function6__funcINS_6__bindIZN7CoTrain11LogMannager5fatalENS_10shared_ptrINS4_8LogEventEEEE3$_4JEEENS_9allocatorISA_EEFvvEEENS_22__allocator_destructorINSB_ISE_EEEEE5firstB7v160006Ev', symObjAddr: 0x10BA0, symBinAddr: 0x1000119E0, symSize: 0x24 }
  - { offsetInCU: 0x2F9B0, offset: 0x2F9B0, size: 0x8, addend: 0x0, symName: '__ZNKSt3__122__compressed_pair_elemIPNS_10__function6__funcINS_6__bindIZN7CoTrain11LogMannager5fatalENS_10shared_ptrINS4_8LogEventEEEE3$_4JEEENS_9allocatorISA_EEFvvEEELi0ELb0EE5__getB7v160006Ev', symObjAddr: 0x10BC4, symBinAddr: 0x100011A04, symSize: 0x14 }
  - { offsetInCU: 0x2F9D6, offset: 0x2F9D6, size: 0x8, addend: 0x0, symName: '__ZNSt3__110__function6__funcINS_6__bindIZN7CoTrain11LogMannager5fatalENS_10shared_ptrINS3_8LogEventEEEE3$_4JEEENS_9allocatorIS9_EEFvvEEC2B7v160006EOS9_OSB_', symObjAddr: 0x10BD8, symBinAddr: 0x100011A18, symSize: 0x88 }
  - { offsetInCU: 0x2FA1E, offset: 0x2FA1E, size: 0x8, addend: 0x0, symName: '__ZNSt3__110__function12__alloc_funcINS_6__bindIZN7CoTrain11LogMannager5fatalENS_10shared_ptrINS3_8LogEventEEEE3$_4JEEENS_9allocatorIS9_EEFvvEEC1B7v160006EOS9_OSB_', symObjAddr: 0x10C60, symBinAddr: 0x100011AA0, symSize: 0x3C }
  - { offsetInCU: 0x2FA66, offset: 0x2FA66, size: 0x8, addend: 0x0, symName: '__ZNSt3__110__function6__funcINS_6__bindIZN7CoTrain11LogMannager5fatalENS_10shared_ptrINS3_8LogEventEEEE3$_4JEEENS_9allocatorIS9_EEFvvEED1Ev', symObjAddr: 0x10C9C, symBinAddr: 0x100011ADC, symSize: 0x2C }
  - { offsetInCU: 0x2FA93, offset: 0x2FA93, size: 0x8, addend: 0x0, symName: '__ZNSt3__110__function6__funcINS_6__bindIZN7CoTrain11LogMannager5fatalENS_10shared_ptrINS3_8LogEventEEEE3$_4JEEENS_9allocatorIS9_EEFvvEED0Ev', symObjAddr: 0x10CC8, symBinAddr: 0x100011B08, symSize: 0x30 }
  - { offsetInCU: 0x2FAC0, offset: 0x2FAC0, size: 0x8, addend: 0x0, symName: '__ZNKSt3__110__function6__funcINS_6__bindIZN7CoTrain11LogMannager5fatalENS_10shared_ptrINS3_8LogEventEEEE3$_4JEEENS_9allocatorIS9_EEFvvEE7__cloneEv', symObjAddr: 0x10CF8, symBinAddr: 0x100011B38, symSize: 0xFC }
  - { offsetInCU: 0x2FB12, offset: 0x2FB12, size: 0x8, addend: 0x0, symName: '__ZNKSt3__110__function6__funcINS_6__bindIZN7CoTrain11LogMannager5fatalENS_10shared_ptrINS3_8LogEventEEEE3$_4JEEENS_9allocatorIS9_EEFvvEE7__cloneEPNS0_6__baseISC_EE', symObjAddr: 0x10DF4, symBinAddr: 0x100011C34, symSize: 0x58 }
  - { offsetInCU: 0x2FB49, offset: 0x2FB49, size: 0x8, addend: 0x0, symName: '__ZNSt3__110__function6__funcINS_6__bindIZN7CoTrain11LogMannager5fatalENS_10shared_ptrINS3_8LogEventEEEE3$_4JEEENS_9allocatorIS9_EEFvvEE7destroyEv', symObjAddr: 0x10E4C, symBinAddr: 0x100011C8C, symSize: 0x28 }
  - { offsetInCU: 0x2FB71, offset: 0x2FB71, size: 0x8, addend: 0x0, symName: '__ZNSt3__110__function6__funcINS_6__bindIZN7CoTrain11LogMannager5fatalENS_10shared_ptrINS3_8LogEventEEEE3$_4JEEENS_9allocatorIS9_EEFvvEE18destroy_deallocateEv', symObjAddr: 0x10E74, symBinAddr: 0x100011CB4, symSize: 0x58 }
  - { offsetInCU: 0x2FBB4, offset: 0x2FBB4, size: 0x8, addend: 0x0, symName: '__ZNSt3__110__function6__funcINS_6__bindIZN7CoTrain11LogMannager5fatalENS_10shared_ptrINS3_8LogEventEEEE3$_4JEEENS_9allocatorIS9_EEFvvEEclEv', symObjAddr: 0x10ECC, symBinAddr: 0x100011D0C, symSize: 0x28 }
  - { offsetInCU: 0x2FBDC, offset: 0x2FBDC, size: 0x8, addend: 0x0, symName: '__ZNKSt3__110__function6__funcINS_6__bindIZN7CoTrain11LogMannager5fatalENS_10shared_ptrINS3_8LogEventEEEE3$_4JEEENS_9allocatorIS9_EEFvvEE6targetERKSt9type_info', symObjAddr: 0x10EF4, symBinAddr: 0x100011D34, symSize: 0x60 }
  - { offsetInCU: 0x2FC13, offset: 0x2FC13, size: 0x8, addend: 0x0, symName: '__ZNKSt3__110__function6__funcINS_6__bindIZN7CoTrain11LogMannager5fatalENS_10shared_ptrINS3_8LogEventEEEE3$_4JEEENS_9allocatorIS9_EEFvvEE11target_typeEv', symObjAddr: 0x10F54, symBinAddr: 0x100011D94, symSize: 0x18 }
  - { offsetInCU: 0x2FC3B, offset: 0x2FC3B, size: 0x8, addend: 0x0, symName: '__ZNSt3__110__function12__alloc_funcINS_6__bindIZN7CoTrain11LogMannager5fatalENS_10shared_ptrINS3_8LogEventEEEE3$_4JEEENS_9allocatorIS9_EEFvvEEC2B7v160006EOS9_OSB_', symObjAddr: 0x10F6C, symBinAddr: 0x100011DAC, symSize: 0x5C }
  - { offsetInCU: 0x2FC83, offset: 0x2FC83, size: 0x8, addend: 0x0, symName: '__ZNSt3__117__compressed_pairINS_6__bindIZN7CoTrain11LogMannager5fatalENS_10shared_ptrINS2_8LogEventEEEE3$_4JEEENS_9allocatorIS8_EEEC1B7v160006IJOS8_EJOSA_EEENS_21piecewise_construct_tENS_5tupleIJDpT_EEENSG_IJDpT0_EEE', symObjAddr: 0x11020, symBinAddr: 0x100011E60, symSize: 0x3C }
  - { offsetInCU: 0x2FCF0, offset: 0x2FCF0, size: 0x8, addend: 0x0, symName: '__ZNSt3__15tupleIJONS_6__bindIZN7CoTrain11LogMannager5fatalENS_10shared_ptrINS2_8LogEventEEEE3$_4JEEEEEC1B7v160006IJS8_ELi0EEEDpOT_', symObjAddr: 0x1105C, symBinAddr: 0x100011E9C, symSize: 0x34 }
  - { offsetInCU: 0x2FD3A, offset: 0x2FD3A, size: 0x8, addend: 0x0, symName: '__ZNSt3__15tupleIJONS_6__bindIZN7CoTrain11LogMannager5fatalENS_10shared_ptrINS2_8LogEventEEEE3$_4JEEEEEC2B7v160006IJS8_ELi0EEEDpOT_', symObjAddr: 0x11090, symBinAddr: 0x100011ED0, symSize: 0x34 }
  - { offsetInCU: 0x2FD84, offset: 0x2FD84, size: 0x8, addend: 0x0, symName: '__ZNSt3__112__tuple_implINS_15__tuple_indicesIJLm0EEEEJONS_6__bindIZN7CoTrain11LogMannager5fatalENS_10shared_ptrINS4_8LogEventEEEE3$_4JEEEEEC1B7v160006IJLm0EEJSB_EJEJEJSA_EEENS1_IJXspT_EEEENS_13__tuple_typesIJDpT0_EEENS1_IJXspT1_EEEENSF_IJDpT2_EEEDpOT3_', symObjAddr: 0x110C4, symBinAddr: 0x100011F04, symSize: 0x34 }
  - { offsetInCU: 0x2FE19, offset: 0x2FE19, size: 0x8, addend: 0x0, symName: '__ZNSt3__112__tuple_implINS_15__tuple_indicesIJLm0EEEEJONS_6__bindIZN7CoTrain11LogMannager5fatalENS_10shared_ptrINS4_8LogEventEEEE3$_4JEEEEEC2B7v160006IJLm0EEJSB_EJEJEJSA_EEENS1_IJXspT_EEEENS_13__tuple_typesIJDpT0_EEENS1_IJXspT1_EEEENSF_IJDpT2_EEEDpOT3_', symObjAddr: 0x110F8, symBinAddr: 0x100011F38, symSize: 0x34 }
  - { offsetInCU: 0x2FEAE, offset: 0x2FEAE, size: 0x8, addend: 0x0, symName: '__ZNSt3__112__tuple_leafILm0EONS_6__bindIZN7CoTrain11LogMannager5fatalENS_10shared_ptrINS2_8LogEventEEEE3$_4JEEELb0EEC2B7v160006IS8_vEEOT_', symObjAddr: 0x1112C, symBinAddr: 0x100011F6C, symSize: 0x20 }
  - { offsetInCU: 0x2FEF1, offset: 0x2FEF1, size: 0x8, addend: 0x0, symName: '__ZNSt3__15tupleIJONS_9allocatorINS_6__bindIZN7CoTrain11LogMannager5fatalENS_10shared_ptrINS3_8LogEventEEEE3$_4JEEEEEEEC1B7v160006IJSA_ELi0EEEDpOT_', symObjAddr: 0x1114C, symBinAddr: 0x100011F8C, symSize: 0x34 }
  - { offsetInCU: 0x2FF3B, offset: 0x2FF3B, size: 0x8, addend: 0x0, symName: '__ZNSt3__15tupleIJONS_9allocatorINS_6__bindIZN7CoTrain11LogMannager5fatalENS_10shared_ptrINS3_8LogEventEEEE3$_4JEEEEEEEC2B7v160006IJSA_ELi0EEEDpOT_', symObjAddr: 0x11180, symBinAddr: 0x100011FC0, symSize: 0x34 }
  - { offsetInCU: 0x2FF85, offset: 0x2FF85, size: 0x8, addend: 0x0, symName: '__ZNSt3__112__tuple_implINS_15__tuple_indicesIJLm0EEEEJONS_9allocatorINS_6__bindIZN7CoTrain11LogMannager5fatalENS_10shared_ptrINS5_8LogEventEEEE3$_4JEEEEEEEC1B7v160006IJLm0EEJSD_EJEJEJSC_EEENS1_IJXspT_EEEENS_13__tuple_typesIJDpT0_EEENS1_IJXspT1_EEEENSH_IJDpT2_EEEDpOT3_', symObjAddr: 0x111B4, symBinAddr: 0x100011FF4, symSize: 0x34 }
  - { offsetInCU: 0x3001A, offset: 0x3001A, size: 0x8, addend: 0x0, symName: '__ZNSt3__112__tuple_implINS_15__tuple_indicesIJLm0EEEEJONS_9allocatorINS_6__bindIZN7CoTrain11LogMannager5fatalENS_10shared_ptrINS5_8LogEventEEEE3$_4JEEEEEEEC2B7v160006IJLm0EEJSD_EJEJEJSC_EEENS1_IJXspT_EEEENS_13__tuple_typesIJDpT0_EEENS1_IJXspT1_EEEENSH_IJDpT2_EEEDpOT3_', symObjAddr: 0x111E8, symBinAddr: 0x100012028, symSize: 0x34 }
  - { offsetInCU: 0x300AF, offset: 0x300AF, size: 0x8, addend: 0x0, symName: '__ZNSt3__112__tuple_leafILm0EONS_9allocatorINS_6__bindIZN7CoTrain11LogMannager5fatalENS_10shared_ptrINS3_8LogEventEEEE3$_4JEEEEELb0EEC2B7v160006ISA_vEEOT_', symObjAddr: 0x1121C, symBinAddr: 0x10001205C, symSize: 0x20 }
  - { offsetInCU: 0x300F2, offset: 0x300F2, size: 0x8, addend: 0x0, symName: '__ZNSt3__117__compressed_pairINS_6__bindIZN7CoTrain11LogMannager5fatalENS_10shared_ptrINS2_8LogEventEEEE3$_4JEEENS_9allocatorIS8_EEEC2B7v160006IJOS8_EJOSA_EEENS_21piecewise_construct_tENS_5tupleIJDpT_EEENSG_IJDpT0_EEE', symObjAddr: 0x1123C, symBinAddr: 0x10001207C, symSize: 0x7C }
  - { offsetInCU: 0x3015F, offset: 0x3015F, size: 0x8, addend: 0x0, symName: '__ZNSt3__122__compressed_pair_elemINS_6__bindIZN7CoTrain11LogMannager5fatalENS_10shared_ptrINS2_8LogEventEEEE3$_4JEEELi0ELb0EEC2B7v160006IJOS8_EJLm0EEEENS_21piecewise_construct_tENS_5tupleIJDpT_EEENS_15__tuple_indicesIJXspT0_EEEE', symObjAddr: 0x112B8, symBinAddr: 0x1000120F8, symSize: 0x44 }
  - { offsetInCU: 0x301C3, offset: 0x301C3, size: 0x8, addend: 0x0, symName: '__ZNSt3__122__compressed_pair_elemINS_9allocatorINS_6__bindIZN7CoTrain11LogMannager5fatalENS_10shared_ptrINS3_8LogEventEEEE3$_4JEEEEELi1ELb1EEC2B7v160006IJOSA_EJLm0EEEENS_21piecewise_construct_tENS_5tupleIJDpT_EEENS_15__tuple_indicesIJXspT0_EEEE', symObjAddr: 0x112FC, symBinAddr: 0x10001213C, symSize: 0x38 }
  - { offsetInCU: 0x30227, offset: 0x30227, size: 0x8, addend: 0x0, symName: '__ZNSt3__122__compressed_pair_elemINS_6__bindIZN7CoTrain11LogMannager5fatalENS_10shared_ptrINS2_8LogEventEEEE3$_4JEEELi0ELb0EED2Ev', symObjAddr: 0x11334, symBinAddr: 0x100012174, symSize: 0x2C }
  - { offsetInCU: 0x30253, offset: 0x30253, size: 0x8, addend: 0x0, symName: '__ZNSt3__16__bindIZN7CoTrain11LogMannager5fatalENS_10shared_ptrINS1_8LogEventEEEE3$_4JEEC1EOS7_', symObjAddr: 0x11384, symBinAddr: 0x1000121C4, symSize: 0x34 }
  - { offsetInCU: 0x30289, offset: 0x30289, size: 0x8, addend: 0x0, symName: '__ZNSt3__112__tuple_leafILm0EONS_6__bindIZN7CoTrain11LogMannager5fatalENS_10shared_ptrINS2_8LogEventEEEE3$_4JEEELb0EE3getB7v160006Ev', symObjAddr: 0x113B8, symBinAddr: 0x1000121F8, symSize: 0x18 }
  - { offsetInCU: 0x302AF, offset: 0x302AF, size: 0x8, addend: 0x0, symName: '__ZNSt3__16__bindIZN7CoTrain11LogMannager5fatalENS_10shared_ptrINS1_8LogEventEEEE3$_4JEEC2EOS7_', symObjAddr: 0x113D0, symBinAddr: 0x100012210, symSize: 0x34 }
  - { offsetInCU: 0x302E5, offset: 0x302E5, size: 0x8, addend: 0x0, symName: '__ZNSt3__112__tuple_leafILm0EONS_9allocatorINS_6__bindIZN7CoTrain11LogMannager5fatalENS_10shared_ptrINS3_8LogEventEEEE3$_4JEEEEELb0EE3getB7v160006Ev', symObjAddr: 0x11428, symBinAddr: 0x100012268, symSize: 0x18 }
  - { offsetInCU: 0x3030B, offset: 0x3030B, size: 0x8, addend: 0x0, symName: '__ZNSt3__110__function6__funcINS_6__bindIZN7CoTrain11LogMannager5fatalENS_10shared_ptrINS3_8LogEventEEEE3$_4JEEENS_9allocatorIS9_EEFvvEED2Ev', symObjAddr: 0x11440, symBinAddr: 0x100012280, symSize: 0x48 }
  - { offsetInCU: 0x30338, offset: 0x30338, size: 0x8, addend: 0x0, symName: '__ZNSt3__110__function12__alloc_funcINS_6__bindIZN7CoTrain11LogMannager5fatalENS_10shared_ptrINS3_8LogEventEEEE3$_4JEEENS_9allocatorIS9_EEFvvEED1Ev', symObjAddr: 0x11488, symBinAddr: 0x1000122C8, symSize: 0x2C }
  - { offsetInCU: 0x30364, offset: 0x30364, size: 0x8, addend: 0x0, symName: '__ZNSt3__110__function12__alloc_funcINS_6__bindIZN7CoTrain11LogMannager5fatalENS_10shared_ptrINS3_8LogEventEEEE3$_4JEEENS_9allocatorIS9_EEFvvEED2Ev', symObjAddr: 0x114B4, symBinAddr: 0x1000122F4, symSize: 0x2C }
  - { offsetInCU: 0x30390, offset: 0x30390, size: 0x8, addend: 0x0, symName: '__ZNSt3__117__compressed_pairINS_6__bindIZN7CoTrain11LogMannager5fatalENS_10shared_ptrINS2_8LogEventEEEE3$_4JEEENS_9allocatorIS8_EEED1Ev', symObjAddr: 0x114E0, symBinAddr: 0x100012320, symSize: 0x2C }
  - { offsetInCU: 0x303BC, offset: 0x303BC, size: 0x8, addend: 0x0, symName: '__ZNSt3__117__compressed_pairINS_6__bindIZN7CoTrain11LogMannager5fatalENS_10shared_ptrINS2_8LogEventEEEE3$_4JEEENS_9allocatorIS8_EEED2Ev', symObjAddr: 0x1150C, symBinAddr: 0x10001234C, symSize: 0x2C }
  - { offsetInCU: 0x303E8, offset: 0x303E8, size: 0x8, addend: 0x0, symName: '__ZNKSt3__110__function12__alloc_funcINS_6__bindIZN7CoTrain11LogMannager5fatalENS_10shared_ptrINS3_8LogEventEEEE3$_4JEEENS_9allocatorIS9_EEFvvEE15__get_allocatorB7v160006Ev', symObjAddr: 0x11538, symBinAddr: 0x100012378, symSize: 0x24 }
  - { offsetInCU: 0x3043C, offset: 0x3043C, size: 0x8, addend: 0x0, symName: '__ZNSt3__110unique_ptrINS_10__function6__funcINS_6__bindIZN7CoTrain11LogMannager5fatalENS_10shared_ptrINS4_8LogEventEEEE3$_4JEEENS_9allocatorISA_EEFvvEEENS_22__allocator_destructorINSB_ISE_EEEEEC1B7v160006ILb1EvEEPSE_NS_16__dependent_typeINS_27__unique_ptr_deleter_sfinaeISH_EEXT_EE20__good_rval_ref_typeE', symObjAddr: 0x1155C, symBinAddr: 0x10001239C, symSize: 0x3C }
  - { offsetInCU: 0x3048F, offset: 0x3048F, size: 0x8, addend: 0x0, symName: '__ZNKSt3__110unique_ptrINS_10__function6__funcINS_6__bindIZN7CoTrain11LogMannager5fatalENS_10shared_ptrINS4_8LogEventEEEE3$_4JEEENS_9allocatorISA_EEFvvEEENS_22__allocator_destructorINSB_ISE_EEEEE3getB7v160006Ev', symObjAddr: 0x11598, symBinAddr: 0x1000123D8, symSize: 0x28 }
  - { offsetInCU: 0x304B5, offset: 0x304B5, size: 0x8, addend: 0x0, symName: '__ZNKSt3__110__function12__alloc_funcINS_6__bindIZN7CoTrain11LogMannager5fatalENS_10shared_ptrINS3_8LogEventEEEE3$_4JEEENS_9allocatorIS9_EEFvvEE8__targetB7v160006Ev', symObjAddr: 0x115C0, symBinAddr: 0x100012400, symSize: 0x24 }
  - { offsetInCU: 0x304E1, offset: 0x304E1, size: 0x8, addend: 0x0, symName: '__ZNSt3__19allocatorINS_6__bindIZN7CoTrain11LogMannager5fatalENS_10shared_ptrINS2_8LogEventEEEE3$_4JEEEEC1B7v160006INS_10__function6__funcIS8_S9_FvvEEEEERKNS0_IT_EE', symObjAddr: 0x115E4, symBinAddr: 0x100012424, symSize: 0x34 }
  - { offsetInCU: 0x3051E, offset: 0x3051E, size: 0x8, addend: 0x0, symName: '__ZNSt3__110__function6__funcINS_6__bindIZN7CoTrain11LogMannager5fatalENS_10shared_ptrINS3_8LogEventEEEE3$_4JEEENS_9allocatorIS9_EEFvvEEC1B7v160006ERKS9_OSB_', symObjAddr: 0x11618, symBinAddr: 0x100012458, symSize: 0x3C }
  - { offsetInCU: 0x30566, offset: 0x30566, size: 0x8, addend: 0x0, symName: '__ZNSt3__110unique_ptrINS_10__function6__funcINS_6__bindIZN7CoTrain11LogMannager5fatalENS_10shared_ptrINS4_8LogEventEEEE3$_4JEEENS_9allocatorISA_EEFvvEEENS_22__allocator_destructorINSB_ISE_EEEEE7releaseB7v160006Ev', symObjAddr: 0x11654, symBinAddr: 0x100012494, symSize: 0x44 }
  - { offsetInCU: 0x3059B, offset: 0x3059B, size: 0x8, addend: 0x0, symName: '__ZNSt3__110unique_ptrINS_10__function6__funcINS_6__bindIZN7CoTrain11LogMannager5fatalENS_10shared_ptrINS4_8LogEventEEEE3$_4JEEENS_9allocatorISA_EEFvvEEENS_22__allocator_destructorINSB_ISE_EEEEED1B7v160006Ev', symObjAddr: 0x11698, symBinAddr: 0x1000124D8, symSize: 0x2C }
  - { offsetInCU: 0x305C5, offset: 0x305C5, size: 0x8, addend: 0x0, symName: '__ZNKSt3__117__compressed_pairINS_6__bindIZN7CoTrain11LogMannager5fatalENS_10shared_ptrINS2_8LogEventEEEE3$_4JEEENS_9allocatorIS8_EEE6secondB7v160006Ev', symObjAddr: 0x116C4, symBinAddr: 0x100012504, symSize: 0x24 }
  - { offsetInCU: 0x305EB, offset: 0x305EB, size: 0x8, addend: 0x0, symName: '__ZNKSt3__122__compressed_pair_elemINS_9allocatorINS_6__bindIZN7CoTrain11LogMannager5fatalENS_10shared_ptrINS3_8LogEventEEEE3$_4JEEEEELi1ELb1EE5__getB7v160006Ev', symObjAddr: 0x116E8, symBinAddr: 0x100012528, symSize: 0x14 }
  - { offsetInCU: 0x30611, offset: 0x30611, size: 0x8, addend: 0x0, symName: '__ZNSt3__110unique_ptrINS_10__function6__funcINS_6__bindIZN7CoTrain11LogMannager5fatalENS_10shared_ptrINS4_8LogEventEEEE3$_4JEEENS_9allocatorISA_EEFvvEEENS_22__allocator_destructorINSB_ISE_EEEEEC2B7v160006ILb1EvEEPSE_NS_16__dependent_typeINS_27__unique_ptr_deleter_sfinaeISH_EEXT_EE20__good_rval_ref_typeE', symObjAddr: 0x116FC, symBinAddr: 0x10001253C, symSize: 0x48 }
  - { offsetInCU: 0x30664, offset: 0x30664, size: 0x8, addend: 0x0, symName: '__ZNKSt3__117__compressed_pairINS_6__bindIZN7CoTrain11LogMannager5fatalENS_10shared_ptrINS2_8LogEventEEEE3$_4JEEENS_9allocatorIS8_EEE5firstB7v160006Ev', symObjAddr: 0x11744, symBinAddr: 0x100012584, symSize: 0x24 }
  - { offsetInCU: 0x3068A, offset: 0x3068A, size: 0x8, addend: 0x0, symName: '__ZNKSt3__122__compressed_pair_elemINS_6__bindIZN7CoTrain11LogMannager5fatalENS_10shared_ptrINS2_8LogEventEEEE3$_4JEEELi0ELb0EE5__getB7v160006Ev', symObjAddr: 0x11768, symBinAddr: 0x1000125A8, symSize: 0x14 }
  - { offsetInCU: 0x306B0, offset: 0x306B0, size: 0x8, addend: 0x0, symName: '__ZNSt3__19allocatorINS_6__bindIZN7CoTrain11LogMannager5fatalENS_10shared_ptrINS2_8LogEventEEEE3$_4JEEEEC2B7v160006INS_10__function6__funcIS8_S9_FvvEEEEERKNS0_IT_EE', symObjAddr: 0x1177C, symBinAddr: 0x1000125BC, symSize: 0x30 }
  - { offsetInCU: 0x306ED, offset: 0x306ED, size: 0x8, addend: 0x0, symName: '__ZNSt3__110__function6__funcINS_6__bindIZN7CoTrain11LogMannager5fatalENS_10shared_ptrINS3_8LogEventEEEE3$_4JEEENS_9allocatorIS9_EEFvvEEC2B7v160006ERKS9_OSB_', symObjAddr: 0x117AC, symBinAddr: 0x1000125EC, symSize: 0x88 }
  - { offsetInCU: 0x30735, offset: 0x30735, size: 0x8, addend: 0x0, symName: '__ZNSt3__110__function12__alloc_funcINS_6__bindIZN7CoTrain11LogMannager5fatalENS_10shared_ptrINS3_8LogEventEEEE3$_4JEEENS_9allocatorIS9_EEFvvEEC1B7v160006ERKS9_OSB_', symObjAddr: 0x11834, symBinAddr: 0x100012674, symSize: 0x3C }
  - { offsetInCU: 0x3077D, offset: 0x3077D, size: 0x8, addend: 0x0, symName: '__ZNSt3__110__function12__alloc_funcINS_6__bindIZN7CoTrain11LogMannager5fatalENS_10shared_ptrINS3_8LogEventEEEE3$_4JEEENS_9allocatorIS9_EEFvvEEC2B7v160006ERKS9_OSB_', symObjAddr: 0x11870, symBinAddr: 0x1000126B0, symSize: 0x5C }
  - { offsetInCU: 0x307C5, offset: 0x307C5, size: 0x8, addend: 0x0, symName: '__ZNSt3__117__compressed_pairINS_6__bindIZN7CoTrain11LogMannager5fatalENS_10shared_ptrINS2_8LogEventEEEE3$_4JEEENS_9allocatorIS8_EEEC1B7v160006IJRKS8_EJOSA_EEENS_21piecewise_construct_tENS_5tupleIJDpT_EEENSH_IJDpT0_EEE', symObjAddr: 0x118F8, symBinAddr: 0x100012738, symSize: 0x3C }
  - { offsetInCU: 0x30832, offset: 0x30832, size: 0x8, addend: 0x0, symName: '__ZNSt3__15tupleIJRKNS_6__bindIZN7CoTrain11LogMannager5fatalENS_10shared_ptrINS2_8LogEventEEEE3$_4JEEEEEC1B7v160006INS_4_AndELi0EEESA_', symObjAddr: 0x11934, symBinAddr: 0x100012774, symSize: 0x34 }
  - { offsetInCU: 0x3087A, offset: 0x3087A, size: 0x8, addend: 0x0, symName: '__ZNSt3__15tupleIJRKNS_6__bindIZN7CoTrain11LogMannager5fatalENS_10shared_ptrINS2_8LogEventEEEE3$_4JEEEEEC2B7v160006INS_4_AndELi0EEESA_', symObjAddr: 0x11968, symBinAddr: 0x1000127A8, symSize: 0x34 }
  - { offsetInCU: 0x308C2, offset: 0x308C2, size: 0x8, addend: 0x0, symName: '__ZNSt3__112__tuple_implINS_15__tuple_indicesIJLm0EEEEJRKNS_6__bindIZN7CoTrain11LogMannager5fatalENS_10shared_ptrINS4_8LogEventEEEE3$_4JEEEEEC1B7v160006IJLm0EEJSC_EJEJEJSC_EEENS1_IJXspT_EEEENS_13__tuple_typesIJDpT0_EEENS1_IJXspT1_EEEENSG_IJDpT2_EEEDpOT3_', symObjAddr: 0x1199C, symBinAddr: 0x1000127DC, symSize: 0x34 }
  - { offsetInCU: 0x30957, offset: 0x30957, size: 0x8, addend: 0x0, symName: '__ZNSt3__112__tuple_implINS_15__tuple_indicesIJLm0EEEEJRKNS_6__bindIZN7CoTrain11LogMannager5fatalENS_10shared_ptrINS4_8LogEventEEEE3$_4JEEEEEC2B7v160006IJLm0EEJSC_EJEJEJSC_EEENS1_IJXspT_EEEENS_13__tuple_typesIJDpT0_EEENS1_IJXspT1_EEEENSG_IJDpT2_EEEDpOT3_', symObjAddr: 0x119D0, symBinAddr: 0x100012810, symSize: 0x34 }
  - { offsetInCU: 0x309EC, offset: 0x309EC, size: 0x8, addend: 0x0, symName: '__ZNSt3__112__tuple_leafILm0ERKNS_6__bindIZN7CoTrain11LogMannager5fatalENS_10shared_ptrINS2_8LogEventEEEE3$_4JEEELb0EEC2B7v160006ISA_vEEOT_', symObjAddr: 0x11A04, symBinAddr: 0x100012844, symSize: 0x20 }
  - { offsetInCU: 0x30A2F, offset: 0x30A2F, size: 0x8, addend: 0x0, symName: '__ZNSt3__117__compressed_pairINS_6__bindIZN7CoTrain11LogMannager5fatalENS_10shared_ptrINS2_8LogEventEEEE3$_4JEEENS_9allocatorIS8_EEEC2B7v160006IJRKS8_EJOSA_EEENS_21piecewise_construct_tENS_5tupleIJDpT_EEENSH_IJDpT0_EEE', symObjAddr: 0x11A24, symBinAddr: 0x100012864, symSize: 0x54 }
  - { offsetInCU: 0x30A9C, offset: 0x30A9C, size: 0x8, addend: 0x0, symName: '__ZNSt3__122__compressed_pair_elemINS_6__bindIZN7CoTrain11LogMannager5fatalENS_10shared_ptrINS2_8LogEventEEEE3$_4JEEELi0ELb0EEC2B7v160006IJRKS8_EJLm0EEEENS_21piecewise_construct_tENS_5tupleIJDpT_EEENS_15__tuple_indicesIJXspT0_EEEE', symObjAddr: 0x11A78, symBinAddr: 0x1000128B8, symSize: 0x44 }
  - { offsetInCU: 0x30B00, offset: 0x30B00, size: 0x8, addend: 0x0, symName: '__ZNSt3__16__bindIZN7CoTrain11LogMannager5fatalENS_10shared_ptrINS1_8LogEventEEEE3$_4JEEC1ERKS7_', symObjAddr: 0x11AE0, symBinAddr: 0x100012920, symSize: 0x34 }
  - { offsetInCU: 0x30B36, offset: 0x30B36, size: 0x8, addend: 0x0, symName: '__ZNSt3__112__tuple_leafILm0ERKNS_6__bindIZN7CoTrain11LogMannager5fatalENS_10shared_ptrINS2_8LogEventEEEE3$_4JEEELb0EE3getB7v160006Ev', symObjAddr: 0x11B14, symBinAddr: 0x100012954, symSize: 0x18 }
  - { offsetInCU: 0x30B5C, offset: 0x30B5C, size: 0x8, addend: 0x0, symName: '__ZNSt3__16__bindIZN7CoTrain11LogMannager5fatalENS_10shared_ptrINS1_8LogEventEEEE3$_4JEEC2ERKS7_', symObjAddr: 0x11B2C, symBinAddr: 0x10001296C, symSize: 0x34 }
  - { offsetInCU: 0x30B9D, offset: 0x30B9D, size: 0x8, addend: 0x0, symName: '__ZZN7CoTrain11LogMannager5fatalENSt3__110shared_ptrINS_8LogEventEEEEN3$_4C1ERKS5_', symObjAddr: 0x11B60, symBinAddr: 0x1000129A0, symSize: 0x34 }
  - { offsetInCU: 0x30BD2, offset: 0x30BD2, size: 0x8, addend: 0x0, symName: '__ZZN7CoTrain11LogMannager5fatalENSt3__110shared_ptrINS_8LogEventEEEEN3$_4C2ERKS5_', symObjAddr: 0x11B94, symBinAddr: 0x1000129D4, symSize: 0x48 }
  - { offsetInCU: 0x30C07, offset: 0x30C07, size: 0x8, addend: 0x0, symName: '__ZNSt3__117__compressed_pairIPNS_10__function6__funcINS_6__bindIZN7CoTrain11LogMannager5fatalENS_10shared_ptrINS4_8LogEventEEEE3$_4JEEENS_9allocatorISA_EEFvvEEENS_22__allocator_destructorINSB_ISE_EEEEE5firstB7v160006Ev', symObjAddr: 0x11BDC, symBinAddr: 0x100012A1C, symSize: 0x24 }
  - { offsetInCU: 0x30C2D, offset: 0x30C2D, size: 0x8, addend: 0x0, symName: '__ZNSt3__122__compressed_pair_elemIPNS_10__function6__funcINS_6__bindIZN7CoTrain11LogMannager5fatalENS_10shared_ptrINS4_8LogEventEEEE3$_4JEEENS_9allocatorISA_EEFvvEEELi0ELb0EE5__getB7v160006Ev', symObjAddr: 0x11C00, symBinAddr: 0x100012A40, symSize: 0x14 }
  - { offsetInCU: 0x30C53, offset: 0x30C53, size: 0x8, addend: 0x0, symName: '__ZNSt3__110unique_ptrINS_10__function6__funcINS_6__bindIZN7CoTrain11LogMannager5fatalENS_10shared_ptrINS4_8LogEventEEEE3$_4JEEENS_9allocatorISA_EEFvvEEENS_22__allocator_destructorINSB_ISE_EEEEED2B7v160006Ev', symObjAddr: 0x11C14, symBinAddr: 0x100012A54, symSize: 0x30 }
  - { offsetInCU: 0x30C7D, offset: 0x30C7D, size: 0x8, addend: 0x0, symName: '__ZNSt3__110unique_ptrINS_10__function6__funcINS_6__bindIZN7CoTrain11LogMannager5fatalENS_10shared_ptrINS4_8LogEventEEEE3$_4JEEENS_9allocatorISA_EEFvvEEENS_22__allocator_destructorINSB_ISE_EEEEE5resetB7v160006EPSE_', symObjAddr: 0x11C44, symBinAddr: 0x100012A84, symSize: 0x78 }
  - { offsetInCU: 0x30CC1, offset: 0x30CC1, size: 0x8, addend: 0x0, symName: '__ZNSt3__117__compressed_pairIPNS_10__function6__funcINS_6__bindIZN7CoTrain11LogMannager5fatalENS_10shared_ptrINS4_8LogEventEEEE3$_4JEEENS_9allocatorISA_EEFvvEEENS_22__allocator_destructorINSB_ISE_EEEEE6secondB7v160006Ev', symObjAddr: 0x11CBC, symBinAddr: 0x100012AFC, symSize: 0x28 }
  - { offsetInCU: 0x30CE7, offset: 0x30CE7, size: 0x8, addend: 0x0, symName: '__ZNSt3__122__allocator_destructorINS_9allocatorINS_10__function6__funcINS_6__bindIZN7CoTrain11LogMannager5fatalENS_10shared_ptrINS5_8LogEventEEEE3$_4JEEENS1_ISB_EEFvvEEEEEEclB7v160006EPSE_', symObjAddr: 0x11CE4, symBinAddr: 0x100012B24, symSize: 0x34 }
  - { offsetInCU: 0x30D1C, offset: 0x30D1C, size: 0x8, addend: 0x0, symName: '__ZNSt3__122__compressed_pair_elemINS_22__allocator_destructorINS_9allocatorINS_10__function6__funcINS_6__bindIZN7CoTrain11LogMannager5fatalENS_10shared_ptrINS6_8LogEventEEEE3$_4JEEENS2_ISC_EEFvvEEEEEEELi1ELb0EE5__getB7v160006Ev', symObjAddr: 0x11D18, symBinAddr: 0x100012B58, symSize: 0x14 }
  - { offsetInCU: 0x30D42, offset: 0x30D42, size: 0x8, addend: 0x0, symName: '__ZNSt3__116allocator_traitsINS_9allocatorINS_10__function6__funcINS_6__bindIZN7CoTrain11LogMannager5fatalENS_10shared_ptrINS5_8LogEventEEEE3$_4JEEENS1_ISB_EEFvvEEEEEE10deallocateB7v160006ERSF_PSE_m', symObjAddr: 0x11D2C, symBinAddr: 0x100012B6C, symSize: 0x34 }
  - { offsetInCU: 0x30D84, offset: 0x30D84, size: 0x8, addend: 0x0, symName: '__ZNSt3__19allocatorINS_10__function6__funcINS_6__bindIZN7CoTrain11LogMannager5fatalENS_10shared_ptrINS4_8LogEventEEEE3$_4JEEENS0_ISA_EEFvvEEEE10deallocateB7v160006EPSD_m', symObjAddr: 0x11D60, symBinAddr: 0x100012BA0, symSize: 0x44 }
  - { offsetInCU: 0x30DC8, offset: 0x30DC8, size: 0x8, addend: 0x0, symName: '__ZNSt3__110__function6__funcINS_6__bindIZN7CoTrain11LogMannager5fatalENS_10shared_ptrINS3_8LogEventEEEE3$_4JEEENS_9allocatorIS9_EEFvvEEC1B7v160006ERKS9_RKSB_', symObjAddr: 0x11DA4, symBinAddr: 0x100012BE4, symSize: 0x3C }
  - { offsetInCU: 0x30E10, offset: 0x30E10, size: 0x8, addend: 0x0, symName: '__ZNSt3__110__function6__funcINS_6__bindIZN7CoTrain11LogMannager5fatalENS_10shared_ptrINS3_8LogEventEEEE3$_4JEEENS_9allocatorIS9_EEFvvEEC2B7v160006ERKS9_RKSB_', symObjAddr: 0x11DE0, symBinAddr: 0x100012C20, symSize: 0x88 }
  - { offsetInCU: 0x30E58, offset: 0x30E58, size: 0x8, addend: 0x0, symName: '__ZNSt3__110__function12__alloc_funcINS_6__bindIZN7CoTrain11LogMannager5fatalENS_10shared_ptrINS3_8LogEventEEEE3$_4JEEENS_9allocatorIS9_EEFvvEEC1B7v160006ERKS9_RKSB_', symObjAddr: 0x11E68, symBinAddr: 0x100012CA8, symSize: 0x3C }
  - { offsetInCU: 0x30EA0, offset: 0x30EA0, size: 0x8, addend: 0x0, symName: '__ZNSt3__110__function12__alloc_funcINS_6__bindIZN7CoTrain11LogMannager5fatalENS_10shared_ptrINS3_8LogEventEEEE3$_4JEEENS_9allocatorIS9_EEFvvEEC2B7v160006ERKS9_RKSB_', symObjAddr: 0x11EA4, symBinAddr: 0x100012CE4, symSize: 0x5C }
  - { offsetInCU: 0x30EE8, offset: 0x30EE8, size: 0x8, addend: 0x0, symName: '__ZNSt3__117__compressed_pairINS_6__bindIZN7CoTrain11LogMannager5fatalENS_10shared_ptrINS2_8LogEventEEEE3$_4JEEENS_9allocatorIS8_EEEC1B7v160006IJRKS8_EJRKSA_EEENS_21piecewise_construct_tENS_5tupleIJDpT_EEENSI_IJDpT0_EEE', symObjAddr: 0x11F2C, symBinAddr: 0x100012D6C, symSize: 0x3C }
  - { offsetInCU: 0x30F55, offset: 0x30F55, size: 0x8, addend: 0x0, symName: '__ZNSt3__15tupleIJRKNS_9allocatorINS_6__bindIZN7CoTrain11LogMannager5fatalENS_10shared_ptrINS3_8LogEventEEEE3$_4JEEEEEEEC1B7v160006INS_4_AndELi0EEESC_', symObjAddr: 0x11F68, symBinAddr: 0x100012DA8, symSize: 0x34 }
  - { offsetInCU: 0x30F9D, offset: 0x30F9D, size: 0x8, addend: 0x0, symName: '__ZNSt3__15tupleIJRKNS_9allocatorINS_6__bindIZN7CoTrain11LogMannager5fatalENS_10shared_ptrINS3_8LogEventEEEE3$_4JEEEEEEEC2B7v160006INS_4_AndELi0EEESC_', symObjAddr: 0x11F9C, symBinAddr: 0x100012DDC, symSize: 0x34 }
  - { offsetInCU: 0x30FE5, offset: 0x30FE5, size: 0x8, addend: 0x0, symName: '__ZNSt3__112__tuple_implINS_15__tuple_indicesIJLm0EEEEJRKNS_9allocatorINS_6__bindIZN7CoTrain11LogMannager5fatalENS_10shared_ptrINS5_8LogEventEEEE3$_4JEEEEEEEC1B7v160006IJLm0EEJSE_EJEJEJSE_EEENS1_IJXspT_EEEENS_13__tuple_typesIJDpT0_EEENS1_IJXspT1_EEEENSI_IJDpT2_EEEDpOT3_', symObjAddr: 0x11FD0, symBinAddr: 0x100012E10, symSize: 0x34 }
  - { offsetInCU: 0x3107A, offset: 0x3107A, size: 0x8, addend: 0x0, symName: '__ZNSt3__112__tuple_implINS_15__tuple_indicesIJLm0EEEEJRKNS_9allocatorINS_6__bindIZN7CoTrain11LogMannager5fatalENS_10shared_ptrINS5_8LogEventEEEE3$_4JEEEEEEEC2B7v160006IJLm0EEJSE_EJEJEJSE_EEENS1_IJXspT_EEEENS_13__tuple_typesIJDpT0_EEENS1_IJXspT1_EEEENSI_IJDpT2_EEEDpOT3_', symObjAddr: 0x12004, symBinAddr: 0x100012E44, symSize: 0x34 }
  - { offsetInCU: 0x3110F, offset: 0x3110F, size: 0x8, addend: 0x0, symName: '__ZNSt3__112__tuple_leafILm0ERKNS_9allocatorINS_6__bindIZN7CoTrain11LogMannager5fatalENS_10shared_ptrINS3_8LogEventEEEE3$_4JEEEEELb0EEC2B7v160006ISC_vEEOT_', symObjAddr: 0x12038, symBinAddr: 0x100012E78, symSize: 0x20 }
  - { offsetInCU: 0x31152, offset: 0x31152, size: 0x8, addend: 0x0, symName: '__ZNSt3__117__compressed_pairINS_6__bindIZN7CoTrain11LogMannager5fatalENS_10shared_ptrINS2_8LogEventEEEE3$_4JEEENS_9allocatorIS8_EEEC2B7v160006IJRKS8_EJRKSA_EEENS_21piecewise_construct_tENS_5tupleIJDpT_EEENSI_IJDpT0_EEE', symObjAddr: 0x12058, symBinAddr: 0x100012E98, symSize: 0x7C }
  - { offsetInCU: 0x311BF, offset: 0x311BF, size: 0x8, addend: 0x0, symName: '__ZNSt3__122__compressed_pair_elemINS_9allocatorINS_6__bindIZN7CoTrain11LogMannager5fatalENS_10shared_ptrINS3_8LogEventEEEE3$_4JEEEEELi1ELb1EEC2B7v160006IJRKSA_EJLm0EEEENS_21piecewise_construct_tENS_5tupleIJDpT_EEENS_15__tuple_indicesIJXspT0_EEEE', symObjAddr: 0x120D4, symBinAddr: 0x100012F14, symSize: 0x38 }
  - { offsetInCU: 0x31223, offset: 0x31223, size: 0x8, addend: 0x0, symName: '__ZNSt3__112__tuple_leafILm0ERKNS_9allocatorINS_6__bindIZN7CoTrain11LogMannager5fatalENS_10shared_ptrINS3_8LogEventEEEE3$_4JEEEEELb0EE3getB7v160006Ev', symObjAddr: 0x12130, symBinAddr: 0x100012F70, symSize: 0x18 }
  - { offsetInCU: 0x31249, offset: 0x31249, size: 0x8, addend: 0x0, symName: '__ZNSt3__110__function12__alloc_funcINS_6__bindIZN7CoTrain11LogMannager5fatalENS_10shared_ptrINS3_8LogEventEEEE3$_4JEEENS_9allocatorIS9_EEFvvEE7destroyB7v160006Ev', symObjAddr: 0x12148, symBinAddr: 0x100012F88, symSize: 0x24 }
  - { offsetInCU: 0x3126F, offset: 0x3126F, size: 0x8, addend: 0x0, symName: '__ZNSt3__110__function12__alloc_funcINS_6__bindIZN7CoTrain11LogMannager5fatalENS_10shared_ptrINS3_8LogEventEEEE3$_4JEEENS_9allocatorIS9_EEFvvEEclB7v160006Ev', symObjAddr: 0x1216C, symBinAddr: 0x100012FAC, symSize: 0x28 }
  - { offsetInCU: 0x31295, offset: 0x31295, size: 0x8, addend: 0x0, symName: '__ZNSt3__128__invoke_void_return_wrapperIvLb1EE6__callIJRNS_6__bindIZN7CoTrain11LogMannager5fatalENS_10shared_ptrINS4_8LogEventEEEE3$_4JEEEEEEvDpOT_', symObjAddr: 0x12194, symBinAddr: 0x100012FD4, symSize: 0x24 }
  - { offsetInCU: 0x312C4, offset: 0x312C4, size: 0x8, addend: 0x0, symName: '__ZNSt3__117__compressed_pairINS_6__bindIZN7CoTrain11LogMannager5fatalENS_10shared_ptrINS2_8LogEventEEEE3$_4JEEENS_9allocatorIS8_EEE5firstB7v160006Ev', symObjAddr: 0x121B8, symBinAddr: 0x100012FF8, symSize: 0x24 }
  - { offsetInCU: 0x312EA, offset: 0x312EA, size: 0x8, addend: 0x0, symName: '__ZNSt3__16__bindIZN7CoTrain11LogMannager5fatalENS_10shared_ptrINS1_8LogEventEEEE3$_4JEEclB7v160006IJEEENS_13__bind_returnIS6_NS_5tupleIJEEENSA_IJDpOT_EEEXsr22__is_valid_bind_returnIS6_SB_SF_EE5valueEE4typeESE_', symObjAddr: 0x12200, symBinAddr: 0x100013040, symSize: 0x30 }
  - { offsetInCU: 0x3131B, offset: 0x3131B, size: 0x8, addend: 0x0, symName: '__ZZN7CoTrain11LogMannager5fatalENSt3__110shared_ptrINS_8LogEventEEEENK3$_4clEv', symObjAddr: 0x12280, symBinAddr: 0x1000130C0, symSize: 0x84 }
  - { offsetInCU: 0x31345, offset: 0x31345, size: 0x8, addend: 0x0, symName: '__ZNSt3__122__compressed_pair_elemINS_6__bindIZN7CoTrain11LogMannager5fatalENS_10shared_ptrINS2_8LogEventEEEE3$_4JEEELi0ELb0EE5__getB7v160006Ev', symObjAddr: 0x12304, symBinAddr: 0x100013144, symSize: 0x14 }
  - { offsetInCU: 0x3136B, offset: 0x3136B, size: 0x8, addend: 0x0, symName: '__ZNSt3__110unique_ptrINS_10__function6__baseIFvvEEENS_22__allocator_destructorINS_9allocatorINS1_6__funcINS_6__bindIZN7CoTrain11LogMannager5fatalENS_10shared_ptrINS9_8LogEventEEEE3$_4JEEENS6_ISF_EES3_EEEEEEED2B7v160006Ev', symObjAddr: 0x12318, symBinAddr: 0x100013158, symSize: 0x30 }
  - { offsetInCU: 0x31395, offset: 0x31395, size: 0x8, addend: 0x0, symName: '__ZNSt3__110unique_ptrINS_10__function6__baseIFvvEEENS_22__allocator_destructorINS_9allocatorINS1_6__funcINS_6__bindIZN7CoTrain11LogMannager5fatalENS_10shared_ptrINS9_8LogEventEEEE3$_4JEEENS6_ISF_EES3_EEEEEEE5resetB7v160006EPSH_', symObjAddr: 0x12348, symBinAddr: 0x100013188, symSize: 0x78 }
  - { offsetInCU: 0x313D9, offset: 0x313D9, size: 0x8, addend: 0x0, symName: '__ZNSt3__16__bindIZN7CoTrain11LogMannager5fatalENS_10shared_ptrINS1_8LogEventEEEE3$_4JEED2Ev', symObjAddr: 0x123C0, symBinAddr: 0x100013200, symSize: 0x2C }
  - { offsetInCU: 0x31406, offset: 0x31406, size: 0x8, addend: 0x0, symName: __ZNSt3__110shared_ptrIN7CoTrain6LoggerEEC2IS2_vEEPT_, symObjAddr: 0x123EC, symBinAddr: 0x10001322C, symSize: 0xEC }
  - { offsetInCU: 0x31505, offset: 0x31505, size: 0x8, addend: 0x0, symName: __ZNSt3__110unique_ptrIN7CoTrain6LoggerENS_14default_deleteIS2_EEEC1B7v160006ILb1EvEEPS2_, symObjAddr: 0x124D8, symBinAddr: 0x100013318, symSize: 0x34 }
  - { offsetInCU: 0x31571, offset: 0x31571, size: 0x8, addend: 0x0, symName: __ZNSt3__19allocatorIN7CoTrain6LoggerEEC1B7v160006Ev, symObjAddr: 0x1250C, symBinAddr: 0x10001334C, symSize: 0x2C }
  - { offsetInCU: 0x3164E, offset: 0x3164E, size: 0x8, addend: 0x0, symName: __ZNSt3__120__shared_ptr_pointerIPN7CoTrain6LoggerENS_10shared_ptrIS2_E27__shared_ptr_default_deleteIS2_S2_EENS_9allocatorIS2_EEEC1B7v160006ES3_S7_S9_, symObjAddr: 0x12538, symBinAddr: 0x100013378, symSize: 0x34 }
  - { offsetInCU: 0x316A5, offset: 0x316A5, size: 0x8, addend: 0x0, symName: __ZNSt3__110unique_ptrIN7CoTrain6LoggerENS_14default_deleteIS2_EEE7releaseB7v160006Ev, symObjAddr: 0x1256C, symBinAddr: 0x1000133AC, symSize: 0x44 }
  - { offsetInCU: 0x316DA, offset: 0x316DA, size: 0x8, addend: 0x0, symName: __ZNSt3__110shared_ptrIN7CoTrain6LoggerEE18__enable_weak_thisB7v160006Ez, symObjAddr: 0x125B0, symBinAddr: 0x1000133F0, symSize: 0x10 }
  - { offsetInCU: 0x31701, offset: 0x31701, size: 0x8, addend: 0x0, symName: __ZNSt3__110unique_ptrIN7CoTrain6LoggerENS_14default_deleteIS2_EEED1B7v160006Ev, symObjAddr: 0x125C0, symBinAddr: 0x100013400, symSize: 0x2C }
  - { offsetInCU: 0x3172B, offset: 0x3172B, size: 0x8, addend: 0x0, symName: __ZNSt3__110unique_ptrIN7CoTrain6LoggerENS_14default_deleteIS2_EEEC2B7v160006ILb1EvEEPS2_, symObjAddr: 0x125EC, symBinAddr: 0x10001342C, symSize: 0x44 }
  - { offsetInCU: 0x31775, offset: 0x31775, size: 0x8, addend: 0x0, symName: __ZNSt3__117__compressed_pairIPN7CoTrain6LoggerENS_14default_deleteIS2_EEEC1B7v160006IRS3_NS_16__value_init_tagEEEOT_OT0_, symObjAddr: 0x12630, symBinAddr: 0x100013470, symSize: 0x3C }
  - { offsetInCU: 0x317CF, offset: 0x317CF, size: 0x8, addend: 0x0, symName: __ZNSt3__117__compressed_pairIPN7CoTrain6LoggerENS_14default_deleteIS2_EEEC2B7v160006IRS3_NS_16__value_init_tagEEEOT_OT0_, symObjAddr: 0x1266C, symBinAddr: 0x1000134AC, symSize: 0x40 }
  - { offsetInCU: 0x31829, offset: 0x31829, size: 0x8, addend: 0x0, symName: __ZNSt3__122__compressed_pair_elemIPN7CoTrain6LoggerELi0ELb0EEC2B7v160006IRS3_vEEOT_, symObjAddr: 0x126AC, symBinAddr: 0x1000134EC, symSize: 0x24 }
  - { offsetInCU: 0x3186C, offset: 0x3186C, size: 0x8, addend: 0x0, symName: __ZNSt3__122__compressed_pair_elemINS_14default_deleteIN7CoTrain6LoggerEEELi1ELb1EEC2B7v160006ENS_16__value_init_tagE, symObjAddr: 0x126D0, symBinAddr: 0x100013510, symSize: 0x14 }
  - { offsetInCU: 0x318A0, offset: 0x318A0, size: 0x8, addend: 0x0, symName: __ZNSt3__19allocatorIN7CoTrain6LoggerEEC2B7v160006Ev, symObjAddr: 0x126E4, symBinAddr: 0x100013524, symSize: 0x2C }
  - { offsetInCU: 0x318CA, offset: 0x318CA, size: 0x8, addend: 0x0, symName: __ZNSt3__116__non_trivial_ifILb1ENS_9allocatorIN7CoTrain6LoggerEEEEC2B7v160006Ev, symObjAddr: 0x12710, symBinAddr: 0x100013550, symSize: 0x14 }
  - { offsetInCU: 0x318F4, offset: 0x318F4, size: 0x8, addend: 0x0, symName: __ZNSt3__120__shared_ptr_pointerIPN7CoTrain6LoggerENS_10shared_ptrIS2_E27__shared_ptr_default_deleteIS2_S2_EENS_9allocatorIS2_EEEC2B7v160006ES3_S7_S9_, symObjAddr: 0x12724, symBinAddr: 0x100013564, symSize: 0xA8 }
  - { offsetInCU: 0x3194B, offset: 0x3194B, size: 0x8, addend: 0x0, symName: __ZNSt3__119__shared_weak_countC2B7v160006El, symObjAddr: 0x127CC, symBinAddr: 0x10001360C, symSize: 0x54 }
  - { offsetInCU: 0x3198A, offset: 0x3198A, size: 0x8, addend: 0x0, symName: __ZNSt3__117__compressed_pairIPN7CoTrain6LoggerENS_10shared_ptrIS2_E27__shared_ptr_default_deleteIS2_S2_EEEC1B7v160006IRS3_S7_EEOT_OT0_, symObjAddr: 0x12820, symBinAddr: 0x100013660, symSize: 0x3C }
  - { offsetInCU: 0x319F0, offset: 0x319F0, size: 0x8, addend: 0x0, symName: __ZNSt3__117__compressed_pairINS0_IPN7CoTrain6LoggerENS_10shared_ptrIS2_E27__shared_ptr_default_deleteIS2_S2_EEEENS_9allocatorIS2_EEEC1B7v160006IS8_SA_EEOT_OT0_, symObjAddr: 0x1285C, symBinAddr: 0x10001369C, symSize: 0x3C }
  - { offsetInCU: 0x31A4A, offset: 0x31A4A, size: 0x8, addend: 0x0, symName: __ZNSt3__120__shared_ptr_pointerIPN7CoTrain6LoggerENS_10shared_ptrIS2_E27__shared_ptr_default_deleteIS2_S2_EENS_9allocatorIS2_EEED1Ev, symObjAddr: 0x12898, symBinAddr: 0x1000136D8, symSize: 0x2C }
  - { offsetInCU: 0x31A76, offset: 0x31A76, size: 0x8, addend: 0x0, symName: __ZNSt3__120__shared_ptr_pointerIPN7CoTrain6LoggerENS_10shared_ptrIS2_E27__shared_ptr_default_deleteIS2_S2_EENS_9allocatorIS2_EEED0Ev, symObjAddr: 0x128C4, symBinAddr: 0x100013704, symSize: 0x30 }
  - { offsetInCU: 0x31AA2, offset: 0x31AA2, size: 0x8, addend: 0x0, symName: __ZNSt3__120__shared_ptr_pointerIPN7CoTrain6LoggerENS_10shared_ptrIS2_E27__shared_ptr_default_deleteIS2_S2_EENS_9allocatorIS2_EEE16__on_zero_sharedEv, symObjAddr: 0x128F4, symBinAddr: 0x100013734, symSize: 0x64 }
  - { offsetInCU: 0x31AC9, offset: 0x31AC9, size: 0x8, addend: 0x0, symName: __ZNKSt3__120__shared_ptr_pointerIPN7CoTrain6LoggerENS_10shared_ptrIS2_E27__shared_ptr_default_deleteIS2_S2_EENS_9allocatorIS2_EEE13__get_deleterERKSt9type_info, symObjAddr: 0x12958, symBinAddr: 0x100013798, symSize: 0x68 }
  - { offsetInCU: 0x31AFF, offset: 0x31AFF, size: 0x8, addend: 0x0, symName: __ZNSt3__120__shared_ptr_pointerIPN7CoTrain6LoggerENS_10shared_ptrIS2_E27__shared_ptr_default_deleteIS2_S2_EENS_9allocatorIS2_EEE21__on_zero_shared_weakEv, symObjAddr: 0x129C0, symBinAddr: 0x100013800, symSize: 0x60 }
  - { offsetInCU: 0x31B40, offset: 0x31B40, size: 0x8, addend: 0x0, symName: __ZNSt3__114__shared_countC2B7v160006El, symObjAddr: 0x12A20, symBinAddr: 0x100013860, symSize: 0x30 }
  - { offsetInCU: 0x31B79, offset: 0x31B79, size: 0x8, addend: 0x0, symName: __ZNSt3__117__compressed_pairIPN7CoTrain6LoggerENS_10shared_ptrIS2_E27__shared_ptr_default_deleteIS2_S2_EEEC2B7v160006IRS3_S7_EEOT_OT0_, symObjAddr: 0x12A50, symBinAddr: 0x100013890, symSize: 0x44 }
  - { offsetInCU: 0x31BD3, offset: 0x31BD3, size: 0x8, addend: 0x0, symName: __ZNSt3__122__compressed_pair_elemINS_10shared_ptrIN7CoTrain6LoggerEE27__shared_ptr_default_deleteIS3_S3_EELi1ELb1EEC2B7v160006IS6_vEEOT_, symObjAddr: 0x12A94, symBinAddr: 0x1000138D4, symSize: 0x18 }
  - { offsetInCU: 0x31C16, offset: 0x31C16, size: 0x8, addend: 0x0, symName: __ZNSt3__117__compressed_pairINS0_IPN7CoTrain6LoggerENS_10shared_ptrIS2_E27__shared_ptr_default_deleteIS2_S2_EEEENS_9allocatorIS2_EEEC2B7v160006IS8_SA_EEOT_OT0_, symObjAddr: 0x12AAC, symBinAddr: 0x1000138EC, symSize: 0x44 }
  - { offsetInCU: 0x31C70, offset: 0x31C70, size: 0x8, addend: 0x0, symName: __ZNSt3__122__compressed_pair_elemINS_17__compressed_pairIPN7CoTrain6LoggerENS_10shared_ptrIS3_E27__shared_ptr_default_deleteIS3_S3_EEEELi0ELb0EEC2B7v160006IS9_vEEOT_, symObjAddr: 0x12AF0, symBinAddr: 0x100013930, symSize: 0x24 }
  - { offsetInCU: 0x31CB3, offset: 0x31CB3, size: 0x8, addend: 0x0, symName: __ZNSt3__122__compressed_pair_elemINS_9allocatorIN7CoTrain6LoggerEEELi1ELb1EEC2B7v160006IS4_vEEOT_, symObjAddr: 0x12B14, symBinAddr: 0x100013954, symSize: 0x18 }
  - { offsetInCU: 0x31CF6, offset: 0x31CF6, size: 0x8, addend: 0x0, symName: __ZNSt3__120__shared_ptr_pointerIPN7CoTrain6LoggerENS_10shared_ptrIS2_E27__shared_ptr_default_deleteIS2_S2_EENS_9allocatorIS2_EEED2Ev, symObjAddr: 0x12B2C, symBinAddr: 0x10001396C, symSize: 0x2C }
  - { offsetInCU: 0x31D22, offset: 0x31D22, size: 0x8, addend: 0x0, symName: __ZNSt3__117__compressed_pairINS0_IPN7CoTrain6LoggerENS_10shared_ptrIS2_E27__shared_ptr_default_deleteIS2_S2_EEEENS_9allocatorIS2_EEE5firstB7v160006Ev, symObjAddr: 0x12B58, symBinAddr: 0x100013998, symSize: 0x24 }
  - { offsetInCU: 0x31D48, offset: 0x31D48, size: 0x8, addend: 0x0, symName: __ZNSt3__117__compressed_pairIPN7CoTrain6LoggerENS_10shared_ptrIS2_E27__shared_ptr_default_deleteIS2_S2_EEE6secondB7v160006Ev, symObjAddr: 0x12B7C, symBinAddr: 0x1000139BC, symSize: 0x24 }
  - { offsetInCU: 0x31D6E, offset: 0x31D6E, size: 0x8, addend: 0x0, symName: __ZNKSt3__114default_deleteIN7CoTrain6LoggerEEclB7v160006EPS2_, symObjAddr: 0x12BA0, symBinAddr: 0x1000139E0, symSize: 0x4C }
  - { offsetInCU: 0x31DA3, offset: 0x31DA3, size: 0x8, addend: 0x0, symName: __ZNSt3__117__compressed_pairIPN7CoTrain6LoggerENS_10shared_ptrIS2_E27__shared_ptr_default_deleteIS2_S2_EEE5firstB7v160006Ev, symObjAddr: 0x12BEC, symBinAddr: 0x100013A2C, symSize: 0x24 }
  - { offsetInCU: 0x31DC9, offset: 0x31DC9, size: 0x8, addend: 0x0, symName: __ZNSt3__122__compressed_pair_elemINS_17__compressed_pairIPN7CoTrain6LoggerENS_10shared_ptrIS3_E27__shared_ptr_default_deleteIS3_S3_EEEELi0ELb0EE5__getB7v160006Ev, symObjAddr: 0x12C10, symBinAddr: 0x100013A50, symSize: 0x14 }
  - { offsetInCU: 0x31DEF, offset: 0x31DEF, size: 0x8, addend: 0x0, symName: __ZNSt3__122__compressed_pair_elemINS_10shared_ptrIN7CoTrain6LoggerEE27__shared_ptr_default_deleteIS3_S3_EELi1ELb1EE5__getB7v160006Ev, symObjAddr: 0x12C24, symBinAddr: 0x100013A64, symSize: 0x14 }
  - { offsetInCU: 0x31E15, offset: 0x31E15, size: 0x8, addend: 0x0, symName: __ZN7CoTrain6LoggerD1Ev, symObjAddr: 0x12C38, symBinAddr: 0x100013A78, symSize: 0x2C }
  - { offsetInCU: 0x31E41, offset: 0x31E41, size: 0x8, addend: 0x0, symName: __ZN7CoTrain6LoggerD2Ev, symObjAddr: 0x12C64, symBinAddr: 0x100013AA4, symSize: 0x38 }
  - { offsetInCU: 0x31E6D, offset: 0x31E6D, size: 0x8, addend: 0x0, symName: __ZNSt3__14listINS_10shared_ptrIN7CoTrain11LogAppenderEEENS_9allocatorIS4_EEED1Ev, symObjAddr: 0x12C9C, symBinAddr: 0x100013ADC, symSize: 0x2C }
  - { offsetInCU: 0x31E9A, offset: 0x31E9A, size: 0x8, addend: 0x0, symName: __ZNSt3__14listINS_10shared_ptrIN7CoTrain11LogAppenderEEENS_9allocatorIS4_EEED2Ev, symObjAddr: 0x12CC8, symBinAddr: 0x100013B08, symSize: 0x2C }
  - { offsetInCU: 0x31EC7, offset: 0x31EC7, size: 0x8, addend: 0x0, symName: __ZNSt3__110__list_impINS_10shared_ptrIN7CoTrain11LogAppenderEEENS_9allocatorIS4_EEED2Ev, symObjAddr: 0x12CF4, symBinAddr: 0x100013B34, symSize: 0x3C }
  - { offsetInCU: 0x31EF3, offset: 0x31EF3, size: 0x8, addend: 0x0, symName: __ZNSt3__110__list_impINS_10shared_ptrIN7CoTrain11LogAppenderEEENS_9allocatorIS4_EEE5clearEv, symObjAddr: 0x12D30, symBinAddr: 0x100013B70, symSize: 0xDC }
  - { offsetInCU: 0x31F6C, offset: 0x31F6C, size: 0x8, addend: 0x0, symName: __ZNKSt3__110__list_impINS_10shared_ptrIN7CoTrain11LogAppenderEEENS_9allocatorIS4_EEE5emptyB7v160006Ev, symObjAddr: 0x12E1C, symBinAddr: 0x100013C5C, symSize: 0x34 }
  - { offsetInCU: 0x31F92, offset: 0x31F92, size: 0x8, addend: 0x0, symName: __ZNKSt3__110__list_impINS_10shared_ptrIN7CoTrain11LogAppenderEEENS_9allocatorIS4_EEE4__szB7v160006Ev, symObjAddr: 0x12E60, symBinAddr: 0x100013CA0, symSize: 0x28 }
  - { offsetInCU: 0x31FB8, offset: 0x31FB8, size: 0x8, addend: 0x0, symName: __ZNKSt3__117__compressed_pairImNS_9allocatorINS_11__list_nodeINS_10shared_ptrIN7CoTrain11LogAppenderEEEPvEEEEE5firstB7v160006Ev, symObjAddr: 0x12E88, symBinAddr: 0x100013CC8, symSize: 0x24 }
  - { offsetInCU: 0x31FDE, offset: 0x31FDE, size: 0x8, addend: 0x0, symName: __ZNSt3__122__compressed_pair_elemIPN7CoTrain6LoggerELi0ELb0EE5__getB7v160006Ev, symObjAddr: 0x12EAC, symBinAddr: 0x100013CEC, symSize: 0x14 }
  - { offsetInCU: 0x32004, offset: 0x32004, size: 0x8, addend: 0x0, symName: __ZNKSt3__117__compressed_pairINS0_IPN7CoTrain6LoggerENS_10shared_ptrIS2_E27__shared_ptr_default_deleteIS2_S2_EEEENS_9allocatorIS2_EEE5firstB7v160006Ev, symObjAddr: 0x12EC0, symBinAddr: 0x100013D00, symSize: 0x24 }
  - { offsetInCU: 0x3202A, offset: 0x3202A, size: 0x8, addend: 0x0, symName: __ZNKSt3__117__compressed_pairIPN7CoTrain6LoggerENS_10shared_ptrIS2_E27__shared_ptr_default_deleteIS2_S2_EEE6secondB7v160006Ev, symObjAddr: 0x12EE4, symBinAddr: 0x100013D24, symSize: 0x24 }
  - { offsetInCU: 0x32050, offset: 0x32050, size: 0x8, addend: 0x0, symName: __ZNKSt3__122__compressed_pair_elemINS_17__compressed_pairIPN7CoTrain6LoggerENS_10shared_ptrIS3_E27__shared_ptr_default_deleteIS3_S3_EEEELi0ELb0EE5__getB7v160006Ev, symObjAddr: 0x12F08, symBinAddr: 0x100013D48, symSize: 0x14 }
  - { offsetInCU: 0x32076, offset: 0x32076, size: 0x8, addend: 0x0, symName: __ZNKSt3__122__compressed_pair_elemINS_10shared_ptrIN7CoTrain6LoggerEE27__shared_ptr_default_deleteIS3_S3_EELi1ELb1EE5__getB7v160006Ev, symObjAddr: 0x12F1C, symBinAddr: 0x100013D5C, symSize: 0x14 }
  - { offsetInCU: 0x3209C, offset: 0x3209C, size: 0x8, addend: 0x0, symName: __ZNSt3__117__compressed_pairINS0_IPN7CoTrain6LoggerENS_10shared_ptrIS2_E27__shared_ptr_default_deleteIS2_S2_EEEENS_9allocatorIS2_EEE6secondB7v160006Ev, symObjAddr: 0x12F30, symBinAddr: 0x100013D70, symSize: 0x24 }
  - { offsetInCU: 0x320F1, offset: 0x320F1, size: 0x8, addend: 0x0, symName: __ZNSt3__19allocatorINS_20__shared_ptr_pointerIPN7CoTrain6LoggerENS_10shared_ptrIS3_E27__shared_ptr_default_deleteIS3_S3_EENS0_IS3_EEEEEC1B7v160006IS3_EERKNS0_IT_EE, symObjAddr: 0x12F54, symBinAddr: 0x100013D94, symSize: 0x34 }
  - { offsetInCU: 0x3212E, offset: 0x3212E, size: 0x8, addend: 0x0, symName: __ZNSt3__19allocatorINS_20__shared_ptr_pointerIPN7CoTrain6LoggerENS_10shared_ptrIS3_E27__shared_ptr_default_deleteIS3_S3_EENS0_IS3_EEEEE10deallocateB7v160006EPSA_m, symObjAddr: 0x12F88, symBinAddr: 0x100013DC8, symSize: 0x40 }
  - { offsetInCU: 0x32172, offset: 0x32172, size: 0x8, addend: 0x0, symName: __ZNSt3__114pointer_traitsIPNS_20__shared_ptr_pointerIPN7CoTrain6LoggerENS_10shared_ptrIS3_E27__shared_ptr_default_deleteIS3_S3_EENS_9allocatorIS3_EEEEE10pointer_toB7v160006ERSB_, symObjAddr: 0x12FC8, symBinAddr: 0x100013E08, symSize: 0x14 }
  - { offsetInCU: 0x32196, offset: 0x32196, size: 0x8, addend: 0x0, symName: __ZNSt3__122__compressed_pair_elemINS_9allocatorIN7CoTrain6LoggerEEELi1ELb1EE5__getB7v160006Ev, symObjAddr: 0x12FDC, symBinAddr: 0x100013E1C, symSize: 0x14 }
  - { offsetInCU: 0x321BC, offset: 0x321BC, size: 0x8, addend: 0x0, symName: __ZNSt3__19allocatorINS_20__shared_ptr_pointerIPN7CoTrain6LoggerENS_10shared_ptrIS3_E27__shared_ptr_default_deleteIS3_S3_EENS0_IS3_EEEEEC2B7v160006IS3_EERKNS0_IT_EE, symObjAddr: 0x12FF0, symBinAddr: 0x100013E30, symSize: 0x30 }
  - { offsetInCU: 0x321F9, offset: 0x321F9, size: 0x8, addend: 0x0, symName: __ZNSt3__116__non_trivial_ifILb1ENS_9allocatorINS_20__shared_ptr_pointerIPN7CoTrain6LoggerENS_10shared_ptrIS4_E27__shared_ptr_default_deleteIS4_S4_EENS1_IS4_EEEEEEEC2B7v160006Ev, symObjAddr: 0x13020, symBinAddr: 0x100013E60, symSize: 0x14 }
  - { offsetInCU: 0x32223, offset: 0x32223, size: 0x8, addend: 0x0, symName: __ZNSt3__117__compressed_pairIPN7CoTrain6LoggerENS_14default_deleteIS2_EEE5firstB7v160006Ev, symObjAddr: 0x13034, symBinAddr: 0x100013E74, symSize: 0x24 }
  - { offsetInCU: 0x32249, offset: 0x32249, size: 0x8, addend: 0x0, symName: __ZNSt3__110unique_ptrIN7CoTrain6LoggerENS_14default_deleteIS2_EEED2B7v160006Ev, symObjAddr: 0x13058, symBinAddr: 0x100013E98, symSize: 0x30 }
  - { offsetInCU: 0x32273, offset: 0x32273, size: 0x8, addend: 0x0, symName: __ZNSt3__110unique_ptrIN7CoTrain6LoggerENS_14default_deleteIS2_EEE5resetB7v160006EPS2_, symObjAddr: 0x13088, symBinAddr: 0x100013EC8, symSize: 0x78 }
  - { offsetInCU: 0x322B7, offset: 0x322B7, size: 0x8, addend: 0x0, symName: __ZNSt3__117__compressed_pairIPN7CoTrain6LoggerENS_14default_deleteIS2_EEE6secondB7v160006Ev, symObjAddr: 0x13100, symBinAddr: 0x100013F40, symSize: 0x24 }
  - { offsetInCU: 0x322DD, offset: 0x322DD, size: 0x8, addend: 0x0, symName: __ZNSt3__122__compressed_pair_elemINS_14default_deleteIN7CoTrain6LoggerEEELi1ELb1EE5__getB7v160006Ev, symObjAddr: 0x13124, symBinAddr: 0x100013F64, symSize: 0x14 }
  - { offsetInCU: 0x32303, offset: 0x32303, size: 0x8, addend: 0x0, symName: __ZNSt3__110shared_ptrIN7CoTrain6LoggerEEC1B7v160006EOS3_, symObjAddr: 0x13138, symBinAddr: 0x100013F78, symSize: 0x34 }
  - { offsetInCU: 0x3233C, offset: 0x3233C, size: 0x8, addend: 0x0, symName: __ZNSt3__110shared_ptrIN7CoTrain6LoggerEE4swapB7v160006ERS3_, symObjAddr: 0x1316C, symBinAddr: 0x100013FAC, symSize: 0x44 }
  - { offsetInCU: 0x32371, offset: 0x32371, size: 0x8, addend: 0x0, symName: __ZNSt3__110shared_ptrIN7CoTrain6LoggerEEC2B7v160006EOS3_, symObjAddr: 0x131B0, symBinAddr: 0x100013FF0, symSize: 0x40 }
  - { offsetInCU: 0x323AA, offset: 0x323AA, size: 0x8, addend: 0x0, symName: __ZNSt3__110shared_ptrIN7CoTrain15StdLogFormatterEEC2IS2_vEEPT_, symObjAddr: 0x1322C, symBinAddr: 0x10001406C, symSize: 0xEC }
  - { offsetInCU: 0x324A9, offset: 0x324A9, size: 0x8, addend: 0x0, symName: __ZNSt3__110unique_ptrIN7CoTrain15StdLogFormatterENS_14default_deleteIS2_EEEC1B7v160006ILb1EvEEPS2_, symObjAddr: 0x13318, symBinAddr: 0x100014158, symSize: 0x34 }
  - { offsetInCU: 0x32515, offset: 0x32515, size: 0x8, addend: 0x0, symName: __ZNSt3__19allocatorIN7CoTrain15StdLogFormatterEEC1B7v160006Ev, symObjAddr: 0x1334C, symBinAddr: 0x10001418C, symSize: 0x2C }
  - { offsetInCU: 0x325F2, offset: 0x325F2, size: 0x8, addend: 0x0, symName: __ZNSt3__120__shared_ptr_pointerIPN7CoTrain15StdLogFormatterENS_10shared_ptrIS2_E27__shared_ptr_default_deleteIS2_S2_EENS_9allocatorIS2_EEEC1B7v160006ES3_S7_S9_, symObjAddr: 0x13378, symBinAddr: 0x1000141B8, symSize: 0x34 }
  - { offsetInCU: 0x32649, offset: 0x32649, size: 0x8, addend: 0x0, symName: __ZNSt3__110unique_ptrIN7CoTrain15StdLogFormatterENS_14default_deleteIS2_EEE7releaseB7v160006Ev, symObjAddr: 0x133AC, symBinAddr: 0x1000141EC, symSize: 0x44 }
  - { offsetInCU: 0x3267E, offset: 0x3267E, size: 0x8, addend: 0x0, symName: __ZNSt3__110shared_ptrIN7CoTrain15StdLogFormatterEE18__enable_weak_thisB7v160006Ez, symObjAddr: 0x133F0, symBinAddr: 0x100014230, symSize: 0x10 }
  - { offsetInCU: 0x326A5, offset: 0x326A5, size: 0x8, addend: 0x0, symName: __ZNSt3__110unique_ptrIN7CoTrain15StdLogFormatterENS_14default_deleteIS2_EEED1B7v160006Ev, symObjAddr: 0x13400, symBinAddr: 0x100014240, symSize: 0x2C }
  - { offsetInCU: 0x326CF, offset: 0x326CF, size: 0x8, addend: 0x0, symName: __ZNSt3__110unique_ptrIN7CoTrain15StdLogFormatterENS_14default_deleteIS2_EEEC2B7v160006ILb1EvEEPS2_, symObjAddr: 0x1342C, symBinAddr: 0x10001426C, symSize: 0x44 }
  - { offsetInCU: 0x32713, offset: 0x32713, size: 0x8, addend: 0x0, symName: __ZNSt3__117__compressed_pairIPN7CoTrain15StdLogFormatterENS_14default_deleteIS2_EEEC1B7v160006IRS3_NS_16__value_init_tagEEEOT_OT0_, symObjAddr: 0x13470, symBinAddr: 0x1000142B0, symSize: 0x3C }
  - { offsetInCU: 0x3276D, offset: 0x3276D, size: 0x8, addend: 0x0, symName: __ZNSt3__117__compressed_pairIPN7CoTrain15StdLogFormatterENS_14default_deleteIS2_EEEC2B7v160006IRS3_NS_16__value_init_tagEEEOT_OT0_, symObjAddr: 0x134AC, symBinAddr: 0x1000142EC, symSize: 0x40 }
  - { offsetInCU: 0x327C7, offset: 0x327C7, size: 0x8, addend: 0x0, symName: __ZNSt3__122__compressed_pair_elemIPN7CoTrain15StdLogFormatterELi0ELb0EEC2B7v160006IRS3_vEEOT_, symObjAddr: 0x134EC, symBinAddr: 0x10001432C, symSize: 0x24 }
  - { offsetInCU: 0x3280A, offset: 0x3280A, size: 0x8, addend: 0x0, symName: __ZNSt3__122__compressed_pair_elemINS_14default_deleteIN7CoTrain15StdLogFormatterEEELi1ELb1EEC2B7v160006ENS_16__value_init_tagE, symObjAddr: 0x13510, symBinAddr: 0x100014350, symSize: 0x14 }
  - { offsetInCU: 0x3283E, offset: 0x3283E, size: 0x8, addend: 0x0, symName: __ZNSt3__19allocatorIN7CoTrain15StdLogFormatterEEC2B7v160006Ev, symObjAddr: 0x13524, symBinAddr: 0x100014364, symSize: 0x2C }
  - { offsetInCU: 0x32868, offset: 0x32868, size: 0x8, addend: 0x0, symName: __ZNSt3__116__non_trivial_ifILb1ENS_9allocatorIN7CoTrain15StdLogFormatterEEEEC2B7v160006Ev, symObjAddr: 0x13550, symBinAddr: 0x100014390, symSize: 0x14 }
  - { offsetInCU: 0x32892, offset: 0x32892, size: 0x8, addend: 0x0, symName: __ZNSt3__120__shared_ptr_pointerIPN7CoTrain15StdLogFormatterENS_10shared_ptrIS2_E27__shared_ptr_default_deleteIS2_S2_EENS_9allocatorIS2_EEEC2B7v160006ES3_S7_S9_, symObjAddr: 0x13564, symBinAddr: 0x1000143A4, symSize: 0xA8 }
  - { offsetInCU: 0x328EF, offset: 0x328EF, size: 0x8, addend: 0x0, symName: __ZNSt3__117__compressed_pairIPN7CoTrain15StdLogFormatterENS_10shared_ptrIS2_E27__shared_ptr_default_deleteIS2_S2_EEEC1B7v160006IRS3_S7_EEOT_OT0_, symObjAddr: 0x1360C, symBinAddr: 0x10001444C, symSize: 0x3C }
  - { offsetInCU: 0x32955, offset: 0x32955, size: 0x8, addend: 0x0, symName: __ZNSt3__117__compressed_pairINS0_IPN7CoTrain15StdLogFormatterENS_10shared_ptrIS2_E27__shared_ptr_default_deleteIS2_S2_EEEENS_9allocatorIS2_EEEC1B7v160006IS8_SA_EEOT_OT0_, symObjAddr: 0x13648, symBinAddr: 0x100014488, symSize: 0x3C }
  - { offsetInCU: 0x329AF, offset: 0x329AF, size: 0x8, addend: 0x0, symName: __ZNSt3__120__shared_ptr_pointerIPN7CoTrain15StdLogFormatterENS_10shared_ptrIS2_E27__shared_ptr_default_deleteIS2_S2_EENS_9allocatorIS2_EEED1Ev, symObjAddr: 0x13684, symBinAddr: 0x1000144C4, symSize: 0x2C }
  - { offsetInCU: 0x329DB, offset: 0x329DB, size: 0x8, addend: 0x0, symName: __ZNSt3__120__shared_ptr_pointerIPN7CoTrain15StdLogFormatterENS_10shared_ptrIS2_E27__shared_ptr_default_deleteIS2_S2_EENS_9allocatorIS2_EEED0Ev, symObjAddr: 0x136B0, symBinAddr: 0x1000144F0, symSize: 0x30 }
  - { offsetInCU: 0x32A07, offset: 0x32A07, size: 0x8, addend: 0x0, symName: __ZNSt3__120__shared_ptr_pointerIPN7CoTrain15StdLogFormatterENS_10shared_ptrIS2_E27__shared_ptr_default_deleteIS2_S2_EENS_9allocatorIS2_EEE16__on_zero_sharedEv, symObjAddr: 0x136E0, symBinAddr: 0x100014520, symSize: 0x64 }
  - { offsetInCU: 0x32A2E, offset: 0x32A2E, size: 0x8, addend: 0x0, symName: __ZNKSt3__120__shared_ptr_pointerIPN7CoTrain15StdLogFormatterENS_10shared_ptrIS2_E27__shared_ptr_default_deleteIS2_S2_EENS_9allocatorIS2_EEE13__get_deleterERKSt9type_info, symObjAddr: 0x13744, symBinAddr: 0x100014584, symSize: 0x68 }
  - { offsetInCU: 0x32A64, offset: 0x32A64, size: 0x8, addend: 0x0, symName: __ZNSt3__120__shared_ptr_pointerIPN7CoTrain15StdLogFormatterENS_10shared_ptrIS2_E27__shared_ptr_default_deleteIS2_S2_EENS_9allocatorIS2_EEE21__on_zero_shared_weakEv, symObjAddr: 0x137AC, symBinAddr: 0x1000145EC, symSize: 0x60 }
  - { offsetInCU: 0x32AA5, offset: 0x32AA5, size: 0x8, addend: 0x0, symName: __ZNSt3__117__compressed_pairIPN7CoTrain15StdLogFormatterENS_10shared_ptrIS2_E27__shared_ptr_default_deleteIS2_S2_EEEC2B7v160006IRS3_S7_EEOT_OT0_, symObjAddr: 0x1380C, symBinAddr: 0x10001464C, symSize: 0x44 }
  - { offsetInCU: 0x32AFF, offset: 0x32AFF, size: 0x8, addend: 0x0, symName: __ZNSt3__122__compressed_pair_elemINS_10shared_ptrIN7CoTrain15StdLogFormatterEE27__shared_ptr_default_deleteIS3_S3_EELi1ELb1EEC2B7v160006IS6_vEEOT_, symObjAddr: 0x13850, symBinAddr: 0x100014690, symSize: 0x18 }
  - { offsetInCU: 0x32B42, offset: 0x32B42, size: 0x8, addend: 0x0, symName: __ZNSt3__117__compressed_pairINS0_IPN7CoTrain15StdLogFormatterENS_10shared_ptrIS2_E27__shared_ptr_default_deleteIS2_S2_EEEENS_9allocatorIS2_EEEC2B7v160006IS8_SA_EEOT_OT0_, symObjAddr: 0x13868, symBinAddr: 0x1000146A8, symSize: 0x44 }
  - { offsetInCU: 0x32B9C, offset: 0x32B9C, size: 0x8, addend: 0x0, symName: __ZNSt3__122__compressed_pair_elemINS_17__compressed_pairIPN7CoTrain15StdLogFormatterENS_10shared_ptrIS3_E27__shared_ptr_default_deleteIS3_S3_EEEELi0ELb0EEC2B7v160006IS9_vEEOT_, symObjAddr: 0x138AC, symBinAddr: 0x1000146EC, symSize: 0x24 }
  - { offsetInCU: 0x32BDF, offset: 0x32BDF, size: 0x8, addend: 0x0, symName: __ZNSt3__122__compressed_pair_elemINS_9allocatorIN7CoTrain15StdLogFormatterEEELi1ELb1EEC2B7v160006IS4_vEEOT_, symObjAddr: 0x138D0, symBinAddr: 0x100014710, symSize: 0x18 }
  - { offsetInCU: 0x32C22, offset: 0x32C22, size: 0x8, addend: 0x0, symName: __ZNSt3__120__shared_ptr_pointerIPN7CoTrain15StdLogFormatterENS_10shared_ptrIS2_E27__shared_ptr_default_deleteIS2_S2_EENS_9allocatorIS2_EEED2Ev, symObjAddr: 0x138E8, symBinAddr: 0x100014728, symSize: 0x2C }
  - { offsetInCU: 0x32C4E, offset: 0x32C4E, size: 0x8, addend: 0x0, symName: __ZNSt3__117__compressed_pairINS0_IPN7CoTrain15StdLogFormatterENS_10shared_ptrIS2_E27__shared_ptr_default_deleteIS2_S2_EEEENS_9allocatorIS2_EEE5firstB7v160006Ev, symObjAddr: 0x13914, symBinAddr: 0x100014754, symSize: 0x24 }
  - { offsetInCU: 0x32C74, offset: 0x32C74, size: 0x8, addend: 0x0, symName: __ZNSt3__117__compressed_pairIPN7CoTrain15StdLogFormatterENS_10shared_ptrIS2_E27__shared_ptr_default_deleteIS2_S2_EEE6secondB7v160006Ev, symObjAddr: 0x13938, symBinAddr: 0x100014778, symSize: 0x24 }
  - { offsetInCU: 0x32C9A, offset: 0x32C9A, size: 0x8, addend: 0x0, symName: __ZNKSt3__114default_deleteIN7CoTrain15StdLogFormatterEEclB7v160006EPS2_, symObjAddr: 0x1395C, symBinAddr: 0x10001479C, symSize: 0x4C }
  - { offsetInCU: 0x32CCF, offset: 0x32CCF, size: 0x8, addend: 0x0, symName: __ZNSt3__117__compressed_pairIPN7CoTrain15StdLogFormatterENS_10shared_ptrIS2_E27__shared_ptr_default_deleteIS2_S2_EEE5firstB7v160006Ev, symObjAddr: 0x139A8, symBinAddr: 0x1000147E8, symSize: 0x24 }
  - { offsetInCU: 0x32CF5, offset: 0x32CF5, size: 0x8, addend: 0x0, symName: __ZNSt3__122__compressed_pair_elemINS_17__compressed_pairIPN7CoTrain15StdLogFormatterENS_10shared_ptrIS3_E27__shared_ptr_default_deleteIS3_S3_EEEELi0ELb0EE5__getB7v160006Ev, symObjAddr: 0x139CC, symBinAddr: 0x10001480C, symSize: 0x14 }
  - { offsetInCU: 0x32D1B, offset: 0x32D1B, size: 0x8, addend: 0x0, symName: __ZNSt3__122__compressed_pair_elemINS_10shared_ptrIN7CoTrain15StdLogFormatterEE27__shared_ptr_default_deleteIS3_S3_EELi1ELb1EE5__getB7v160006Ev, symObjAddr: 0x139E0, symBinAddr: 0x100014820, symSize: 0x14 }
  - { offsetInCU: 0x32D41, offset: 0x32D41, size: 0x8, addend: 0x0, symName: __ZNSt3__122__compressed_pair_elemIPN7CoTrain15StdLogFormatterELi0ELb0EE5__getB7v160006Ev, symObjAddr: 0x139F4, symBinAddr: 0x100014834, symSize: 0x14 }
  - { offsetInCU: 0x32D67, offset: 0x32D67, size: 0x8, addend: 0x0, symName: __ZNKSt3__117__compressed_pairINS0_IPN7CoTrain15StdLogFormatterENS_10shared_ptrIS2_E27__shared_ptr_default_deleteIS2_S2_EEEENS_9allocatorIS2_EEE5firstB7v160006Ev, symObjAddr: 0x13A08, symBinAddr: 0x100014848, symSize: 0x24 }
  - { offsetInCU: 0x32D8D, offset: 0x32D8D, size: 0x8, addend: 0x0, symName: __ZNKSt3__117__compressed_pairIPN7CoTrain15StdLogFormatterENS_10shared_ptrIS2_E27__shared_ptr_default_deleteIS2_S2_EEE6secondB7v160006Ev, symObjAddr: 0x13A2C, symBinAddr: 0x10001486C, symSize: 0x24 }
  - { offsetInCU: 0x32DB3, offset: 0x32DB3, size: 0x8, addend: 0x0, symName: __ZNKSt3__122__compressed_pair_elemINS_17__compressed_pairIPN7CoTrain15StdLogFormatterENS_10shared_ptrIS3_E27__shared_ptr_default_deleteIS3_S3_EEEELi0ELb0EE5__getB7v160006Ev, symObjAddr: 0x13A50, symBinAddr: 0x100014890, symSize: 0x14 }
  - { offsetInCU: 0x32DD9, offset: 0x32DD9, size: 0x8, addend: 0x0, symName: __ZNKSt3__122__compressed_pair_elemINS_10shared_ptrIN7CoTrain15StdLogFormatterEE27__shared_ptr_default_deleteIS3_S3_EELi1ELb1EE5__getB7v160006Ev, symObjAddr: 0x13A64, symBinAddr: 0x1000148A4, symSize: 0x14 }
  - { offsetInCU: 0x32DFF, offset: 0x32DFF, size: 0x8, addend: 0x0, symName: __ZNSt3__117__compressed_pairINS0_IPN7CoTrain15StdLogFormatterENS_10shared_ptrIS2_E27__shared_ptr_default_deleteIS2_S2_EEEENS_9allocatorIS2_EEE6secondB7v160006Ev, symObjAddr: 0x13A78, symBinAddr: 0x1000148B8, symSize: 0x24 }
  - { offsetInCU: 0x32E54, offset: 0x32E54, size: 0x8, addend: 0x0, symName: __ZNSt3__19allocatorINS_20__shared_ptr_pointerIPN7CoTrain15StdLogFormatterENS_10shared_ptrIS3_E27__shared_ptr_default_deleteIS3_S3_EENS0_IS3_EEEEEC1B7v160006IS3_EERKNS0_IT_EE, symObjAddr: 0x13A9C, symBinAddr: 0x1000148DC, symSize: 0x34 }
  - { offsetInCU: 0x32E91, offset: 0x32E91, size: 0x8, addend: 0x0, symName: __ZNSt3__19allocatorINS_20__shared_ptr_pointerIPN7CoTrain15StdLogFormatterENS_10shared_ptrIS3_E27__shared_ptr_default_deleteIS3_S3_EENS0_IS3_EEEEE10deallocateB7v160006EPSA_m, symObjAddr: 0x13AD0, symBinAddr: 0x100014910, symSize: 0x40 }
  - { offsetInCU: 0x32ED5, offset: 0x32ED5, size: 0x8, addend: 0x0, symName: __ZNSt3__114pointer_traitsIPNS_20__shared_ptr_pointerIPN7CoTrain15StdLogFormatterENS_10shared_ptrIS3_E27__shared_ptr_default_deleteIS3_S3_EENS_9allocatorIS3_EEEEE10pointer_toB7v160006ERSB_, symObjAddr: 0x13B10, symBinAddr: 0x100014950, symSize: 0x14 }
  - { offsetInCU: 0x32EF9, offset: 0x32EF9, size: 0x8, addend: 0x0, symName: __ZNSt3__122__compressed_pair_elemINS_9allocatorIN7CoTrain15StdLogFormatterEEELi1ELb1EE5__getB7v160006Ev, symObjAddr: 0x13B24, symBinAddr: 0x100014964, symSize: 0x14 }
  - { offsetInCU: 0x32F1F, offset: 0x32F1F, size: 0x8, addend: 0x0, symName: __ZNSt3__19allocatorINS_20__shared_ptr_pointerIPN7CoTrain15StdLogFormatterENS_10shared_ptrIS3_E27__shared_ptr_default_deleteIS3_S3_EENS0_IS3_EEEEEC2B7v160006IS3_EERKNS0_IT_EE, symObjAddr: 0x13B38, symBinAddr: 0x100014978, symSize: 0x30 }
  - { offsetInCU: 0x32F5C, offset: 0x32F5C, size: 0x8, addend: 0x0, symName: __ZNSt3__116__non_trivial_ifILb1ENS_9allocatorINS_20__shared_ptr_pointerIPN7CoTrain15StdLogFormatterENS_10shared_ptrIS4_E27__shared_ptr_default_deleteIS4_S4_EENS1_IS4_EEEEEEEC2B7v160006Ev, symObjAddr: 0x13B68, symBinAddr: 0x1000149A8, symSize: 0x14 }
  - { offsetInCU: 0x32F86, offset: 0x32F86, size: 0x8, addend: 0x0, symName: __ZNSt3__117__compressed_pairIPN7CoTrain15StdLogFormatterENS_14default_deleteIS2_EEE5firstB7v160006Ev, symObjAddr: 0x13B7C, symBinAddr: 0x1000149BC, symSize: 0x24 }
  - { offsetInCU: 0x32FAC, offset: 0x32FAC, size: 0x8, addend: 0x0, symName: __ZNSt3__110unique_ptrIN7CoTrain15StdLogFormatterENS_14default_deleteIS2_EEED2B7v160006Ev, symObjAddr: 0x13BA0, symBinAddr: 0x1000149E0, symSize: 0x30 }
  - { offsetInCU: 0x32FD6, offset: 0x32FD6, size: 0x8, addend: 0x0, symName: __ZNSt3__110unique_ptrIN7CoTrain15StdLogFormatterENS_14default_deleteIS2_EEE5resetB7v160006EPS2_, symObjAddr: 0x13BD0, symBinAddr: 0x100014A10, symSize: 0x78 }
  - { offsetInCU: 0x3301A, offset: 0x3301A, size: 0x8, addend: 0x0, symName: __ZNSt3__117__compressed_pairIPN7CoTrain15StdLogFormatterENS_14default_deleteIS2_EEE6secondB7v160006Ev, symObjAddr: 0x13C48, symBinAddr: 0x100014A88, symSize: 0x24 }
  - { offsetInCU: 0x33040, offset: 0x33040, size: 0x8, addend: 0x0, symName: __ZNSt3__122__compressed_pair_elemINS_14default_deleteIN7CoTrain15StdLogFormatterEEELi1ELb1EE5__getB7v160006Ev, symObjAddr: 0x13C6C, symBinAddr: 0x100014AAC, symSize: 0x14 }
  - { offsetInCU: 0x33066, offset: 0x33066, size: 0x8, addend: 0x0, symName: __ZNSt3__110shared_ptrIN7CoTrain15StdLogFormatterEED2B7v160006Ev, symObjAddr: 0x13C80, symBinAddr: 0x100014AC0, symSize: 0x54 }
  - { offsetInCU: 0x33090, offset: 0x33090, size: 0x8, addend: 0x0, symName: __ZNSt3__110shared_ptrIN7CoTrain17StdOutLogAppenderEEC2IS2_vEEPT_, symObjAddr: 0x13CD4, symBinAddr: 0x100014B14, symSize: 0xEC }
  - { offsetInCU: 0x3318F, offset: 0x3318F, size: 0x8, addend: 0x0, symName: __ZNSt3__110unique_ptrIN7CoTrain17StdOutLogAppenderENS_14default_deleteIS2_EEEC1B7v160006ILb1EvEEPS2_, symObjAddr: 0x13DC0, symBinAddr: 0x100014C00, symSize: 0x34 }
  - { offsetInCU: 0x331FB, offset: 0x331FB, size: 0x8, addend: 0x0, symName: __ZNSt3__19allocatorIN7CoTrain17StdOutLogAppenderEEC1B7v160006Ev, symObjAddr: 0x13DF4, symBinAddr: 0x100014C34, symSize: 0x2C }
  - { offsetInCU: 0x332D8, offset: 0x332D8, size: 0x8, addend: 0x0, symName: __ZNSt3__120__shared_ptr_pointerIPN7CoTrain17StdOutLogAppenderENS_10shared_ptrIS2_E27__shared_ptr_default_deleteIS2_S2_EENS_9allocatorIS2_EEEC1B7v160006ES3_S7_S9_, symObjAddr: 0x13E20, symBinAddr: 0x100014C60, symSize: 0x34 }
  - { offsetInCU: 0x3332F, offset: 0x3332F, size: 0x8, addend: 0x0, symName: __ZNSt3__110unique_ptrIN7CoTrain17StdOutLogAppenderENS_14default_deleteIS2_EEE7releaseB7v160006Ev, symObjAddr: 0x13E54, symBinAddr: 0x100014C94, symSize: 0x44 }
  - { offsetInCU: 0x33364, offset: 0x33364, size: 0x8, addend: 0x0, symName: __ZNSt3__110shared_ptrIN7CoTrain17StdOutLogAppenderEE18__enable_weak_thisB7v160006Ez, symObjAddr: 0x13E98, symBinAddr: 0x100014CD8, symSize: 0x10 }
  - { offsetInCU: 0x3338B, offset: 0x3338B, size: 0x8, addend: 0x0, symName: __ZNSt3__110unique_ptrIN7CoTrain17StdOutLogAppenderENS_14default_deleteIS2_EEED1B7v160006Ev, symObjAddr: 0x13EA8, symBinAddr: 0x100014CE8, symSize: 0x2C }
  - { offsetInCU: 0x333B5, offset: 0x333B5, size: 0x8, addend: 0x0, symName: __ZNSt3__110unique_ptrIN7CoTrain17StdOutLogAppenderENS_14default_deleteIS2_EEEC2B7v160006ILb1EvEEPS2_, symObjAddr: 0x13ED4, symBinAddr: 0x100014D14, symSize: 0x44 }
  - { offsetInCU: 0x333F9, offset: 0x333F9, size: 0x8, addend: 0x0, symName: __ZNSt3__117__compressed_pairIPN7CoTrain17StdOutLogAppenderENS_14default_deleteIS2_EEEC1B7v160006IRS3_NS_16__value_init_tagEEEOT_OT0_, symObjAddr: 0x13F18, symBinAddr: 0x100014D58, symSize: 0x3C }
  - { offsetInCU: 0x33453, offset: 0x33453, size: 0x8, addend: 0x0, symName: __ZNSt3__117__compressed_pairIPN7CoTrain17StdOutLogAppenderENS_14default_deleteIS2_EEEC2B7v160006IRS3_NS_16__value_init_tagEEEOT_OT0_, symObjAddr: 0x13F54, symBinAddr: 0x100014D94, symSize: 0x40 }
  - { offsetInCU: 0x334AD, offset: 0x334AD, size: 0x8, addend: 0x0, symName: __ZNSt3__122__compressed_pair_elemIPN7CoTrain17StdOutLogAppenderELi0ELb0EEC2B7v160006IRS3_vEEOT_, symObjAddr: 0x13F94, symBinAddr: 0x100014DD4, symSize: 0x24 }
  - { offsetInCU: 0x334F0, offset: 0x334F0, size: 0x8, addend: 0x0, symName: __ZNSt3__122__compressed_pair_elemINS_14default_deleteIN7CoTrain17StdOutLogAppenderEEELi1ELb1EEC2B7v160006ENS_16__value_init_tagE, symObjAddr: 0x13FB8, symBinAddr: 0x100014DF8, symSize: 0x14 }
  - { offsetInCU: 0x33524, offset: 0x33524, size: 0x8, addend: 0x0, symName: __ZNSt3__19allocatorIN7CoTrain17StdOutLogAppenderEEC2B7v160006Ev, symObjAddr: 0x13FCC, symBinAddr: 0x100014E0C, symSize: 0x2C }
  - { offsetInCU: 0x3354E, offset: 0x3354E, size: 0x8, addend: 0x0, symName: __ZNSt3__116__non_trivial_ifILb1ENS_9allocatorIN7CoTrain17StdOutLogAppenderEEEEC2B7v160006Ev, symObjAddr: 0x13FF8, symBinAddr: 0x100014E38, symSize: 0x14 }
  - { offsetInCU: 0x33578, offset: 0x33578, size: 0x8, addend: 0x0, symName: __ZNSt3__120__shared_ptr_pointerIPN7CoTrain17StdOutLogAppenderENS_10shared_ptrIS2_E27__shared_ptr_default_deleteIS2_S2_EENS_9allocatorIS2_EEEC2B7v160006ES3_S7_S9_, symObjAddr: 0x1400C, symBinAddr: 0x100014E4C, symSize: 0xA8 }
  - { offsetInCU: 0x335D5, offset: 0x335D5, size: 0x8, addend: 0x0, symName: __ZNSt3__117__compressed_pairIPN7CoTrain17StdOutLogAppenderENS_10shared_ptrIS2_E27__shared_ptr_default_deleteIS2_S2_EEEC1B7v160006IRS3_S7_EEOT_OT0_, symObjAddr: 0x140B4, symBinAddr: 0x100014EF4, symSize: 0x3C }
  - { offsetInCU: 0x3363B, offset: 0x3363B, size: 0x8, addend: 0x0, symName: __ZNSt3__117__compressed_pairINS0_IPN7CoTrain17StdOutLogAppenderENS_10shared_ptrIS2_E27__shared_ptr_default_deleteIS2_S2_EEEENS_9allocatorIS2_EEEC1B7v160006IS8_SA_EEOT_OT0_, symObjAddr: 0x140F0, symBinAddr: 0x100014F30, symSize: 0x3C }
  - { offsetInCU: 0x33695, offset: 0x33695, size: 0x8, addend: 0x0, symName: __ZNSt3__120__shared_ptr_pointerIPN7CoTrain17StdOutLogAppenderENS_10shared_ptrIS2_E27__shared_ptr_default_deleteIS2_S2_EENS_9allocatorIS2_EEED1Ev, symObjAddr: 0x1412C, symBinAddr: 0x100014F6C, symSize: 0x2C }
  - { offsetInCU: 0x336C1, offset: 0x336C1, size: 0x8, addend: 0x0, symName: __ZNSt3__120__shared_ptr_pointerIPN7CoTrain17StdOutLogAppenderENS_10shared_ptrIS2_E27__shared_ptr_default_deleteIS2_S2_EENS_9allocatorIS2_EEED0Ev, symObjAddr: 0x14158, symBinAddr: 0x100014F98, symSize: 0x30 }
  - { offsetInCU: 0x336ED, offset: 0x336ED, size: 0x8, addend: 0x0, symName: __ZNSt3__120__shared_ptr_pointerIPN7CoTrain17StdOutLogAppenderENS_10shared_ptrIS2_E27__shared_ptr_default_deleteIS2_S2_EENS_9allocatorIS2_EEE16__on_zero_sharedEv, symObjAddr: 0x14188, symBinAddr: 0x100014FC8, symSize: 0x64 }
  - { offsetInCU: 0x33714, offset: 0x33714, size: 0x8, addend: 0x0, symName: __ZNKSt3__120__shared_ptr_pointerIPN7CoTrain17StdOutLogAppenderENS_10shared_ptrIS2_E27__shared_ptr_default_deleteIS2_S2_EENS_9allocatorIS2_EEE13__get_deleterERKSt9type_info, symObjAddr: 0x141EC, symBinAddr: 0x10001502C, symSize: 0x68 }
  - { offsetInCU: 0x3374A, offset: 0x3374A, size: 0x8, addend: 0x0, symName: __ZNSt3__120__shared_ptr_pointerIPN7CoTrain17StdOutLogAppenderENS_10shared_ptrIS2_E27__shared_ptr_default_deleteIS2_S2_EENS_9allocatorIS2_EEE21__on_zero_shared_weakEv, symObjAddr: 0x14254, symBinAddr: 0x100015094, symSize: 0x60 }
  - { offsetInCU: 0x3378B, offset: 0x3378B, size: 0x8, addend: 0x0, symName: __ZNSt3__117__compressed_pairIPN7CoTrain17StdOutLogAppenderENS_10shared_ptrIS2_E27__shared_ptr_default_deleteIS2_S2_EEEC2B7v160006IRS3_S7_EEOT_OT0_, symObjAddr: 0x142B4, symBinAddr: 0x1000150F4, symSize: 0x44 }
  - { offsetInCU: 0x337E5, offset: 0x337E5, size: 0x8, addend: 0x0, symName: __ZNSt3__122__compressed_pair_elemINS_10shared_ptrIN7CoTrain17StdOutLogAppenderEE27__shared_ptr_default_deleteIS3_S3_EELi1ELb1EEC2B7v160006IS6_vEEOT_, symObjAddr: 0x142F8, symBinAddr: 0x100015138, symSize: 0x18 }
  - { offsetInCU: 0x33828, offset: 0x33828, size: 0x8, addend: 0x0, symName: __ZNSt3__117__compressed_pairINS0_IPN7CoTrain17StdOutLogAppenderENS_10shared_ptrIS2_E27__shared_ptr_default_deleteIS2_S2_EEEENS_9allocatorIS2_EEEC2B7v160006IS8_SA_EEOT_OT0_, symObjAddr: 0x14310, symBinAddr: 0x100015150, symSize: 0x44 }
  - { offsetInCU: 0x33882, offset: 0x33882, size: 0x8, addend: 0x0, symName: __ZNSt3__122__compressed_pair_elemINS_17__compressed_pairIPN7CoTrain17StdOutLogAppenderENS_10shared_ptrIS3_E27__shared_ptr_default_deleteIS3_S3_EEEELi0ELb0EEC2B7v160006IS9_vEEOT_, symObjAddr: 0x14354, symBinAddr: 0x100015194, symSize: 0x24 }
  - { offsetInCU: 0x338C5, offset: 0x338C5, size: 0x8, addend: 0x0, symName: __ZNSt3__122__compressed_pair_elemINS_9allocatorIN7CoTrain17StdOutLogAppenderEEELi1ELb1EEC2B7v160006IS4_vEEOT_, symObjAddr: 0x14378, symBinAddr: 0x1000151B8, symSize: 0x18 }
  - { offsetInCU: 0x33908, offset: 0x33908, size: 0x8, addend: 0x0, symName: __ZNSt3__120__shared_ptr_pointerIPN7CoTrain17StdOutLogAppenderENS_10shared_ptrIS2_E27__shared_ptr_default_deleteIS2_S2_EENS_9allocatorIS2_EEED2Ev, symObjAddr: 0x14390, symBinAddr: 0x1000151D0, symSize: 0x2C }
  - { offsetInCU: 0x33934, offset: 0x33934, size: 0x8, addend: 0x0, symName: __ZNSt3__117__compressed_pairINS0_IPN7CoTrain17StdOutLogAppenderENS_10shared_ptrIS2_E27__shared_ptr_default_deleteIS2_S2_EEEENS_9allocatorIS2_EEE5firstB7v160006Ev, symObjAddr: 0x143BC, symBinAddr: 0x1000151FC, symSize: 0x24 }
  - { offsetInCU: 0x3395A, offset: 0x3395A, size: 0x8, addend: 0x0, symName: __ZNSt3__117__compressed_pairIPN7CoTrain17StdOutLogAppenderENS_10shared_ptrIS2_E27__shared_ptr_default_deleteIS2_S2_EEE6secondB7v160006Ev, symObjAddr: 0x143E0, symBinAddr: 0x100015220, symSize: 0x24 }
  - { offsetInCU: 0x33980, offset: 0x33980, size: 0x8, addend: 0x0, symName: __ZNKSt3__114default_deleteIN7CoTrain17StdOutLogAppenderEEclB7v160006EPS2_, symObjAddr: 0x14404, symBinAddr: 0x100015244, symSize: 0x4C }
  - { offsetInCU: 0x339B5, offset: 0x339B5, size: 0x8, addend: 0x0, symName: __ZNSt3__117__compressed_pairIPN7CoTrain17StdOutLogAppenderENS_10shared_ptrIS2_E27__shared_ptr_default_deleteIS2_S2_EEE5firstB7v160006Ev, symObjAddr: 0x14450, symBinAddr: 0x100015290, symSize: 0x24 }
  - { offsetInCU: 0x339DB, offset: 0x339DB, size: 0x8, addend: 0x0, symName: __ZNSt3__122__compressed_pair_elemINS_17__compressed_pairIPN7CoTrain17StdOutLogAppenderENS_10shared_ptrIS3_E27__shared_ptr_default_deleteIS3_S3_EEEELi0ELb0EE5__getB7v160006Ev, symObjAddr: 0x14474, symBinAddr: 0x1000152B4, symSize: 0x14 }
  - { offsetInCU: 0x33A01, offset: 0x33A01, size: 0x8, addend: 0x0, symName: __ZNSt3__122__compressed_pair_elemINS_10shared_ptrIN7CoTrain17StdOutLogAppenderEE27__shared_ptr_default_deleteIS3_S3_EELi1ELb1EE5__getB7v160006Ev, symObjAddr: 0x14488, symBinAddr: 0x1000152C8, symSize: 0x14 }
  - { offsetInCU: 0x33A27, offset: 0x33A27, size: 0x8, addend: 0x0, symName: __ZNSt3__122__compressed_pair_elemIPN7CoTrain17StdOutLogAppenderELi0ELb0EE5__getB7v160006Ev, symObjAddr: 0x1449C, symBinAddr: 0x1000152DC, symSize: 0x14 }
  - { offsetInCU: 0x33A4D, offset: 0x33A4D, size: 0x8, addend: 0x0, symName: __ZNKSt3__117__compressed_pairINS0_IPN7CoTrain17StdOutLogAppenderENS_10shared_ptrIS2_E27__shared_ptr_default_deleteIS2_S2_EEEENS_9allocatorIS2_EEE5firstB7v160006Ev, symObjAddr: 0x144B0, symBinAddr: 0x1000152F0, symSize: 0x24 }
  - { offsetInCU: 0x33A73, offset: 0x33A73, size: 0x8, addend: 0x0, symName: __ZNKSt3__117__compressed_pairIPN7CoTrain17StdOutLogAppenderENS_10shared_ptrIS2_E27__shared_ptr_default_deleteIS2_S2_EEE6secondB7v160006Ev, symObjAddr: 0x144D4, symBinAddr: 0x100015314, symSize: 0x24 }
  - { offsetInCU: 0x33A99, offset: 0x33A99, size: 0x8, addend: 0x0, symName: __ZNKSt3__122__compressed_pair_elemINS_17__compressed_pairIPN7CoTrain17StdOutLogAppenderENS_10shared_ptrIS3_E27__shared_ptr_default_deleteIS3_S3_EEEELi0ELb0EE5__getB7v160006Ev, symObjAddr: 0x144F8, symBinAddr: 0x100015338, symSize: 0x14 }
  - { offsetInCU: 0x33ABF, offset: 0x33ABF, size: 0x8, addend: 0x0, symName: __ZNKSt3__122__compressed_pair_elemINS_10shared_ptrIN7CoTrain17StdOutLogAppenderEE27__shared_ptr_default_deleteIS3_S3_EELi1ELb1EE5__getB7v160006Ev, symObjAddr: 0x1450C, symBinAddr: 0x10001534C, symSize: 0x14 }
  - { offsetInCU: 0x33AE5, offset: 0x33AE5, size: 0x8, addend: 0x0, symName: __ZNSt3__117__compressed_pairINS0_IPN7CoTrain17StdOutLogAppenderENS_10shared_ptrIS2_E27__shared_ptr_default_deleteIS2_S2_EEEENS_9allocatorIS2_EEE6secondB7v160006Ev, symObjAddr: 0x14520, symBinAddr: 0x100015360, symSize: 0x24 }
  - { offsetInCU: 0x33B3A, offset: 0x33B3A, size: 0x8, addend: 0x0, symName: __ZNSt3__19allocatorINS_20__shared_ptr_pointerIPN7CoTrain17StdOutLogAppenderENS_10shared_ptrIS3_E27__shared_ptr_default_deleteIS3_S3_EENS0_IS3_EEEEEC1B7v160006IS3_EERKNS0_IT_EE, symObjAddr: 0x14544, symBinAddr: 0x100015384, symSize: 0x34 }
  - { offsetInCU: 0x33B77, offset: 0x33B77, size: 0x8, addend: 0x0, symName: __ZNSt3__19allocatorINS_20__shared_ptr_pointerIPN7CoTrain17StdOutLogAppenderENS_10shared_ptrIS3_E27__shared_ptr_default_deleteIS3_S3_EENS0_IS3_EEEEE10deallocateB7v160006EPSA_m, symObjAddr: 0x14578, symBinAddr: 0x1000153B8, symSize: 0x40 }
  - { offsetInCU: 0x33BBB, offset: 0x33BBB, size: 0x8, addend: 0x0, symName: __ZNSt3__114pointer_traitsIPNS_20__shared_ptr_pointerIPN7CoTrain17StdOutLogAppenderENS_10shared_ptrIS3_E27__shared_ptr_default_deleteIS3_S3_EENS_9allocatorIS3_EEEEE10pointer_toB7v160006ERSB_, symObjAddr: 0x145B8, symBinAddr: 0x1000153F8, symSize: 0x14 }
  - { offsetInCU: 0x33BDF, offset: 0x33BDF, size: 0x8, addend: 0x0, symName: __ZNSt3__122__compressed_pair_elemINS_9allocatorIN7CoTrain17StdOutLogAppenderEEELi1ELb1EE5__getB7v160006Ev, symObjAddr: 0x145CC, symBinAddr: 0x10001540C, symSize: 0x14 }
  - { offsetInCU: 0x33C05, offset: 0x33C05, size: 0x8, addend: 0x0, symName: __ZNSt3__19allocatorINS_20__shared_ptr_pointerIPN7CoTrain17StdOutLogAppenderENS_10shared_ptrIS3_E27__shared_ptr_default_deleteIS3_S3_EENS0_IS3_EEEEEC2B7v160006IS3_EERKNS0_IT_EE, symObjAddr: 0x145E0, symBinAddr: 0x100015420, symSize: 0x30 }
  - { offsetInCU: 0x33C42, offset: 0x33C42, size: 0x8, addend: 0x0, symName: __ZNSt3__116__non_trivial_ifILb1ENS_9allocatorINS_20__shared_ptr_pointerIPN7CoTrain17StdOutLogAppenderENS_10shared_ptrIS4_E27__shared_ptr_default_deleteIS4_S4_EENS1_IS4_EEEEEEEC2B7v160006Ev, symObjAddr: 0x14610, symBinAddr: 0x100015450, symSize: 0x14 }
  - { offsetInCU: 0x33C6C, offset: 0x33C6C, size: 0x8, addend: 0x0, symName: __ZNSt3__117__compressed_pairIPN7CoTrain17StdOutLogAppenderENS_14default_deleteIS2_EEE5firstB7v160006Ev, symObjAddr: 0x14624, symBinAddr: 0x100015464, symSize: 0x24 }
  - { offsetInCU: 0x33C92, offset: 0x33C92, size: 0x8, addend: 0x0, symName: __ZNSt3__110unique_ptrIN7CoTrain17StdOutLogAppenderENS_14default_deleteIS2_EEED2B7v160006Ev, symObjAddr: 0x14648, symBinAddr: 0x100015488, symSize: 0x30 }
  - { offsetInCU: 0x33CBC, offset: 0x33CBC, size: 0x8, addend: 0x0, symName: __ZNSt3__110unique_ptrIN7CoTrain17StdOutLogAppenderENS_14default_deleteIS2_EEE5resetB7v160006EPS2_, symObjAddr: 0x14678, symBinAddr: 0x1000154B8, symSize: 0x78 }
  - { offsetInCU: 0x33D00, offset: 0x33D00, size: 0x8, addend: 0x0, symName: __ZNSt3__117__compressed_pairIPN7CoTrain17StdOutLogAppenderENS_14default_deleteIS2_EEE6secondB7v160006Ev, symObjAddr: 0x146F0, symBinAddr: 0x100015530, symSize: 0x24 }
  - { offsetInCU: 0x33D26, offset: 0x33D26, size: 0x8, addend: 0x0, symName: __ZNSt3__122__compressed_pair_elemINS_14default_deleteIN7CoTrain17StdOutLogAppenderEEELi1ELb1EE5__getB7v160006Ev, symObjAddr: 0x14714, symBinAddr: 0x100015554, symSize: 0x14 }
  - { offsetInCU: 0x33D4C, offset: 0x33D4C, size: 0x8, addend: 0x0, symName: __ZNSt3__110shared_ptrIN7CoTrain17StdOutLogAppenderEED2B7v160006Ev, symObjAddr: 0x14728, symBinAddr: 0x100015568, symSize: 0x54 }
  - { offsetInCU: 0x33D76, offset: 0x33D76, size: 0x8, addend: 0x0, symName: __ZNSt3__110shared_ptrIN7CoTrain11LogAppenderEEC2B7v160006INS1_17StdOutLogAppenderEvEEONS0_IT_EE, symObjAddr: 0x1477C, symBinAddr: 0x1000155BC, symSize: 0x40 }
  - { offsetInCU: 0x33DB9, offset: 0x33DB9, size: 0x8, addend: 0x0, symName: __ZNSt3__110shared_ptrIN7CoTrain11LogAppenderEED2B7v160006Ev, symObjAddr: 0x147BC, symBinAddr: 0x1000155FC, symSize: 0x54 }
  - { offsetInCU: 0x33DE3, offset: 0x33DE3, size: 0x8, addend: 0x0, symName: __ZNSt3__110shared_ptrIN7CoTrain12LogFormatterEEC2B7v160006INS1_15StdLogFormatterEvEERKNS0_IT_EE, symObjAddr: 0x14810, symBinAddr: 0x100015650, symSize: 0x70 }
  - { offsetInCU: 0x33E26, offset: 0x33E26, size: 0x8, addend: 0x0, symName: __ZNSt3__110shared_ptrIN7CoTrain11LogAppenderEEC2B7v160006ERKS3_, symObjAddr: 0x14880, symBinAddr: 0x1000156C0, symSize: 0x70 }
  - { offsetInCU: 0x33E5F, offset: 0x33E5F, size: 0x8, addend: 0x0, symName: '__ZN7CoTrain6ThreadC2IZNS_11LogMannager4initEvE3$_5JEEENSt3__112basic_stringIcNS4_11char_traitsIcEENS4_9allocatorIcEEEEOT_DpOT0_', symObjAddr: 0x148F0, symBinAddr: 0x100015730, symSize: 0x74 }
  - { offsetInCU: 0x33EB6, offset: 0x33EB6, size: 0x8, addend: 0x0, symName: '__ZNSt3__16threadC1IZN7CoTrain11LogMannager4initEvE3$_5JEvEEOT_DpOT0_', symObjAddr: 0x14964, symBinAddr: 0x1000157A4, symSize: 0x34 }
  - { offsetInCU: 0x33EFE, offset: 0x33EFE, size: 0x8, addend: 0x0, symName: '__ZNSt3__16threadC2IZN7CoTrain11LogMannager4initEvE3$_5JEvEEOT_DpOT0_', symObjAddr: 0x14998, symBinAddr: 0x1000157D8, symSize: 0x148 }
  - { offsetInCU: 0x33F79, offset: 0x33F79, size: 0x8, addend: 0x0, symName: __ZNSt3__110unique_ptrINS_15__thread_structENS_14default_deleteIS1_EEEC1B7v160006ILb1EvEEPS1_, symObjAddr: 0x14AE0, symBinAddr: 0x100015920, symSize: 0x34 }
  - { offsetInCU: 0x33FBD, offset: 0x33FBD, size: 0x8, addend: 0x0, symName: '__ZNSt3__15tupleIJNS_10unique_ptrINS_15__thread_structENS_14default_deleteIS2_EEEEZN7CoTrain11LogMannager4initEvE3$_5EEC1B7v160006IJS5_S8_ELi0EEEDpOT_', symObjAddr: 0x14B14, symBinAddr: 0x100015954, symSize: 0x3C }
  - { offsetInCU: 0x340C2, offset: 0x340C2, size: 0x8, addend: 0x0, symName: '__ZNSt3__110unique_ptrINS_5tupleIJNS0_INS_15__thread_structENS_14default_deleteIS2_EEEEZN7CoTrain11LogMannager4initEvE3$_5EEENS3_IS9_EEEC1B7v160006ILb1EvEEPS9_', symObjAddr: 0x14B50, symBinAddr: 0x100015990, symSize: 0x34 }
  - { offsetInCU: 0x34106, offset: 0x34106, size: 0x8, addend: 0x0, symName: '__ZNKSt3__110unique_ptrINS_5tupleIJNS0_INS_15__thread_structENS_14default_deleteIS2_EEEEZN7CoTrain11LogMannager4initEvE3$_5EEENS3_IS9_EEE3getB7v160006Ev', symObjAddr: 0x14C4C, symBinAddr: 0x100015A8C, symSize: 0x28 }
  - { offsetInCU: 0x3412C, offset: 0x3412C, size: 0x8, addend: 0x0, symName: '__ZNSt3__110unique_ptrINS_5tupleIJNS0_INS_15__thread_structENS_14default_deleteIS2_EEEEZN7CoTrain11LogMannager4initEvE3$_5EEENS3_IS9_EEE7releaseB7v160006Ev', symObjAddr: 0x14C74, symBinAddr: 0x100015AB4, symSize: 0x44 }
  - { offsetInCU: 0x34161, offset: 0x34161, size: 0x8, addend: 0x0, symName: '__ZNSt3__110unique_ptrINS_5tupleIJNS0_INS_15__thread_structENS_14default_deleteIS2_EEEEZN7CoTrain11LogMannager4initEvE3$_5EEENS3_IS9_EEED1B7v160006Ev', symObjAddr: 0x14CB8, symBinAddr: 0x100015AF8, symSize: 0x2C }
  - { offsetInCU: 0x3418B, offset: 0x3418B, size: 0x8, addend: 0x0, symName: __ZNSt3__110unique_ptrINS_15__thread_structENS_14default_deleteIS1_EEED1B7v160006Ev, symObjAddr: 0x14CE4, symBinAddr: 0x100015B24, symSize: 0x2C }
  - { offsetInCU: 0x341B5, offset: 0x341B5, size: 0x8, addend: 0x0, symName: __ZNSt3__110unique_ptrINS_15__thread_structENS_14default_deleteIS1_EEEC2B7v160006ILb1EvEEPS1_, symObjAddr: 0x14D10, symBinAddr: 0x100015B50, symSize: 0x44 }
  - { offsetInCU: 0x341F9, offset: 0x341F9, size: 0x8, addend: 0x0, symName: __ZNSt3__117__compressed_pairIPNS_15__thread_structENS_14default_deleteIS1_EEEC1B7v160006IRS2_NS_16__value_init_tagEEEOT_OT0_, symObjAddr: 0x14D54, symBinAddr: 0x100015B94, symSize: 0x3C }
  - { offsetInCU: 0x34253, offset: 0x34253, size: 0x8, addend: 0x0, symName: __ZNSt3__117__compressed_pairIPNS_15__thread_structENS_14default_deleteIS1_EEEC2B7v160006IRS2_NS_16__value_init_tagEEEOT_OT0_, symObjAddr: 0x14D90, symBinAddr: 0x100015BD0, symSize: 0x40 }
  - { offsetInCU: 0x342AD, offset: 0x342AD, size: 0x8, addend: 0x0, symName: __ZNSt3__122__compressed_pair_elemIPNS_15__thread_structELi0ELb0EEC2B7v160006IRS2_vEEOT_, symObjAddr: 0x14DD0, symBinAddr: 0x100015C10, symSize: 0x24 }
  - { offsetInCU: 0x342F0, offset: 0x342F0, size: 0x8, addend: 0x0, symName: __ZNSt3__122__compressed_pair_elemINS_14default_deleteINS_15__thread_structEEELi1ELb1EEC2B7v160006ENS_16__value_init_tagE, symObjAddr: 0x14DF4, symBinAddr: 0x100015C34, symSize: 0x14 }
  - { offsetInCU: 0x34324, offset: 0x34324, size: 0x8, addend: 0x0, symName: '__ZNSt3__15tupleIJNS_10unique_ptrINS_15__thread_structENS_14default_deleteIS2_EEEEZN7CoTrain11LogMannager4initEvE3$_5EEC2B7v160006IJS5_S8_ELi0EEEDpOT_', symObjAddr: 0x14E08, symBinAddr: 0x100015C48, symSize: 0x3C }
  - { offsetInCU: 0x34382, offset: 0x34382, size: 0x8, addend: 0x0, symName: '__ZNSt3__112__tuple_implINS_15__tuple_indicesIJLm0ELm1EEEEJNS_10unique_ptrINS_15__thread_structENS_14default_deleteIS4_EEEEZN7CoTrain11LogMannager4initEvE3$_5EEC1B7v160006IJLm0ELm1EEJS7_SA_EJEJEJS7_SA_EEENS1_IJXspT_EEEENS_13__tuple_typesIJDpT0_EEENS1_IJXspT1_EEEENSE_IJDpT2_EEEDpOT3_', symObjAddr: 0x14E44, symBinAddr: 0x100015C84, symSize: 0x3C }
  - { offsetInCU: 0x34436, offset: 0x34436, size: 0x8, addend: 0x0, symName: '__ZNSt3__112__tuple_implINS_15__tuple_indicesIJLm0ELm1EEEEJNS_10unique_ptrINS_15__thread_structENS_14default_deleteIS4_EEEEZN7CoTrain11LogMannager4initEvE3$_5EEC2B7v160006IJLm0ELm1EEJS7_SA_EJEJEJS7_SA_EEENS1_IJXspT_EEEENS_13__tuple_typesIJDpT0_EEENS1_IJXspT1_EEEENSE_IJDpT2_EEEDpOT3_', symObjAddr: 0x14E80, symBinAddr: 0x100015CC0, symSize: 0x48 }
  - { offsetInCU: 0x344EA, offset: 0x344EA, size: 0x8, addend: 0x0, symName: __ZNSt3__112__tuple_leafILm0ENS_10unique_ptrINS_15__thread_structENS_14default_deleteIS2_EEEELb0EEC2B7v160006IS5_vEEOT_, symObjAddr: 0x14EC8, symBinAddr: 0x100015D08, symSize: 0x34 }
  - { offsetInCU: 0x3452D, offset: 0x3452D, size: 0x8, addend: 0x0, symName: '__ZNSt3__112__tuple_leafILm1EZN7CoTrain11LogMannager4initEvE3$_5Lb0EEC2B7v160006IS3_vEEOT_', symObjAddr: 0x14EFC, symBinAddr: 0x100015D3C, symSize: 0x24 }
  - { offsetInCU: 0x34570, offset: 0x34570, size: 0x8, addend: 0x0, symName: __ZNSt3__110unique_ptrINS_15__thread_structENS_14default_deleteIS1_EEEC1B7v160006EOS4_, symObjAddr: 0x14F20, symBinAddr: 0x100015D60, symSize: 0x34 }
  - { offsetInCU: 0x345A9, offset: 0x345A9, size: 0x8, addend: 0x0, symName: __ZNSt3__110unique_ptrINS_15__thread_structENS_14default_deleteIS1_EEEC2B7v160006EOS4_, symObjAddr: 0x14F54, symBinAddr: 0x100015D94, symSize: 0x60 }
  - { offsetInCU: 0x345E2, offset: 0x345E2, size: 0x8, addend: 0x0, symName: __ZNSt3__110unique_ptrINS_15__thread_structENS_14default_deleteIS1_EEE7releaseB7v160006Ev, symObjAddr: 0x14FB4, symBinAddr: 0x100015DF4, symSize: 0x44 }
  - { offsetInCU: 0x34617, offset: 0x34617, size: 0x8, addend: 0x0, symName: __ZNSt3__110unique_ptrINS_15__thread_structENS_14default_deleteIS1_EEE11get_deleterB7v160006Ev, symObjAddr: 0x14FF8, symBinAddr: 0x100015E38, symSize: 0x24 }
  - { offsetInCU: 0x34649, offset: 0x34649, size: 0x8, addend: 0x0, symName: __ZNSt3__117__compressed_pairIPNS_15__thread_structENS_14default_deleteIS1_EEEC1B7v160006IS2_S4_EEOT_OT0_, symObjAddr: 0x1501C, symBinAddr: 0x100015E5C, symSize: 0x3C }
  - { offsetInCU: 0x346A3, offset: 0x346A3, size: 0x8, addend: 0x0, symName: __ZNSt3__117__compressed_pairIPNS_15__thread_structENS_14default_deleteIS1_EEE5firstB7v160006Ev, symObjAddr: 0x15058, symBinAddr: 0x100015E98, symSize: 0x24 }
  - { offsetInCU: 0x346C9, offset: 0x346C9, size: 0x8, addend: 0x0, symName: __ZNSt3__122__compressed_pair_elemIPNS_15__thread_structELi0ELb0EE5__getB7v160006Ev, symObjAddr: 0x1507C, symBinAddr: 0x100015EBC, symSize: 0x14 }
  - { offsetInCU: 0x346EF, offset: 0x346EF, size: 0x8, addend: 0x0, symName: __ZNSt3__117__compressed_pairIPNS_15__thread_structENS_14default_deleteIS1_EEE6secondB7v160006Ev, symObjAddr: 0x15090, symBinAddr: 0x100015ED0, symSize: 0x24 }
  - { offsetInCU: 0x34715, offset: 0x34715, size: 0x8, addend: 0x0, symName: __ZNSt3__122__compressed_pair_elemINS_14default_deleteINS_15__thread_structEEELi1ELb1EE5__getB7v160006Ev, symObjAddr: 0x150B4, symBinAddr: 0x100015EF4, symSize: 0x14 }
  - { offsetInCU: 0x3473B, offset: 0x3473B, size: 0x8, addend: 0x0, symName: __ZNSt3__117__compressed_pairIPNS_15__thread_structENS_14default_deleteIS1_EEEC2B7v160006IS2_S4_EEOT_OT0_, symObjAddr: 0x150C8, symBinAddr: 0x100015F08, symSize: 0x44 }
  - { offsetInCU: 0x34795, offset: 0x34795, size: 0x8, addend: 0x0, symName: __ZNSt3__122__compressed_pair_elemIPNS_15__thread_structELi0ELb0EEC2B7v160006IS2_vEEOT_, symObjAddr: 0x1510C, symBinAddr: 0x100015F4C, symSize: 0x24 }
  - { offsetInCU: 0x347D8, offset: 0x347D8, size: 0x8, addend: 0x0, symName: __ZNSt3__122__compressed_pair_elemINS_14default_deleteINS_15__thread_structEEELi1ELb1EEC2B7v160006IS3_vEEOT_, symObjAddr: 0x15130, symBinAddr: 0x100015F70, symSize: 0x18 }
  - { offsetInCU: 0x3481B, offset: 0x3481B, size: 0x8, addend: 0x0, symName: '__ZNSt3__110unique_ptrINS_5tupleIJNS0_INS_15__thread_structENS_14default_deleteIS2_EEEEZN7CoTrain11LogMannager4initEvE3$_5EEENS3_IS9_EEEC2B7v160006ILb1EvEEPS9_', symObjAddr: 0x15148, symBinAddr: 0x100015F88, symSize: 0x44 }
  - { offsetInCU: 0x3485F, offset: 0x3485F, size: 0x8, addend: 0x0, symName: '__ZNSt3__117__compressed_pairIPNS_5tupleIJNS_10unique_ptrINS_15__thread_structENS_14default_deleteIS3_EEEEZN7CoTrain11LogMannager4initEvE3$_5EEENS4_ISA_EEEC1B7v160006IRSB_NS_16__value_init_tagEEEOT_OT0_', symObjAddr: 0x1518C, symBinAddr: 0x100015FCC, symSize: 0x3C }
  - { offsetInCU: 0x348B9, offset: 0x348B9, size: 0x8, addend: 0x0, symName: '__ZNSt3__117__compressed_pairIPNS_5tupleIJNS_10unique_ptrINS_15__thread_structENS_14default_deleteIS3_EEEEZN7CoTrain11LogMannager4initEvE3$_5EEENS4_ISA_EEEC2B7v160006IRSB_NS_16__value_init_tagEEEOT_OT0_', symObjAddr: 0x151C8, symBinAddr: 0x100016008, symSize: 0x40 }
  - { offsetInCU: 0x34913, offset: 0x34913, size: 0x8, addend: 0x0, symName: '__ZNSt3__122__compressed_pair_elemIPNS_5tupleIJNS_10unique_ptrINS_15__thread_structENS_14default_deleteIS3_EEEEZN7CoTrain11LogMannager4initEvE3$_5EEELi0ELb0EEC2B7v160006IRSB_vEEOT_', symObjAddr: 0x15208, symBinAddr: 0x100016048, symSize: 0x24 }
  - { offsetInCU: 0x34956, offset: 0x34956, size: 0x8, addend: 0x0, symName: '__ZNSt3__122__compressed_pair_elemINS_14default_deleteINS_5tupleIJNS_10unique_ptrINS_15__thread_structENS1_IS4_EEEEZN7CoTrain11LogMannager4initEvE3$_5EEEEELi1ELb1EEC2B7v160006ENS_16__value_init_tagE', symObjAddr: 0x1522C, symBinAddr: 0x10001606C, symSize: 0x14 }
  - { offsetInCU: 0x349BD, offset: 0x349BD, size: 0x8, addend: 0x0, symName: __ZNSt3__121__thread_specific_ptrINS_15__thread_structEE11set_pointerEPS1_, symObjAddr: 0x15240, symBinAddr: 0x100016080, symSize: 0x30 }
  - { offsetInCU: 0x349F3, offset: 0x349F3, size: 0x8, addend: 0x0, symName: __ZNSt3__112__tuple_leafILm0ENS_10unique_ptrINS_15__thread_structENS_14default_deleteIS2_EEEELb0EE3getB7v160006Ev, symObjAddr: 0x152E8, symBinAddr: 0x100016128, symSize: 0x14 }
  - { offsetInCU: 0x34A1F, offset: 0x34A1F, size: 0x8, addend: 0x0, symName: '__ZZN7CoTrain11LogMannager4initEvENK3$_5clEv', symObjAddr: 0x15348, symBinAddr: 0x100016188, symSize: 0x180 }
  - { offsetInCU: 0x34A7C, offset: 0x34A7C, size: 0x8, addend: 0x0, symName: __ZNKSt3__15queueIN7CoTrain4TaskENS_5dequeIS2_NS_9allocatorIS2_EEEEE5emptyB7v160006Ev, symObjAddr: 0x154C8, symBinAddr: 0x100016308, symSize: 0x28 }
  - { offsetInCU: 0x34AA2, offset: 0x34AA2, size: 0x8, addend: 0x0, symName: __ZNSt3__15queueIN7CoTrain4TaskENS_5dequeIS2_NS_9allocatorIS2_EEEEE5frontB7v160006Ev, symObjAddr: 0x154F0, symBinAddr: 0x100016330, symSize: 0x24 }
  - { offsetInCU: 0x34AC8, offset: 0x34AC8, size: 0x8, addend: 0x0, symName: __ZN7CoTrain4TaskC1ERKS0_, symObjAddr: 0x15514, symBinAddr: 0x100016354, symSize: 0x34 }
  - { offsetInCU: 0x34AFD, offset: 0x34AFD, size: 0x8, addend: 0x0, symName: __ZNSt3__15queueIN7CoTrain4TaskENS_5dequeIS2_NS_9allocatorIS2_EEEEE3popB7v160006Ev, symObjAddr: 0x15548, symBinAddr: 0x100016388, symSize: 0x24 }
  - { offsetInCU: 0x34B23, offset: 0x34B23, size: 0x8, addend: 0x0, symName: __ZNKSt3__18functionIFvvEEclEv, symObjAddr: 0x1556C, symBinAddr: 0x1000163AC, symSize: 0x24 }
  - { offsetInCU: 0x34B4B, offset: 0x34B4B, size: 0x8, addend: 0x0, symName: __ZNKSt3__15dequeIN7CoTrain4TaskENS_9allocatorIS2_EEE5emptyB7v160006Ev, symObjAddr: 0x15590, symBinAddr: 0x1000163D0, symSize: 0x30 }
  - { offsetInCU: 0x34B71, offset: 0x34B71, size: 0x8, addend: 0x0, symName: __ZNSt3__15dequeIN7CoTrain4TaskENS_9allocatorIS2_EEE5frontEv, symObjAddr: 0x155C0, symBinAddr: 0x100016400, symSize: 0x58 }
  - { offsetInCU: 0x34B99, offset: 0x34B99, size: 0x8, addend: 0x0, symName: __ZN7CoTrain4TaskC2ERKS0_, symObjAddr: 0x15618, symBinAddr: 0x100016458, symSize: 0x48 }
  - { offsetInCU: 0x34BCE, offset: 0x34BCE, size: 0x8, addend: 0x0, symName: __ZNSt3__18functionIFvvEEC1ERKS2_, symObjAddr: 0x15660, symBinAddr: 0x1000164A0, symSize: 0x34 }
  - { offsetInCU: 0x34C09, offset: 0x34C09, size: 0x8, addend: 0x0, symName: __ZNSt3__18functionIFvvEEC2ERKS2_, symObjAddr: 0x15694, symBinAddr: 0x1000164D4, symSize: 0x34 }
  - { offsetInCU: 0x34C44, offset: 0x34C44, size: 0x8, addend: 0x0, symName: __ZNSt3__110__function12__value_funcIFvvEEC1B7v160006ERKS3_, symObjAddr: 0x156C8, symBinAddr: 0x100016508, symSize: 0x34 }
  - { offsetInCU: 0x34C7D, offset: 0x34C7D, size: 0x8, addend: 0x0, symName: __ZNSt3__110__function12__value_funcIFvvEEC2B7v160006ERKS3_, symObjAddr: 0x156FC, symBinAddr: 0x10001653C, symSize: 0xC0 }
  - { offsetInCU: 0x34CB6, offset: 0x34CB6, size: 0x8, addend: 0x0, symName: __ZNSt3__15dequeIN7CoTrain4TaskENS_9allocatorIS2_EEE9pop_frontEv, symObjAddr: 0x157BC, symBinAddr: 0x1000165FC, symSize: 0xB4 }
  - { offsetInCU: 0x34CED, offset: 0x34CED, size: 0x8, addend: 0x0, symName: __ZNSt3__15dequeIN7CoTrain4TaskENS_9allocatorIS2_EEE26__maybe_remove_front_spareB7v160006Eb, symObjAddr: 0x15884, symBinAddr: 0x1000166C4, symSize: 0xDC }
  - { offsetInCU: 0x34D22, offset: 0x34D22, size: 0x8, addend: 0x0, symName: __ZNKSt3__15dequeIN7CoTrain4TaskENS_9allocatorIS2_EEE20__front_spare_blocksB7v160006Ev, symObjAddr: 0x15960, symBinAddr: 0x1000167A0, symSize: 0x2C }
  - { offsetInCU: 0x34D48, offset: 0x34D48, size: 0x8, addend: 0x0, symName: __ZNKSt3__110__function12__value_funcIFvvEEclB7v160006Ev, symObjAddr: 0x1598C, symBinAddr: 0x1000167CC, symSize: 0x50 }
  - { offsetInCU: 0x34D8B, offset: 0x34D8B, size: 0x8, addend: 0x0, symName: __ZNSt3__117bad_function_callC1Ev, symObjAddr: 0x15A14, symBinAddr: 0x100016854, symSize: 0x2C }
  - { offsetInCU: 0x34DB7, offset: 0x34DB7, size: 0x8, addend: 0x0, symName: __ZNSt3__117bad_function_callD1Ev, symObjAddr: 0x15A40, symBinAddr: 0x100016880, symSize: 0x2C }
  - { offsetInCU: 0x34DE1, offset: 0x34DE1, size: 0x8, addend: 0x0, symName: __ZNSt3__117bad_function_callC2Ev, symObjAddr: 0x15A6C, symBinAddr: 0x1000168AC, symSize: 0x44 }
  - { offsetInCU: 0x34E0D, offset: 0x34E0D, size: 0x8, addend: 0x0, symName: __ZNSt9exceptionC2B7v160006Ev, symObjAddr: 0x15AB0, symBinAddr: 0x1000168F0, symSize: 0x24 }
  - { offsetInCU: 0x34E37, offset: 0x34E37, size: 0x8, addend: 0x0, symName: __ZNSt3__117bad_function_callD0Ev, symObjAddr: 0x15AD4, symBinAddr: 0x100016914, symSize: 0x30 }
  - { offsetInCU: 0x34E61, offset: 0x34E61, size: 0x8, addend: 0x0, symName: __ZNSt3__117bad_function_callD2Ev, symObjAddr: 0x15B04, symBinAddr: 0x100016944, symSize: 0x2C }
  - { offsetInCU: 0x34E8B, offset: 0x34E8B, size: 0x8, addend: 0x0, symName: '__ZNSt3__112__tuple_leafILm1EZN7CoTrain11LogMannager4initEvE3$_5Lb0EE3getB7v160006Ev', symObjAddr: 0x15B30, symBinAddr: 0x100016970, symSize: 0x14 }
  - { offsetInCU: 0x34EB1, offset: 0x34EB1, size: 0x8, addend: 0x0, symName: '__ZNKSt3__117__compressed_pairIPNS_5tupleIJNS_10unique_ptrINS_15__thread_structENS_14default_deleteIS3_EEEEZN7CoTrain11LogMannager4initEvE3$_5EEENS4_ISA_EEE5firstB7v160006Ev', symObjAddr: 0x15B44, symBinAddr: 0x100016984, symSize: 0x24 }
  - { offsetInCU: 0x34ED7, offset: 0x34ED7, size: 0x8, addend: 0x0, symName: '__ZNKSt3__122__compressed_pair_elemIPNS_5tupleIJNS_10unique_ptrINS_15__thread_structENS_14default_deleteIS3_EEEEZN7CoTrain11LogMannager4initEvE3$_5EEELi0ELb0EE5__getB7v160006Ev', symObjAddr: 0x15B68, symBinAddr: 0x1000169A8, symSize: 0x14 }
  - { offsetInCU: 0x34EFD, offset: 0x34EFD, size: 0x8, addend: 0x0, symName: '__ZNSt3__117__compressed_pairIPNS_5tupleIJNS_10unique_ptrINS_15__thread_structENS_14default_deleteIS3_EEEEZN7CoTrain11LogMannager4initEvE3$_5EEENS4_ISA_EEE5firstB7v160006Ev', symObjAddr: 0x15B7C, symBinAddr: 0x1000169BC, symSize: 0x24 }
  - { offsetInCU: 0x34F23, offset: 0x34F23, size: 0x8, addend: 0x0, symName: '__ZNSt3__122__compressed_pair_elemIPNS_5tupleIJNS_10unique_ptrINS_15__thread_structENS_14default_deleteIS3_EEEEZN7CoTrain11LogMannager4initEvE3$_5EEELi0ELb0EE5__getB7v160006Ev', symObjAddr: 0x15BA0, symBinAddr: 0x1000169E0, symSize: 0x14 }
  - { offsetInCU: 0x34F49, offset: 0x34F49, size: 0x8, addend: 0x0, symName: '__ZNSt3__110unique_ptrINS_5tupleIJNS0_INS_15__thread_structENS_14default_deleteIS2_EEEEZN7CoTrain11LogMannager4initEvE3$_5EEENS3_IS9_EEED2B7v160006Ev', symObjAddr: 0x15BB4, symBinAddr: 0x1000169F4, symSize: 0x30 }
  - { offsetInCU: 0x34F73, offset: 0x34F73, size: 0x8, addend: 0x0, symName: '__ZNSt3__110unique_ptrINS_5tupleIJNS0_INS_15__thread_structENS_14default_deleteIS2_EEEEZN7CoTrain11LogMannager4initEvE3$_5EEENS3_IS9_EEE5resetB7v160006EPS9_', symObjAddr: 0x15BE4, symBinAddr: 0x100016A24, symSize: 0x78 }
  - { offsetInCU: 0x34FB7, offset: 0x34FB7, size: 0x8, addend: 0x0, symName: '__ZNSt3__117__compressed_pairIPNS_5tupleIJNS_10unique_ptrINS_15__thread_structENS_14default_deleteIS3_EEEEZN7CoTrain11LogMannager4initEvE3$_5EEENS4_ISA_EEE6secondB7v160006Ev', symObjAddr: 0x15C5C, symBinAddr: 0x100016A9C, symSize: 0x24 }
  - { offsetInCU: 0x34FDD, offset: 0x34FDD, size: 0x8, addend: 0x0, symName: '__ZNKSt3__114default_deleteINS_5tupleIJNS_10unique_ptrINS_15__thread_structENS0_IS3_EEEEZN7CoTrain11LogMannager4initEvE3$_5EEEEclB7v160006EPS9_', symObjAddr: 0x15C80, symBinAddr: 0x100016AC0, symSize: 0x4C }
  - { offsetInCU: 0x35012, offset: 0x35012, size: 0x8, addend: 0x0, symName: '__ZNSt3__122__compressed_pair_elemINS_14default_deleteINS_5tupleIJNS_10unique_ptrINS_15__thread_structENS1_IS4_EEEEZN7CoTrain11LogMannager4initEvE3$_5EEEEELi1ELb1EE5__getB7v160006Ev', symObjAddr: 0x15CCC, symBinAddr: 0x100016B0C, symSize: 0x14 }
  - { offsetInCU: 0x35038, offset: 0x35038, size: 0x8, addend: 0x0, symName: '__ZNSt3__15tupleIJNS_10unique_ptrINS_15__thread_structENS_14default_deleteIS2_EEEEZN7CoTrain11LogMannager4initEvE3$_5EED1Ev', symObjAddr: 0x15CE0, symBinAddr: 0x100016B20, symSize: 0x2C }
  - { offsetInCU: 0x35065, offset: 0x35065, size: 0x8, addend: 0x0, symName: '__ZNSt3__15tupleIJNS_10unique_ptrINS_15__thread_structENS_14default_deleteIS2_EEEEZN7CoTrain11LogMannager4initEvE3$_5EED2Ev', symObjAddr: 0x15D0C, symBinAddr: 0x100016B4C, symSize: 0x2C }
  - { offsetInCU: 0x35092, offset: 0x35092, size: 0x8, addend: 0x0, symName: '__ZNSt3__112__tuple_implINS_15__tuple_indicesIJLm0ELm1EEEEJNS_10unique_ptrINS_15__thread_structENS_14default_deleteIS4_EEEEZN7CoTrain11LogMannager4initEvE3$_5EED1Ev', symObjAddr: 0x15D38, symBinAddr: 0x100016B78, symSize: 0x2C }
  - { offsetInCU: 0x350BF, offset: 0x350BF, size: 0x8, addend: 0x0, symName: '__ZNSt3__112__tuple_implINS_15__tuple_indicesIJLm0ELm1EEEEJNS_10unique_ptrINS_15__thread_structENS_14default_deleteIS4_EEEEZN7CoTrain11LogMannager4initEvE3$_5EED2Ev', symObjAddr: 0x15D64, symBinAddr: 0x100016BA4, symSize: 0x2C }
  - { offsetInCU: 0x350EC, offset: 0x350EC, size: 0x8, addend: 0x0, symName: __ZNSt3__112__tuple_leafILm0ENS_10unique_ptrINS_15__thread_structENS_14default_deleteIS2_EEEELb0EED2Ev, symObjAddr: 0x15D90, symBinAddr: 0x100016BD0, symSize: 0x2C }
  - { offsetInCU: 0x35119, offset: 0x35119, size: 0x8, addend: 0x0, symName: __ZNSt3__110unique_ptrINS_15__thread_structENS_14default_deleteIS1_EEED2B7v160006Ev, symObjAddr: 0x15DBC, symBinAddr: 0x100016BFC, symSize: 0x30 }
  - { offsetInCU: 0x35143, offset: 0x35143, size: 0x8, addend: 0x0, symName: __ZNSt3__110unique_ptrINS_15__thread_structENS_14default_deleteIS1_EEE5resetB7v160006EPS1_, symObjAddr: 0x15DEC, symBinAddr: 0x100016C2C, symSize: 0x78 }
  - { offsetInCU: 0x35187, offset: 0x35187, size: 0x8, addend: 0x0, symName: __ZNKSt3__114default_deleteINS_15__thread_structEEclB7v160006EPS1_, symObjAddr: 0x15E64, symBinAddr: 0x100016CA4, symSize: 0x4C }
  - { offsetInCU: 0x351BC, offset: 0x351BC, size: 0x8, addend: 0x0, symName: __ZNSt3__110shared_ptrIN7CoTrain6ThreadEEC2IS2_vEEPT_, symObjAddr: 0x15EB0, symBinAddr: 0x100016CF0, symSize: 0xEC }
  - { offsetInCU: 0x352BB, offset: 0x352BB, size: 0x8, addend: 0x0, symName: __ZNSt3__110unique_ptrIN7CoTrain6ThreadENS_14default_deleteIS2_EEEC1B7v160006ILb1EvEEPS2_, symObjAddr: 0x15F9C, symBinAddr: 0x100016DDC, symSize: 0x34 }
  - { offsetInCU: 0x35327, offset: 0x35327, size: 0x8, addend: 0x0, symName: __ZNSt3__19allocatorIN7CoTrain6ThreadEEC1B7v160006Ev, symObjAddr: 0x15FD0, symBinAddr: 0x100016E10, symSize: 0x2C }
  - { offsetInCU: 0x35404, offset: 0x35404, size: 0x8, addend: 0x0, symName: __ZNSt3__120__shared_ptr_pointerIPN7CoTrain6ThreadENS_10shared_ptrIS2_E27__shared_ptr_default_deleteIS2_S2_EENS_9allocatorIS2_EEEC1B7v160006ES3_S7_S9_, symObjAddr: 0x15FFC, symBinAddr: 0x100016E3C, symSize: 0x34 }
  - { offsetInCU: 0x3545B, offset: 0x3545B, size: 0x8, addend: 0x0, symName: __ZNSt3__110unique_ptrIN7CoTrain6ThreadENS_14default_deleteIS2_EEE7releaseB7v160006Ev, symObjAddr: 0x16030, symBinAddr: 0x100016E70, symSize: 0x44 }
  - { offsetInCU: 0x35490, offset: 0x35490, size: 0x8, addend: 0x0, symName: __ZNSt3__110shared_ptrIN7CoTrain6ThreadEE18__enable_weak_thisB7v160006Ez, symObjAddr: 0x16074, symBinAddr: 0x100016EB4, symSize: 0x10 }
  - { offsetInCU: 0x354B7, offset: 0x354B7, size: 0x8, addend: 0x0, symName: __ZNSt3__110unique_ptrIN7CoTrain6ThreadENS_14default_deleteIS2_EEED1B7v160006Ev, symObjAddr: 0x16084, symBinAddr: 0x100016EC4, symSize: 0x2C }
  - { offsetInCU: 0x354E1, offset: 0x354E1, size: 0x8, addend: 0x0, symName: __ZNSt3__110unique_ptrIN7CoTrain6ThreadENS_14default_deleteIS2_EEEC2B7v160006ILb1EvEEPS2_, symObjAddr: 0x160B0, symBinAddr: 0x100016EF0, symSize: 0x44 }
  - { offsetInCU: 0x35525, offset: 0x35525, size: 0x8, addend: 0x0, symName: __ZNSt3__117__compressed_pairIPN7CoTrain6ThreadENS_14default_deleteIS2_EEEC1B7v160006IRS3_NS_16__value_init_tagEEEOT_OT0_, symObjAddr: 0x160F4, symBinAddr: 0x100016F34, symSize: 0x3C }
  - { offsetInCU: 0x3557F, offset: 0x3557F, size: 0x8, addend: 0x0, symName: __ZNSt3__117__compressed_pairIPN7CoTrain6ThreadENS_14default_deleteIS2_EEEC2B7v160006IRS3_NS_16__value_init_tagEEEOT_OT0_, symObjAddr: 0x16130, symBinAddr: 0x100016F70, symSize: 0x40 }
  - { offsetInCU: 0x355D9, offset: 0x355D9, size: 0x8, addend: 0x0, symName: __ZNSt3__122__compressed_pair_elemIPN7CoTrain6ThreadELi0ELb0EEC2B7v160006IRS3_vEEOT_, symObjAddr: 0x16170, symBinAddr: 0x100016FB0, symSize: 0x24 }
  - { offsetInCU: 0x3561C, offset: 0x3561C, size: 0x8, addend: 0x0, symName: __ZNSt3__122__compressed_pair_elemINS_14default_deleteIN7CoTrain6ThreadEEELi1ELb1EEC2B7v160006ENS_16__value_init_tagE, symObjAddr: 0x16194, symBinAddr: 0x100016FD4, symSize: 0x14 }
  - { offsetInCU: 0x35650, offset: 0x35650, size: 0x8, addend: 0x0, symName: __ZNSt3__19allocatorIN7CoTrain6ThreadEEC2B7v160006Ev, symObjAddr: 0x161A8, symBinAddr: 0x100016FE8, symSize: 0x2C }
  - { offsetInCU: 0x3567A, offset: 0x3567A, size: 0x8, addend: 0x0, symName: __ZNSt3__116__non_trivial_ifILb1ENS_9allocatorIN7CoTrain6ThreadEEEEC2B7v160006Ev, symObjAddr: 0x161D4, symBinAddr: 0x100017014, symSize: 0x14 }
  - { offsetInCU: 0x356A4, offset: 0x356A4, size: 0x8, addend: 0x0, symName: __ZNSt3__120__shared_ptr_pointerIPN7CoTrain6ThreadENS_10shared_ptrIS2_E27__shared_ptr_default_deleteIS2_S2_EENS_9allocatorIS2_EEEC2B7v160006ES3_S7_S9_, symObjAddr: 0x161E8, symBinAddr: 0x100017028, symSize: 0xA8 }
  - { offsetInCU: 0x35701, offset: 0x35701, size: 0x8, addend: 0x0, symName: __ZNSt3__117__compressed_pairIPN7CoTrain6ThreadENS_10shared_ptrIS2_E27__shared_ptr_default_deleteIS2_S2_EEEC1B7v160006IRS3_S7_EEOT_OT0_, symObjAddr: 0x16290, symBinAddr: 0x1000170D0, symSize: 0x3C }
  - { offsetInCU: 0x35767, offset: 0x35767, size: 0x8, addend: 0x0, symName: __ZNSt3__117__compressed_pairINS0_IPN7CoTrain6ThreadENS_10shared_ptrIS2_E27__shared_ptr_default_deleteIS2_S2_EEEENS_9allocatorIS2_EEEC1B7v160006IS8_SA_EEOT_OT0_, symObjAddr: 0x162CC, symBinAddr: 0x10001710C, symSize: 0x3C }
  - { offsetInCU: 0x357C1, offset: 0x357C1, size: 0x8, addend: 0x0, symName: __ZNSt3__120__shared_ptr_pointerIPN7CoTrain6ThreadENS_10shared_ptrIS2_E27__shared_ptr_default_deleteIS2_S2_EENS_9allocatorIS2_EEED1Ev, symObjAddr: 0x16308, symBinAddr: 0x100017148, symSize: 0x2C }
  - { offsetInCU: 0x357ED, offset: 0x357ED, size: 0x8, addend: 0x0, symName: __ZNSt3__120__shared_ptr_pointerIPN7CoTrain6ThreadENS_10shared_ptrIS2_E27__shared_ptr_default_deleteIS2_S2_EENS_9allocatorIS2_EEED0Ev, symObjAddr: 0x16334, symBinAddr: 0x100017174, symSize: 0x30 }
  - { offsetInCU: 0x35819, offset: 0x35819, size: 0x8, addend: 0x0, symName: __ZNSt3__120__shared_ptr_pointerIPN7CoTrain6ThreadENS_10shared_ptrIS2_E27__shared_ptr_default_deleteIS2_S2_EENS_9allocatorIS2_EEE16__on_zero_sharedEv, symObjAddr: 0x16364, symBinAddr: 0x1000171A4, symSize: 0x64 }
  - { offsetInCU: 0x35840, offset: 0x35840, size: 0x8, addend: 0x0, symName: __ZNKSt3__120__shared_ptr_pointerIPN7CoTrain6ThreadENS_10shared_ptrIS2_E27__shared_ptr_default_deleteIS2_S2_EENS_9allocatorIS2_EEE13__get_deleterERKSt9type_info, symObjAddr: 0x163C8, symBinAddr: 0x100017208, symSize: 0x68 }
  - { offsetInCU: 0x35876, offset: 0x35876, size: 0x8, addend: 0x0, symName: __ZNSt3__120__shared_ptr_pointerIPN7CoTrain6ThreadENS_10shared_ptrIS2_E27__shared_ptr_default_deleteIS2_S2_EENS_9allocatorIS2_EEE21__on_zero_shared_weakEv, symObjAddr: 0x16430, symBinAddr: 0x100017270, symSize: 0x60 }
  - { offsetInCU: 0x358B7, offset: 0x358B7, size: 0x8, addend: 0x0, symName: __ZNSt3__117__compressed_pairIPN7CoTrain6ThreadENS_10shared_ptrIS2_E27__shared_ptr_default_deleteIS2_S2_EEEC2B7v160006IRS3_S7_EEOT_OT0_, symObjAddr: 0x16490, symBinAddr: 0x1000172D0, symSize: 0x44 }
  - { offsetInCU: 0x35911, offset: 0x35911, size: 0x8, addend: 0x0, symName: __ZNSt3__122__compressed_pair_elemINS_10shared_ptrIN7CoTrain6ThreadEE27__shared_ptr_default_deleteIS3_S3_EELi1ELb1EEC2B7v160006IS6_vEEOT_, symObjAddr: 0x164D4, symBinAddr: 0x100017314, symSize: 0x18 }
  - { offsetInCU: 0x35954, offset: 0x35954, size: 0x8, addend: 0x0, symName: __ZNSt3__117__compressed_pairINS0_IPN7CoTrain6ThreadENS_10shared_ptrIS2_E27__shared_ptr_default_deleteIS2_S2_EEEENS_9allocatorIS2_EEEC2B7v160006IS8_SA_EEOT_OT0_, symObjAddr: 0x164EC, symBinAddr: 0x10001732C, symSize: 0x44 }
  - { offsetInCU: 0x359AE, offset: 0x359AE, size: 0x8, addend: 0x0, symName: __ZNSt3__122__compressed_pair_elemINS_17__compressed_pairIPN7CoTrain6ThreadENS_10shared_ptrIS3_E27__shared_ptr_default_deleteIS3_S3_EEEELi0ELb0EEC2B7v160006IS9_vEEOT_, symObjAddr: 0x16530, symBinAddr: 0x100017370, symSize: 0x24 }
  - { offsetInCU: 0x359F1, offset: 0x359F1, size: 0x8, addend: 0x0, symName: __ZNSt3__122__compressed_pair_elemINS_9allocatorIN7CoTrain6ThreadEEELi1ELb1EEC2B7v160006IS4_vEEOT_, symObjAddr: 0x16554, symBinAddr: 0x100017394, symSize: 0x18 }
  - { offsetInCU: 0x35A34, offset: 0x35A34, size: 0x8, addend: 0x0, symName: __ZNSt3__120__shared_ptr_pointerIPN7CoTrain6ThreadENS_10shared_ptrIS2_E27__shared_ptr_default_deleteIS2_S2_EENS_9allocatorIS2_EEED2Ev, symObjAddr: 0x1656C, symBinAddr: 0x1000173AC, symSize: 0x2C }
  - { offsetInCU: 0x35A60, offset: 0x35A60, size: 0x8, addend: 0x0, symName: __ZNSt3__117__compressed_pairINS0_IPN7CoTrain6ThreadENS_10shared_ptrIS2_E27__shared_ptr_default_deleteIS2_S2_EEEENS_9allocatorIS2_EEE5firstB7v160006Ev, symObjAddr: 0x16598, symBinAddr: 0x1000173D8, symSize: 0x24 }
  - { offsetInCU: 0x35A86, offset: 0x35A86, size: 0x8, addend: 0x0, symName: __ZNSt3__117__compressed_pairIPN7CoTrain6ThreadENS_10shared_ptrIS2_E27__shared_ptr_default_deleteIS2_S2_EEE6secondB7v160006Ev, symObjAddr: 0x165BC, symBinAddr: 0x1000173FC, symSize: 0x24 }
  - { offsetInCU: 0x35AAC, offset: 0x35AAC, size: 0x8, addend: 0x0, symName: __ZNKSt3__114default_deleteIN7CoTrain6ThreadEEclB7v160006EPS2_, symObjAddr: 0x165E0, symBinAddr: 0x100017420, symSize: 0x4C }
  - { offsetInCU: 0x35AE1, offset: 0x35AE1, size: 0x8, addend: 0x0, symName: __ZNSt3__117__compressed_pairIPN7CoTrain6ThreadENS_10shared_ptrIS2_E27__shared_ptr_default_deleteIS2_S2_EEE5firstB7v160006Ev, symObjAddr: 0x1662C, symBinAddr: 0x10001746C, symSize: 0x24 }
  - { offsetInCU: 0x35B07, offset: 0x35B07, size: 0x8, addend: 0x0, symName: __ZNSt3__122__compressed_pair_elemINS_17__compressed_pairIPN7CoTrain6ThreadENS_10shared_ptrIS3_E27__shared_ptr_default_deleteIS3_S3_EEEELi0ELb0EE5__getB7v160006Ev, symObjAddr: 0x16650, symBinAddr: 0x100017490, symSize: 0x14 }
  - { offsetInCU: 0x35B2D, offset: 0x35B2D, size: 0x8, addend: 0x0, symName: __ZNSt3__122__compressed_pair_elemINS_10shared_ptrIN7CoTrain6ThreadEE27__shared_ptr_default_deleteIS3_S3_EELi1ELb1EE5__getB7v160006Ev, symObjAddr: 0x16664, symBinAddr: 0x1000174A4, symSize: 0x14 }
  - { offsetInCU: 0x35B53, offset: 0x35B53, size: 0x8, addend: 0x0, symName: __ZN7CoTrain6ThreadD1Ev, symObjAddr: 0x16678, symBinAddr: 0x1000174B8, symSize: 0x2C }
  - { offsetInCU: 0x35B7F, offset: 0x35B7F, size: 0x8, addend: 0x0, symName: __ZN7CoTrain6ThreadD2Ev, symObjAddr: 0x166A4, symBinAddr: 0x1000174E4, symSize: 0x38 }
  - { offsetInCU: 0x35BAB, offset: 0x35BAB, size: 0x8, addend: 0x0, symName: __ZNSt3__122__compressed_pair_elemIPN7CoTrain6ThreadELi0ELb0EE5__getB7v160006Ev, symObjAddr: 0x166DC, symBinAddr: 0x10001751C, symSize: 0x14 }
  - { offsetInCU: 0x35BD1, offset: 0x35BD1, size: 0x8, addend: 0x0, symName: __ZNKSt3__117__compressed_pairINS0_IPN7CoTrain6ThreadENS_10shared_ptrIS2_E27__shared_ptr_default_deleteIS2_S2_EEEENS_9allocatorIS2_EEE5firstB7v160006Ev, symObjAddr: 0x166F0, symBinAddr: 0x100017530, symSize: 0x24 }
  - { offsetInCU: 0x35BF7, offset: 0x35BF7, size: 0x8, addend: 0x0, symName: __ZNKSt3__117__compressed_pairIPN7CoTrain6ThreadENS_10shared_ptrIS2_E27__shared_ptr_default_deleteIS2_S2_EEE6secondB7v160006Ev, symObjAddr: 0x16714, symBinAddr: 0x100017554, symSize: 0x24 }
  - { offsetInCU: 0x35C1D, offset: 0x35C1D, size: 0x8, addend: 0x0, symName: __ZNKSt3__122__compressed_pair_elemINS_17__compressed_pairIPN7CoTrain6ThreadENS_10shared_ptrIS3_E27__shared_ptr_default_deleteIS3_S3_EEEELi0ELb0EE5__getB7v160006Ev, symObjAddr: 0x16738, symBinAddr: 0x100017578, symSize: 0x14 }
  - { offsetInCU: 0x35C43, offset: 0x35C43, size: 0x8, addend: 0x0, symName: __ZNKSt3__122__compressed_pair_elemINS_10shared_ptrIN7CoTrain6ThreadEE27__shared_ptr_default_deleteIS3_S3_EELi1ELb1EE5__getB7v160006Ev, symObjAddr: 0x1674C, symBinAddr: 0x10001758C, symSize: 0x14 }
  - { offsetInCU: 0x35C69, offset: 0x35C69, size: 0x8, addend: 0x0, symName: __ZNSt3__117__compressed_pairINS0_IPN7CoTrain6ThreadENS_10shared_ptrIS2_E27__shared_ptr_default_deleteIS2_S2_EEEENS_9allocatorIS2_EEE6secondB7v160006Ev, symObjAddr: 0x16760, symBinAddr: 0x1000175A0, symSize: 0x24 }
  - { offsetInCU: 0x35CBE, offset: 0x35CBE, size: 0x8, addend: 0x0, symName: __ZNSt3__19allocatorINS_20__shared_ptr_pointerIPN7CoTrain6ThreadENS_10shared_ptrIS3_E27__shared_ptr_default_deleteIS3_S3_EENS0_IS3_EEEEEC1B7v160006IS3_EERKNS0_IT_EE, symObjAddr: 0x16784, symBinAddr: 0x1000175C4, symSize: 0x34 }
  - { offsetInCU: 0x35CFB, offset: 0x35CFB, size: 0x8, addend: 0x0, symName: __ZNSt3__19allocatorINS_20__shared_ptr_pointerIPN7CoTrain6ThreadENS_10shared_ptrIS3_E27__shared_ptr_default_deleteIS3_S3_EENS0_IS3_EEEEE10deallocateB7v160006EPSA_m, symObjAddr: 0x167B8, symBinAddr: 0x1000175F8, symSize: 0x40 }
  - { offsetInCU: 0x35D3F, offset: 0x35D3F, size: 0x8, addend: 0x0, symName: __ZNSt3__114pointer_traitsIPNS_20__shared_ptr_pointerIPN7CoTrain6ThreadENS_10shared_ptrIS3_E27__shared_ptr_default_deleteIS3_S3_EENS_9allocatorIS3_EEEEE10pointer_toB7v160006ERSB_, symObjAddr: 0x167F8, symBinAddr: 0x100017638, symSize: 0x14 }
  - { offsetInCU: 0x35D63, offset: 0x35D63, size: 0x8, addend: 0x0, symName: __ZNSt3__122__compressed_pair_elemINS_9allocatorIN7CoTrain6ThreadEEELi1ELb1EE5__getB7v160006Ev, symObjAddr: 0x1680C, symBinAddr: 0x10001764C, symSize: 0x14 }
  - { offsetInCU: 0x35D89, offset: 0x35D89, size: 0x8, addend: 0x0, symName: __ZNSt3__19allocatorINS_20__shared_ptr_pointerIPN7CoTrain6ThreadENS_10shared_ptrIS3_E27__shared_ptr_default_deleteIS3_S3_EENS0_IS3_EEEEEC2B7v160006IS3_EERKNS0_IT_EE, symObjAddr: 0x16820, symBinAddr: 0x100017660, symSize: 0x30 }
  - { offsetInCU: 0x35DC6, offset: 0x35DC6, size: 0x8, addend: 0x0, symName: __ZNSt3__116__non_trivial_ifILb1ENS_9allocatorINS_20__shared_ptr_pointerIPN7CoTrain6ThreadENS_10shared_ptrIS4_E27__shared_ptr_default_deleteIS4_S4_EENS1_IS4_EEEEEEEC2B7v160006Ev, symObjAddr: 0x16850, symBinAddr: 0x100017690, symSize: 0x14 }
  - { offsetInCU: 0x35DF0, offset: 0x35DF0, size: 0x8, addend: 0x0, symName: __ZNSt3__117__compressed_pairIPN7CoTrain6ThreadENS_14default_deleteIS2_EEE5firstB7v160006Ev, symObjAddr: 0x16864, symBinAddr: 0x1000176A4, symSize: 0x24 }
  - { offsetInCU: 0x35E16, offset: 0x35E16, size: 0x8, addend: 0x0, symName: __ZNSt3__110unique_ptrIN7CoTrain6ThreadENS_14default_deleteIS2_EEED2B7v160006Ev, symObjAddr: 0x16888, symBinAddr: 0x1000176C8, symSize: 0x30 }
  - { offsetInCU: 0x35E40, offset: 0x35E40, size: 0x8, addend: 0x0, symName: __ZNSt3__110unique_ptrIN7CoTrain6ThreadENS_14default_deleteIS2_EEE5resetB7v160006EPS2_, symObjAddr: 0x168B8, symBinAddr: 0x1000176F8, symSize: 0x78 }
  - { offsetInCU: 0x35E84, offset: 0x35E84, size: 0x8, addend: 0x0, symName: __ZNSt3__117__compressed_pairIPN7CoTrain6ThreadENS_14default_deleteIS2_EEE6secondB7v160006Ev, symObjAddr: 0x16930, symBinAddr: 0x100017770, symSize: 0x24 }
  - { offsetInCU: 0x35EAA, offset: 0x35EAA, size: 0x8, addend: 0x0, symName: __ZNSt3__122__compressed_pair_elemINS_14default_deleteIN7CoTrain6ThreadEEELi1ELb1EE5__getB7v160006Ev, symObjAddr: 0x16954, symBinAddr: 0x100017794, symSize: 0x14 }
  - { offsetInCU: 0x35ED0, offset: 0x35ED0, size: 0x8, addend: 0x0, symName: __ZNSt3__110shared_ptrIN7CoTrain6ThreadEEC1B7v160006EOS3_, symObjAddr: 0x16968, symBinAddr: 0x1000177A8, symSize: 0x34 }
  - { offsetInCU: 0x35F09, offset: 0x35F09, size: 0x8, addend: 0x0, symName: __ZNSt3__110shared_ptrIN7CoTrain6ThreadEE4swapB7v160006ERS3_, symObjAddr: 0x1699C, symBinAddr: 0x1000177DC, symSize: 0x44 }
  - { offsetInCU: 0x35F3E, offset: 0x35F3E, size: 0x8, addend: 0x0, symName: __ZNSt3__110shared_ptrIN7CoTrain6ThreadEEC2B7v160006EOS3_, symObjAddr: 0x169E0, symBinAddr: 0x100017820, symSize: 0x40 }
  - { offsetInCU: 0x35F77, offset: 0x35F77, size: 0x8, addend: 0x0, symName: __ZNSt3__110shared_ptrIN7CoTrain8LogEventEEC2IS2_vEEPT_, symObjAddr: 0x16A5C, symBinAddr: 0x10001789C, symSize: 0xEC }
  - { offsetInCU: 0x36076, offset: 0x36076, size: 0x8, addend: 0x0, symName: __ZNSt3__110unique_ptrIN7CoTrain8LogEventENS_14default_deleteIS2_EEEC1B7v160006ILb1EvEEPS2_, symObjAddr: 0x16B48, symBinAddr: 0x100017988, symSize: 0x34 }
  - { offsetInCU: 0x360E2, offset: 0x360E2, size: 0x8, addend: 0x0, symName: __ZNSt3__19allocatorIN7CoTrain8LogEventEEC1B7v160006Ev, symObjAddr: 0x16B7C, symBinAddr: 0x1000179BC, symSize: 0x2C }
  - { offsetInCU: 0x361BF, offset: 0x361BF, size: 0x8, addend: 0x0, symName: __ZNSt3__120__shared_ptr_pointerIPN7CoTrain8LogEventENS_10shared_ptrIS2_E27__shared_ptr_default_deleteIS2_S2_EENS_9allocatorIS2_EEEC1B7v160006ES3_S7_S9_, symObjAddr: 0x16BA8, symBinAddr: 0x1000179E8, symSize: 0x34 }
  - { offsetInCU: 0x36216, offset: 0x36216, size: 0x8, addend: 0x0, symName: __ZNSt3__110unique_ptrIN7CoTrain8LogEventENS_14default_deleteIS2_EEE7releaseB7v160006Ev, symObjAddr: 0x16BDC, symBinAddr: 0x100017A1C, symSize: 0x44 }
  - { offsetInCU: 0x3624B, offset: 0x3624B, size: 0x8, addend: 0x0, symName: __ZNSt3__110shared_ptrIN7CoTrain8LogEventEE18__enable_weak_thisB7v160006Ez, symObjAddr: 0x16C20, symBinAddr: 0x100017A60, symSize: 0x10 }
  - { offsetInCU: 0x36272, offset: 0x36272, size: 0x8, addend: 0x0, symName: __ZNSt3__110unique_ptrIN7CoTrain8LogEventENS_14default_deleteIS2_EEED1B7v160006Ev, symObjAddr: 0x16C30, symBinAddr: 0x100017A70, symSize: 0x2C }
  - { offsetInCU: 0x3629C, offset: 0x3629C, size: 0x8, addend: 0x0, symName: __ZNSt3__110unique_ptrIN7CoTrain8LogEventENS_14default_deleteIS2_EEEC2B7v160006ILb1EvEEPS2_, symObjAddr: 0x16C5C, symBinAddr: 0x100017A9C, symSize: 0x44 }
  - { offsetInCU: 0x362E0, offset: 0x362E0, size: 0x8, addend: 0x0, symName: __ZNSt3__117__compressed_pairIPN7CoTrain8LogEventENS_14default_deleteIS2_EEEC1B7v160006IRS3_NS_16__value_init_tagEEEOT_OT0_, symObjAddr: 0x16CA0, symBinAddr: 0x100017AE0, symSize: 0x3C }
  - { offsetInCU: 0x3633A, offset: 0x3633A, size: 0x8, addend: 0x0, symName: __ZNSt3__117__compressed_pairIPN7CoTrain8LogEventENS_14default_deleteIS2_EEEC2B7v160006IRS3_NS_16__value_init_tagEEEOT_OT0_, symObjAddr: 0x16CDC, symBinAddr: 0x100017B1C, symSize: 0x40 }
  - { offsetInCU: 0x36394, offset: 0x36394, size: 0x8, addend: 0x0, symName: __ZNSt3__122__compressed_pair_elemIPN7CoTrain8LogEventELi0ELb0EEC2B7v160006IRS3_vEEOT_, symObjAddr: 0x16D1C, symBinAddr: 0x100017B5C, symSize: 0x24 }
  - { offsetInCU: 0x363D7, offset: 0x363D7, size: 0x8, addend: 0x0, symName: __ZNSt3__122__compressed_pair_elemINS_14default_deleteIN7CoTrain8LogEventEEELi1ELb1EEC2B7v160006ENS_16__value_init_tagE, symObjAddr: 0x16D40, symBinAddr: 0x100017B80, symSize: 0x14 }
  - { offsetInCU: 0x3640B, offset: 0x3640B, size: 0x8, addend: 0x0, symName: __ZNSt3__19allocatorIN7CoTrain8LogEventEEC2B7v160006Ev, symObjAddr: 0x16D54, symBinAddr: 0x100017B94, symSize: 0x2C }
  - { offsetInCU: 0x36435, offset: 0x36435, size: 0x8, addend: 0x0, symName: __ZNSt3__116__non_trivial_ifILb1ENS_9allocatorIN7CoTrain8LogEventEEEEC2B7v160006Ev, symObjAddr: 0x16D80, symBinAddr: 0x100017BC0, symSize: 0x14 }
  - { offsetInCU: 0x3645F, offset: 0x3645F, size: 0x8, addend: 0x0, symName: __ZNSt3__120__shared_ptr_pointerIPN7CoTrain8LogEventENS_10shared_ptrIS2_E27__shared_ptr_default_deleteIS2_S2_EENS_9allocatorIS2_EEEC2B7v160006ES3_S7_S9_, symObjAddr: 0x16D94, symBinAddr: 0x100017BD4, symSize: 0xA8 }
  - { offsetInCU: 0x364BC, offset: 0x364BC, size: 0x8, addend: 0x0, symName: __ZNSt3__117__compressed_pairIPN7CoTrain8LogEventENS_10shared_ptrIS2_E27__shared_ptr_default_deleteIS2_S2_EEEC1B7v160006IRS3_S7_EEOT_OT0_, symObjAddr: 0x16E3C, symBinAddr: 0x100017C7C, symSize: 0x3C }
  - { offsetInCU: 0x36522, offset: 0x36522, size: 0x8, addend: 0x0, symName: __ZNSt3__117__compressed_pairINS0_IPN7CoTrain8LogEventENS_10shared_ptrIS2_E27__shared_ptr_default_deleteIS2_S2_EEEENS_9allocatorIS2_EEEC1B7v160006IS8_SA_EEOT_OT0_, symObjAddr: 0x16E78, symBinAddr: 0x100017CB8, symSize: 0x3C }
  - { offsetInCU: 0x3657C, offset: 0x3657C, size: 0x8, addend: 0x0, symName: __ZNSt3__120__shared_ptr_pointerIPN7CoTrain8LogEventENS_10shared_ptrIS2_E27__shared_ptr_default_deleteIS2_S2_EENS_9allocatorIS2_EEED1Ev, symObjAddr: 0x16EB4, symBinAddr: 0x100017CF4, symSize: 0x2C }
  - { offsetInCU: 0x365A8, offset: 0x365A8, size: 0x8, addend: 0x0, symName: __ZNSt3__120__shared_ptr_pointerIPN7CoTrain8LogEventENS_10shared_ptrIS2_E27__shared_ptr_default_deleteIS2_S2_EENS_9allocatorIS2_EEED0Ev, symObjAddr: 0x16EE0, symBinAddr: 0x100017D20, symSize: 0x30 }
  - { offsetInCU: 0x365D4, offset: 0x365D4, size: 0x8, addend: 0x0, symName: __ZNSt3__120__shared_ptr_pointerIPN7CoTrain8LogEventENS_10shared_ptrIS2_E27__shared_ptr_default_deleteIS2_S2_EENS_9allocatorIS2_EEE16__on_zero_sharedEv, symObjAddr: 0x16F10, symBinAddr: 0x100017D50, symSize: 0x64 }
  - { offsetInCU: 0x365FB, offset: 0x365FB, size: 0x8, addend: 0x0, symName: __ZNKSt3__120__shared_ptr_pointerIPN7CoTrain8LogEventENS_10shared_ptrIS2_E27__shared_ptr_default_deleteIS2_S2_EENS_9allocatorIS2_EEE13__get_deleterERKSt9type_info, symObjAddr: 0x16F74, symBinAddr: 0x100017DB4, symSize: 0x68 }
  - { offsetInCU: 0x36631, offset: 0x36631, size: 0x8, addend: 0x0, symName: __ZNSt3__120__shared_ptr_pointerIPN7CoTrain8LogEventENS_10shared_ptrIS2_E27__shared_ptr_default_deleteIS2_S2_EENS_9allocatorIS2_EEE21__on_zero_shared_weakEv, symObjAddr: 0x16FDC, symBinAddr: 0x100017E1C, symSize: 0x60 }
  - { offsetInCU: 0x36672, offset: 0x36672, size: 0x8, addend: 0x0, symName: __ZNSt3__117__compressed_pairIPN7CoTrain8LogEventENS_10shared_ptrIS2_E27__shared_ptr_default_deleteIS2_S2_EEEC2B7v160006IRS3_S7_EEOT_OT0_, symObjAddr: 0x1703C, symBinAddr: 0x100017E7C, symSize: 0x44 }
  - { offsetInCU: 0x366CC, offset: 0x366CC, size: 0x8, addend: 0x0, symName: __ZNSt3__122__compressed_pair_elemINS_10shared_ptrIN7CoTrain8LogEventEE27__shared_ptr_default_deleteIS3_S3_EELi1ELb1EEC2B7v160006IS6_vEEOT_, symObjAddr: 0x17080, symBinAddr: 0x100017EC0, symSize: 0x18 }
  - { offsetInCU: 0x3670F, offset: 0x3670F, size: 0x8, addend: 0x0, symName: __ZNSt3__117__compressed_pairINS0_IPN7CoTrain8LogEventENS_10shared_ptrIS2_E27__shared_ptr_default_deleteIS2_S2_EEEENS_9allocatorIS2_EEEC2B7v160006IS8_SA_EEOT_OT0_, symObjAddr: 0x17098, symBinAddr: 0x100017ED8, symSize: 0x44 }
  - { offsetInCU: 0x36769, offset: 0x36769, size: 0x8, addend: 0x0, symName: __ZNSt3__122__compressed_pair_elemINS_17__compressed_pairIPN7CoTrain8LogEventENS_10shared_ptrIS3_E27__shared_ptr_default_deleteIS3_S3_EEEELi0ELb0EEC2B7v160006IS9_vEEOT_, symObjAddr: 0x170DC, symBinAddr: 0x100017F1C, symSize: 0x24 }
  - { offsetInCU: 0x367AC, offset: 0x367AC, size: 0x8, addend: 0x0, symName: __ZNSt3__122__compressed_pair_elemINS_9allocatorIN7CoTrain8LogEventEEELi1ELb1EEC2B7v160006IS4_vEEOT_, symObjAddr: 0x17100, symBinAddr: 0x100017F40, symSize: 0x18 }
  - { offsetInCU: 0x367EF, offset: 0x367EF, size: 0x8, addend: 0x0, symName: __ZNSt3__120__shared_ptr_pointerIPN7CoTrain8LogEventENS_10shared_ptrIS2_E27__shared_ptr_default_deleteIS2_S2_EENS_9allocatorIS2_EEED2Ev, symObjAddr: 0x17118, symBinAddr: 0x100017F58, symSize: 0x2C }
  - { offsetInCU: 0x3681B, offset: 0x3681B, size: 0x8, addend: 0x0, symName: __ZNSt3__117__compressed_pairINS0_IPN7CoTrain8LogEventENS_10shared_ptrIS2_E27__shared_ptr_default_deleteIS2_S2_EEEENS_9allocatorIS2_EEE5firstB7v160006Ev, symObjAddr: 0x17144, symBinAddr: 0x100017F84, symSize: 0x24 }
  - { offsetInCU: 0x36841, offset: 0x36841, size: 0x8, addend: 0x0, symName: __ZNSt3__117__compressed_pairIPN7CoTrain8LogEventENS_10shared_ptrIS2_E27__shared_ptr_default_deleteIS2_S2_EEE6secondB7v160006Ev, symObjAddr: 0x17168, symBinAddr: 0x100017FA8, symSize: 0x24 }
  - { offsetInCU: 0x36867, offset: 0x36867, size: 0x8, addend: 0x0, symName: __ZNKSt3__114default_deleteIN7CoTrain8LogEventEEclB7v160006EPS2_, symObjAddr: 0x1718C, symBinAddr: 0x100017FCC, symSize: 0x4C }
  - { offsetInCU: 0x3689C, offset: 0x3689C, size: 0x8, addend: 0x0, symName: __ZNSt3__117__compressed_pairIPN7CoTrain8LogEventENS_10shared_ptrIS2_E27__shared_ptr_default_deleteIS2_S2_EEE5firstB7v160006Ev, symObjAddr: 0x171D8, symBinAddr: 0x100018018, symSize: 0x24 }
  - { offsetInCU: 0x368C2, offset: 0x368C2, size: 0x8, addend: 0x0, symName: __ZNSt3__122__compressed_pair_elemINS_17__compressed_pairIPN7CoTrain8LogEventENS_10shared_ptrIS3_E27__shared_ptr_default_deleteIS3_S3_EEEELi0ELb0EE5__getB7v160006Ev, symObjAddr: 0x171FC, symBinAddr: 0x10001803C, symSize: 0x14 }
  - { offsetInCU: 0x368E8, offset: 0x368E8, size: 0x8, addend: 0x0, symName: __ZNSt3__122__compressed_pair_elemINS_10shared_ptrIN7CoTrain8LogEventEE27__shared_ptr_default_deleteIS3_S3_EELi1ELb1EE5__getB7v160006Ev, symObjAddr: 0x17210, symBinAddr: 0x100018050, symSize: 0x14 }
  - { offsetInCU: 0x3690E, offset: 0x3690E, size: 0x8, addend: 0x0, symName: __ZN7CoTrain8LogEventD1Ev, symObjAddr: 0x17224, symBinAddr: 0x100018064, symSize: 0x2C }
  - { offsetInCU: 0x3693A, offset: 0x3693A, size: 0x8, addend: 0x0, symName: __ZN7CoTrain8LogEventD2Ev, symObjAddr: 0x17250, symBinAddr: 0x100018090, symSize: 0x3C }
  - { offsetInCU: 0x36966, offset: 0x36966, size: 0x8, addend: 0x0, symName: __ZNSt3__122__compressed_pair_elemIPN7CoTrain8LogEventELi0ELb0EE5__getB7v160006Ev, symObjAddr: 0x1728C, symBinAddr: 0x1000180CC, symSize: 0x14 }
  - { offsetInCU: 0x3698C, offset: 0x3698C, size: 0x8, addend: 0x0, symName: __ZNKSt3__117__compressed_pairINS0_IPN7CoTrain8LogEventENS_10shared_ptrIS2_E27__shared_ptr_default_deleteIS2_S2_EEEENS_9allocatorIS2_EEE5firstB7v160006Ev, symObjAddr: 0x172A0, symBinAddr: 0x1000180E0, symSize: 0x24 }
  - { offsetInCU: 0x369B2, offset: 0x369B2, size: 0x8, addend: 0x0, symName: __ZNKSt3__117__compressed_pairIPN7CoTrain8LogEventENS_10shared_ptrIS2_E27__shared_ptr_default_deleteIS2_S2_EEE6secondB7v160006Ev, symObjAddr: 0x172C4, symBinAddr: 0x100018104, symSize: 0x24 }
  - { offsetInCU: 0x369D8, offset: 0x369D8, size: 0x8, addend: 0x0, symName: __ZNKSt3__122__compressed_pair_elemINS_17__compressed_pairIPN7CoTrain8LogEventENS_10shared_ptrIS3_E27__shared_ptr_default_deleteIS3_S3_EEEELi0ELb0EE5__getB7v160006Ev, symObjAddr: 0x172E8, symBinAddr: 0x100018128, symSize: 0x14 }
  - { offsetInCU: 0x369FE, offset: 0x369FE, size: 0x8, addend: 0x0, symName: __ZNKSt3__122__compressed_pair_elemINS_10shared_ptrIN7CoTrain8LogEventEE27__shared_ptr_default_deleteIS3_S3_EELi1ELb1EE5__getB7v160006Ev, symObjAddr: 0x172FC, symBinAddr: 0x10001813C, symSize: 0x14 }
  - { offsetInCU: 0x36A24, offset: 0x36A24, size: 0x8, addend: 0x0, symName: __ZNSt3__117__compressed_pairINS0_IPN7CoTrain8LogEventENS_10shared_ptrIS2_E27__shared_ptr_default_deleteIS2_S2_EEEENS_9allocatorIS2_EEE6secondB7v160006Ev, symObjAddr: 0x17310, symBinAddr: 0x100018150, symSize: 0x24 }
  - { offsetInCU: 0x36A79, offset: 0x36A79, size: 0x8, addend: 0x0, symName: __ZNSt3__19allocatorINS_20__shared_ptr_pointerIPN7CoTrain8LogEventENS_10shared_ptrIS3_E27__shared_ptr_default_deleteIS3_S3_EENS0_IS3_EEEEEC1B7v160006IS3_EERKNS0_IT_EE, symObjAddr: 0x17334, symBinAddr: 0x100018174, symSize: 0x34 }
  - { offsetInCU: 0x36AB6, offset: 0x36AB6, size: 0x8, addend: 0x0, symName: __ZNSt3__19allocatorINS_20__shared_ptr_pointerIPN7CoTrain8LogEventENS_10shared_ptrIS3_E27__shared_ptr_default_deleteIS3_S3_EENS0_IS3_EEEEE10deallocateB7v160006EPSA_m, symObjAddr: 0x17368, symBinAddr: 0x1000181A8, symSize: 0x40 }
  - { offsetInCU: 0x36AFA, offset: 0x36AFA, size: 0x8, addend: 0x0, symName: __ZNSt3__114pointer_traitsIPNS_20__shared_ptr_pointerIPN7CoTrain8LogEventENS_10shared_ptrIS3_E27__shared_ptr_default_deleteIS3_S3_EENS_9allocatorIS3_EEEEE10pointer_toB7v160006ERSB_, symObjAddr: 0x173A8, symBinAddr: 0x1000181E8, symSize: 0x14 }
  - { offsetInCU: 0x36B1E, offset: 0x36B1E, size: 0x8, addend: 0x0, symName: __ZNSt3__122__compressed_pair_elemINS_9allocatorIN7CoTrain8LogEventEEELi1ELb1EE5__getB7v160006Ev, symObjAddr: 0x173BC, symBinAddr: 0x1000181FC, symSize: 0x14 }
  - { offsetInCU: 0x36B44, offset: 0x36B44, size: 0x8, addend: 0x0, symName: __ZNSt3__19allocatorINS_20__shared_ptr_pointerIPN7CoTrain8LogEventENS_10shared_ptrIS3_E27__shared_ptr_default_deleteIS3_S3_EENS0_IS3_EEEEEC2B7v160006IS3_EERKNS0_IT_EE, symObjAddr: 0x173D0, symBinAddr: 0x100018210, symSize: 0x30 }
  - { offsetInCU: 0x36B81, offset: 0x36B81, size: 0x8, addend: 0x0, symName: __ZNSt3__116__non_trivial_ifILb1ENS_9allocatorINS_20__shared_ptr_pointerIPN7CoTrain8LogEventENS_10shared_ptrIS4_E27__shared_ptr_default_deleteIS4_S4_EENS1_IS4_EEEEEEEC2B7v160006Ev, symObjAddr: 0x17400, symBinAddr: 0x100018240, symSize: 0x14 }
  - { offsetInCU: 0x36BAB, offset: 0x36BAB, size: 0x8, addend: 0x0, symName: __ZNSt3__117__compressed_pairIPN7CoTrain8LogEventENS_14default_deleteIS2_EEE5firstB7v160006Ev, symObjAddr: 0x17414, symBinAddr: 0x100018254, symSize: 0x24 }
  - { offsetInCU: 0x36BD1, offset: 0x36BD1, size: 0x8, addend: 0x0, symName: __ZNSt3__110unique_ptrIN7CoTrain8LogEventENS_14default_deleteIS2_EEED2B7v160006Ev, symObjAddr: 0x17438, symBinAddr: 0x100018278, symSize: 0x30 }
  - { offsetInCU: 0x36BFB, offset: 0x36BFB, size: 0x8, addend: 0x0, symName: __ZNSt3__110unique_ptrIN7CoTrain8LogEventENS_14default_deleteIS2_EEE5resetB7v160006EPS2_, symObjAddr: 0x17468, symBinAddr: 0x1000182A8, symSize: 0x78 }
  - { offsetInCU: 0x36C3F, offset: 0x36C3F, size: 0x8, addend: 0x0, symName: __ZNSt3__117__compressed_pairIPN7CoTrain8LogEventENS_14default_deleteIS2_EEE6secondB7v160006Ev, symObjAddr: 0x174E0, symBinAddr: 0x100018320, symSize: 0x24 }
  - { offsetInCU: 0x36C65, offset: 0x36C65, size: 0x8, addend: 0x0, symName: __ZNSt3__122__compressed_pair_elemINS_14default_deleteIN7CoTrain8LogEventEEELi1ELb1EE5__getB7v160006Ev, symObjAddr: 0x17504, symBinAddr: 0x100018344, symSize: 0x14 }
  - { offsetInCU: 0x1571, offset: 0x38980, size: 0x8, addend: 0x0, symName: '__ZNSt3__110__function10__not_nullB7v160006INS_6__bindIZ4mainE3$_0JEEEEEbRKT_', symObjAddr: 0x4C24, symBinAddr: 0x10001C704, symSize: 0x18 }
  - { offsetInCU: 0x15A2, offset: 0x389B1, size: 0x8, addend: 0x0, symName: '__ZNSt3__110__function10__not_nullB7v160006INS_6__bindIZ4mainE3$_1JEEEEEbRKT_', symObjAddr: 0x8468, symBinAddr: 0x10001EE1C, symSize: 0x18 }
  - { offsetInCU: 0x50B2, offset: 0x3C4C1, size: 0x8, addend: 0x0, symName: __ZNSt3__1L19piecewise_constructE, symObjAddr: 0xA969, symBinAddr: 0x10002A1E5, symSize: 0x0 }
  - { offsetInCU: 0x7D96, offset: 0x3F1A5, size: 0x8, addend: 0x0, symName: __ZNSt3__16chronogtB7v160006IxNS_5ratioILl1ELl1EEExS3_EEbRKNS0_8durationIT_T0_EERKNS4_IT1_T2_EE, symObjAddr: 0x6C10, symBinAddr: 0x10001E3F8, symSize: 0x30 }
  - { offsetInCU: 0x7DF7, offset: 0x3F206, size: 0x8, addend: 0x0, symName: __ZNSt3__16chronoltB7v160006IxNS_5ratioILl1ELl1EEEeS3_EEbRKNS0_8durationIT_T0_EERKNS4_IT1_T2_EE, symObjAddr: 0x6C7C, symBinAddr: 0x10001E464, symSize: 0x34 }
  - { offsetInCU: 0x7E58, offset: 0x3F267, size: 0x8, addend: 0x0, symName: __ZNSt3__16chrono13duration_castB7v160006INS0_8durationIxNS_5ratioILl1ELl1000000000EEEEExNS3_ILl1ELl1EEEEENS_9enable_ifIXsr13__is_durationIT_EE5valueES8_E4typeERKNS2_IT0_T1_EE, symObjAddr: 0x6CB0, symBinAddr: 0x10001E498, symSize: 0x30 }
  - { offsetInCU: 0x7EA1, offset: 0x3F2B0, size: 0x8, addend: 0x0, symName: __ZNSt3__16chronoltB7v160006IxNS_5ratioILl1ELl1000000000EEExNS2_ILl1ELl1EEEEEbRKNS0_8durationIT_T0_EERKNS5_IT1_T2_EE, symObjAddr: 0x6CE0, symBinAddr: 0x10001E4C8, symSize: 0x34 }
  - { offsetInCU: 0x7F02, offset: 0x3F311, size: 0x8, addend: 0x0, symName: __ZNSt3__16chronoltB7v160006IxNS_5ratioILl1ELl1EEExS3_EEbRKNS0_8durationIT_T0_EERKNS4_IT1_T2_EE, symObjAddr: 0x6D70, symBinAddr: 0x10001E558, symSize: 0x34 }
  - { offsetInCU: 0x7FE0, offset: 0x3F3EF, size: 0x8, addend: 0x0, symName: __ZNSt3__16chrono13duration_castB7v160006INS0_8durationIeNS_5ratioILl1ELl1EEEEExS4_EENS_9enable_ifIXsr13__is_durationIT_EE5valueES7_E4typeERKNS2_IT0_T1_EE, symObjAddr: 0x6F7C, symBinAddr: 0x10001E764, symSize: 0x30 }
  - { offsetInCU: 0x88F0, offset: 0x3FCFF, size: 0x8, addend: 0x0, symName: '__ZNSt3__14bindB7v160006IZ4mainE3$_0JEEENS_6__bindIT_JDpT0_EEEOS3_DpOS4_', symObjAddr: 0x4888, symBinAddr: 0x10001C368, symSize: 0x38 }
  - { offsetInCU: 0xA13B, offset: 0x4154A, size: 0x8, addend: 0x0, symName: '__ZNSt3__14bindB7v160006IZ4mainE3$_1JEEENS_6__bindIT_JDpT0_EEEOS3_DpOS4_', symObjAddr: 0x81E4, symBinAddr: 0x10001EB98, symSize: 0x2C }
  - { offsetInCU: 0xCC3C, offset: 0x4404B, size: 0x8, addend: 0x0, symName: __ZNSt3__14swapB7v160006IPN7CoTrain11LogMannagerEEENS_9enable_ifIXaasr21is_move_constructibleIT_EE5valuesr18is_move_assignableIS5_EE5valueEvE4typeERS5_S8_, symObjAddr: 0x1C60, symBinAddr: 0x100019C38, symSize: 0x3C }
  - { offsetInCU: 0xCC91, offset: 0x440A0, size: 0x8, addend: 0x0, symName: __ZNSt3__119__debug_db_insert_cB7v160006INS_6vectorIN7CoTrain4TaskENS_9allocatorIS3_EEEEEEvPT_, symObjAddr: 0x1EB8, symBinAddr: 0x100019E54, symSize: 0x10 }
  - { offsetInCU: 0xCCC4, offset: 0x440D3, size: 0x8, addend: 0x0, symName: __ZNSt3__119__debug_db_insert_cB7v160006INS_6vectorINS_10shared_ptrIN7CoTrain6ThreadEEENS_9allocatorIS5_EEEEEEvPT_, symObjAddr: 0x1FB8, symBinAddr: 0x100019F54, symSize: 0x10 }
  - { offsetInCU: 0xF628, offset: 0x46A37, size: 0x8, addend: 0x0, symName: '__ZNSt3__116forward_as_tupleB7v160006IJNS_6__bindIZ4mainE3$_0JEEEEEENS_5tupleIJDpOT_EEES7_', symObjAddr: 0x553C, symBinAddr: 0x10001CEE0, symSize: 0x2C }
  - { offsetInCU: 0xF661, offset: 0x46A70, size: 0x8, addend: 0x0, symName: '__ZNSt3__116forward_as_tupleB7v160006IJNS_9allocatorINS_6__bindIZ4mainE3$_0JEEEEEEEENS_5tupleIJDpOT_EEES9_', symObjAddr: 0x5568, symBinAddr: 0x10001CF0C, symSize: 0x2C }
  - { offsetInCU: 0xF6C4, offset: 0x46AD3, size: 0x8, addend: 0x0, symName: '__ZNSt3__13getB7v160006ILm0EJONS_6__bindIZ4mainE3$_0JEEEEEERNS_13tuple_elementIXT_ENS_5tupleIJDpT0_EEEE4typeERS9_', symObjAddr: 0x58D4, symBinAddr: 0x10001D278, symSize: 0x24 }
  - { offsetInCU: 0xF707, offset: 0x46B16, size: 0x8, addend: 0x0, symName: '__ZNSt3__13getB7v160006ILm0EJONS_9allocatorINS_6__bindIZ4mainE3$_0JEEEEEEEERNS_13tuple_elementIXT_ENS_5tupleIJDpT0_EEEE4typeERSB_', symObjAddr: 0x5978, symBinAddr: 0x10001D31C, symSize: 0x24 }
  - { offsetInCU: 0xF8D7, offset: 0x46CE6, size: 0x8, addend: 0x0, symName: '__ZNSt3__116forward_as_tupleB7v160006IJRKNS_6__bindIZ4mainE3$_0JEEEEEENS_5tupleIJDpOT_EEES9_', symObjAddr: 0x5E40, symBinAddr: 0x10001D7E4, symSize: 0x2C }
  - { offsetInCU: 0xF925, offset: 0x46D34, size: 0x8, addend: 0x0, symName: '__ZNSt3__13getB7v160006ILm0EJRKNS_6__bindIZ4mainE3$_0JEEEEEERNS_13tuple_elementIXT_ENS_5tupleIJDpT0_EEEE4typeERSA_', symObjAddr: 0x6030, symBinAddr: 0x10001D9D4, symSize: 0x24 }
  - { offsetInCU: 0xF968, offset: 0x46D77, size: 0x8, addend: 0x0, symName: '__ZNSt3__116forward_as_tupleB7v160006IJRKNS_9allocatorINS_6__bindIZ4mainE3$_0JEEEEEEEENS_5tupleIJDpOT_EEESB_', symObjAddr: 0x6474, symBinAddr: 0x10001DE18, symSize: 0x2C }
  - { offsetInCU: 0xF9B6, offset: 0x46DC5, size: 0x8, addend: 0x0, symName: '__ZNSt3__13getB7v160006ILm0EJRKNS_9allocatorINS_6__bindIZ4mainE3$_0JEEEEEEEERNS_13tuple_elementIXT_ENS_5tupleIJDpT0_EEEE4typeERSC_', symObjAddr: 0x6680, symBinAddr: 0x10001E024, symSize: 0x24 }
  - { offsetInCU: 0xFA49, offset: 0x46E58, size: 0x8, addend: 0x0, symName: '__ZNSt3__18__invokeB7v160006IRNS_6__bindIZ4mainE3$_0JEEEJEEEDTclclsr3stdE7declvalIT_EEspclsr3stdE7declvalIT0_EEEEOS5_DpOS6_', symObjAddr: 0x6750, symBinAddr: 0x10001E0F4, symSize: 0x24 }
  - { offsetInCU: 0xFABB, offset: 0x46ECA, size: 0x8, addend: 0x0, symName: '__ZNSt3__115__apply_functorB7v160006IZ4mainE3$_0NS_5tupleIJEEEJES3_EENS_13__bind_returnIT_T0_T2_Xsr22__is_valid_bind_returnIS5_S6_S7_EE5valueEE4typeERS5_RS6_NS_15__tuple_indicesIJXspT1_EEEEOS7_', symObjAddr: 0x67A4, symBinAddr: 0x10001E148, symSize: 0x2C }
  - { offsetInCU: 0xFB34, offset: 0x46F43, size: 0x8, addend: 0x0, symName: '__ZNSt3__18__invokeB7v160006IRZ4mainE3$_0JEEEDTclclsr3stdE7declvalIT_EEspclsr3stdE7declvalIT0_EEEEOS3_DpOS4_', symObjAddr: 0x67D0, symBinAddr: 0x10001E174, symSize: 0x24 }
  - { offsetInCU: 0xFB72, offset: 0x46F81, size: 0x8, addend: 0x0, symName: __ZNSt3__111this_thread9sleep_forB7v160006IxNS_5ratioILl1ELl1EEEEEvRKNS_6chrono8durationIT_T0_EE, symObjAddr: 0x695C, symBinAddr: 0x10001E300, symSize: 0xBC }
  - { offsetInCU: 0x1078C, offset: 0x47B9B, size: 0x8, addend: 0x0, symName: '__ZNSt3__116forward_as_tupleB7v160006IJNS_6__bindIZ4mainE3$_1JEEEEEENS_5tupleIJDpOT_EEES7_', symObjAddr: 0x8988, symBinAddr: 0x10001F33C, symSize: 0x2C }
  - { offsetInCU: 0x107C5, offset: 0x47BD4, size: 0x8, addend: 0x0, symName: '__ZNSt3__116forward_as_tupleB7v160006IJNS_9allocatorINS_6__bindIZ4mainE3$_1JEEEEEEEENS_5tupleIJDpOT_EEES9_', symObjAddr: 0x89B4, symBinAddr: 0x10001F368, symSize: 0x2C }
  - { offsetInCU: 0x10828, offset: 0x47C37, size: 0x8, addend: 0x0, symName: '__ZNSt3__13getB7v160006ILm0EJONS_6__bindIZ4mainE3$_1JEEEEEERNS_13tuple_elementIXT_ENS_5tupleIJDpT0_EEEE4typeERS9_', symObjAddr: 0x8CCC, symBinAddr: 0x10001F680, symSize: 0x24 }
  - { offsetInCU: 0x1086B, offset: 0x47C7A, size: 0x8, addend: 0x0, symName: '__ZNSt3__13getB7v160006ILm0EJONS_9allocatorINS_6__bindIZ4mainE3$_1JEEEEEEEERNS_13tuple_elementIXT_ENS_5tupleIJDpT0_EEEE4typeERSB_', symObjAddr: 0x8D08, symBinAddr: 0x10001F6BC, symSize: 0x24 }
  - { offsetInCU: 0x10D93, offset: 0x481A2, size: 0x8, addend: 0x0, symName: '__ZNSt3__116forward_as_tupleB7v160006IJRKNS_6__bindIZ4mainE3$_1JEEEEEENS_5tupleIJDpOT_EEES9_', symObjAddr: 0x929C, symBinAddr: 0x10001FC50, symSize: 0x2C }
  - { offsetInCU: 0x10DE1, offset: 0x481F0, size: 0x8, addend: 0x0, symName: '__ZNSt3__13getB7v160006ILm0EJRKNS_6__bindIZ4mainE3$_1JEEEEEERNS_13tuple_elementIXT_ENS_5tupleIJDpT0_EEEE4typeERSA_', symObjAddr: 0x948C, symBinAddr: 0x10001FE40, symSize: 0x24 }
  - { offsetInCU: 0x10E24, offset: 0x48233, size: 0x8, addend: 0x0, symName: '__ZNSt3__116forward_as_tupleB7v160006IJRKNS_9allocatorINS_6__bindIZ4mainE3$_1JEEEEEEEENS_5tupleIJDpOT_EEESB_', symObjAddr: 0x97E8, symBinAddr: 0x10002019C, symSize: 0x2C }
  - { offsetInCU: 0x10E72, offset: 0x48281, size: 0x8, addend: 0x0, symName: '__ZNSt3__13getB7v160006ILm0EJRKNS_9allocatorINS_6__bindIZ4mainE3$_1JEEEEEEEERNS_13tuple_elementIXT_ENS_5tupleIJDpT0_EEEE4typeERSC_', symObjAddr: 0x99CC, symBinAddr: 0x100020380, symSize: 0x24 }
  - { offsetInCU: 0x10EB5, offset: 0x482C4, size: 0x8, addend: 0x0, symName: '__ZNSt3__18__invokeB7v160006IRNS_6__bindIZ4mainE3$_1JEEEJEEEDTclclsr3stdE7declvalIT_EEspclsr3stdE7declvalIT0_EEEEOS5_DpOS6_', symObjAddr: 0x9A88, symBinAddr: 0x10002043C, symSize: 0x24 }
  - { offsetInCU: 0x10F27, offset: 0x48336, size: 0x8, addend: 0x0, symName: '__ZNSt3__115__apply_functorB7v160006IZ4mainE3$_1NS_5tupleIJEEEJES3_EENS_13__bind_returnIT_T0_T2_Xsr22__is_valid_bind_returnIS5_S6_S7_EE5valueEE4typeERS5_RS6_NS_15__tuple_indicesIJXspT1_EEEEOS7_', symObjAddr: 0x9ADC, symBinAddr: 0x100020490, symSize: 0x2C }
  - { offsetInCU: 0x10FA0, offset: 0x483AF, size: 0x8, addend: 0x0, symName: '__ZNSt3__18__invokeB7v160006IRZ4mainE3$_1JEEEDTclclsr3stdE7declvalIT_EEspclsr3stdE7declvalIT0_EEEEOS3_DpOS4_', symObjAddr: 0x9B08, symBinAddr: 0x1000204BC, symSize: 0x24 }
  - { offsetInCU: 0x11574, offset: 0x48983, size: 0x8, addend: 0x0, symName: __ZN7CoTrain11LogMannager8instanceEv, symObjAddr: 0x48C, symBinAddr: 0x1000187E4, symSize: 0x118 }
  - { offsetInCU: 0x11594, offset: 0x489A3, size: 0x8, addend: 0x0, symName: __ZZN7CoTrain11LogMannager8instanceEvE10m_instance, symObjAddr: 0xA010, symBinAddr: 0x100030000, symSize: 0x0 }
  - { offsetInCU: 0x11A45, offset: 0x48E54, size: 0x8, addend: 0x0, symName: _main, symObjAddr: 0x0, symBinAddr: 0x100018358, symSize: 0x48C }
  - { offsetInCU: 0x11DE0, offset: 0x491EF, size: 0x8, addend: 0x0, symName: __ZNKSt3__16chrono13__duration_ltINS0_8durationIxNS_5ratioILl1ELl1EEEEENS2_IeS4_EEEclB7v160006ERKS5_RKS6_, symObjAddr: 0x6E74, symBinAddr: 0x10001E65C, symSize: 0x6C }
  - { offsetInCU: 0x11E3B, offset: 0x4924A, size: 0x8, addend: 0x0, symName: __ZNKSt3__16chrono15__duration_castINS0_8durationIxNS_5ratioILl1ELl1EEEEENS2_IxNS3_ILl1ELl1000000000EEEEENS3_ILl1000000000ELl1EEELb0ELb1EEclB7v160006ERKS5_, symObjAddr: 0x7054, symBinAddr: 0x10001E83C, symSize: 0x4C }
  - { offsetInCU: 0x11E86, offset: 0x49295, size: 0x8, addend: 0x0, symName: __ZNKSt3__16chrono13__duration_ltINS0_8durationIxNS_5ratioILl1ELl1000000000EEEEENS2_IxNS3_ILl1ELl1EEEEEEclB7v160006ERKS5_RKS7_, symObjAddr: 0x7104, symBinAddr: 0x10001E8EC, symSize: 0x6C }
  - { offsetInCU: 0x14006, offset: 0x4B415, size: 0x8, addend: 0x0, symName: __ZN7CoTrain10ThreadPoolC1Ev, symObjAddr: 0x5A4, symBinAddr: 0x1000188FC, symSize: 0x2C }
  - { offsetInCU: 0x14036, offset: 0x4B445, size: 0x8, addend: 0x0, symName: __ZNSt3__110shared_ptrIN7CoTrain10ThreadPoolEEC1IS2_vEEPT_, symObjAddr: 0x5D0, symBinAddr: 0x100018928, symSize: 0x34 }
  - { offsetInCU: 0x14079, offset: 0x4B488, size: 0x8, addend: 0x0, symName: __ZNKSt3__110shared_ptrIN7CoTrain10ThreadPoolEEptB7v160006Ev, symObjAddr: 0x604, symBinAddr: 0x10001895C, symSize: 0x18 }
  - { offsetInCU: 0x1409F, offset: 0x4B4AE, size: 0x8, addend: 0x0, symName: __ZNKSt3__110shared_ptrIN7CoTrain11LogMannagerEEptB7v160006Ev, symObjAddr: 0x61C, symBinAddr: 0x100018974, symSize: 0x18 }
  - { offsetInCU: 0x140D1, offset: 0x4B4E0, size: 0x8, addend: 0x0, symName: __ZN7CoTrain9TcpSocketC1Ev, symObjAddr: 0x694, symBinAddr: 0x10001898C, symSize: 0x2C }
  - { offsetInCU: 0x14101, offset: 0x4B510, size: 0x8, addend: 0x0, symName: __ZNSt3__110shared_ptrIN7CoTrain6SocketEEC1INS1_9TcpSocketEvEEPT_, symObjAddr: 0x6C0, symBinAddr: 0x1000189B8, symSize: 0x34 }
  - { offsetInCU: 0x14144, offset: 0x4B553, size: 0x8, addend: 0x0, symName: __ZNKSt3__110shared_ptrIN7CoTrain6SocketEEptB7v160006Ev, symObjAddr: 0x6F4, symBinAddr: 0x1000189EC, symSize: 0x18 }
  - { offsetInCU: 0x1418C, offset: 0x4B59B, size: 0x8, addend: 0x0, symName: __ZNSt3__110shared_ptrIN7CoTrain7AddressEEC1INS1_11IPV4AddressEvEEPT_, symObjAddr: 0x70C, symBinAddr: 0x100018A04, symSize: 0x34 }
  - { offsetInCU: 0x141CF, offset: 0x4B5DE, size: 0x8, addend: 0x0, symName: __ZNSt3__110shared_ptrIN7CoTrain7AddressEED1B7v160006Ev, symObjAddr: 0x740, symBinAddr: 0x100018A38, symSize: 0x2C }
  - { offsetInCU: 0x141F9, offset: 0x4B608, size: 0x8, addend: 0x0, symName: __ZNSt3__110shared_ptrIN7CoTrain11LogMannagerEEC1B7v160006ERKS3_, symObjAddr: 0x76C, symBinAddr: 0x100018A64, symSize: 0x34 }
  - { offsetInCU: 0x1423E, offset: 0x4B64D, size: 0x8, addend: 0x0, symName: '__ZN7CoTrain4TaskC1IZ4mainE3$_0JEEEiOT_DpOT0_', symObjAddr: 0x7A0, symBinAddr: 0x100018A98, symSize: 0x3C }
  - { offsetInCU: 0x1429A, offset: 0x4B6A9, size: 0x8, addend: 0x0, symName: '__ZZ4mainEN3$_0D1Ev', symObjAddr: 0x808, symBinAddr: 0x100018AD4, symSize: 0x2C }
  - { offsetInCU: 0x142CC, offset: 0x4B6DB, size: 0x8, addend: 0x0, symName: '__ZN7CoTrain4TaskC1IZ4mainE3$_1JEEEiOT_DpOT0_', symObjAddr: 0x834, symBinAddr: 0x100018B00, symSize: 0x3C }
  - { offsetInCU: 0x14322, offset: 0x4B731, size: 0x8, addend: 0x0, symName: __ZNSt3__110shared_ptrIN7CoTrain6SocketEED1B7v160006Ev, symObjAddr: 0x870, symBinAddr: 0x100018B3C, symSize: 0x2C }
  - { offsetInCU: 0x1434C, offset: 0x4B75B, size: 0x8, addend: 0x0, symName: __ZNSt3__110shared_ptrIN7CoTrain10ThreadPoolEED1B7v160006Ev, symObjAddr: 0x89C, symBinAddr: 0x100018B68, symSize: 0x2C }
  - { offsetInCU: 0x14376, offset: 0x4B785, size: 0x8, addend: 0x0, symName: __ZNSt3__110shared_ptrIN7CoTrain11LogMannagerEED1B7v160006Ev, symObjAddr: 0x8C8, symBinAddr: 0x100018B94, symSize: 0x2C }
  - { offsetInCU: 0x143A0, offset: 0x4B7AF, size: 0x8, addend: 0x0, symName: __ZNKSt3__110shared_ptrIN7CoTrain11LogMannagerEEcvbB7v160006Ev, symObjAddr: 0x8F4, symBinAddr: 0x100018BC0, symSize: 0x30 }
  - { offsetInCU: 0x143C6, offset: 0x4B7D5, size: 0x8, addend: 0x0, symName: __ZN7CoTrain11LogMannagerC1Ev, symObjAddr: 0x924, symBinAddr: 0x100018BF0, symSize: 0x2C }
  - { offsetInCU: 0x143F6, offset: 0x4B805, size: 0x8, addend: 0x0, symName: __ZNSt3__110shared_ptrIN7CoTrain11LogMannagerEEC1IS2_vEEPT_, symObjAddr: 0x950, symBinAddr: 0x100018C1C, symSize: 0x34 }
  - { offsetInCU: 0x14439, offset: 0x4B848, size: 0x8, addend: 0x0, symName: __ZNSt3__110shared_ptrIN7CoTrain11LogMannagerEEaSB7v160006EOS3_, symObjAddr: 0x984, symBinAddr: 0x100018C50, symSize: 0x50 }
  - { offsetInCU: 0x1446E, offset: 0x4B87D, size: 0x8, addend: 0x0, symName: __ZNKSt3__110shared_ptrIN7CoTrain11LogMannagerEE3getB7v160006Ev, symObjAddr: 0x9D4, symBinAddr: 0x100018CA0, symSize: 0x18 }
  - { offsetInCU: 0x14494, offset: 0x4B8A3, size: 0x8, addend: 0x0, symName: __ZN7CoTrain11LogMannagerC2Ev, symObjAddr: 0x9EC, symBinAddr: 0x100018CB8, symSize: 0x54 }
  - { offsetInCU: 0x144BE, offset: 0x4B8CD, size: 0x8, addend: 0x0, symName: __ZNSt3__15mutexC1B7v160006Ev, symObjAddr: 0xA40, symBinAddr: 0x100018D0C, symSize: 0x2C }
  - { offsetInCU: 0x144E8, offset: 0x4B8F7, size: 0x8, addend: 0x0, symName: __ZNSt3__15queueIN7CoTrain4TaskENS_5dequeIS2_NS_9allocatorIS2_EEEEEC1B7v160006Ev, symObjAddr: 0xA6C, symBinAddr: 0x100018D38, symSize: 0x2C }
  - { offsetInCU: 0x14512, offset: 0x4B921, size: 0x8, addend: 0x0, symName: __ZNSt3__110shared_ptrIN7CoTrain6ThreadEEC1B7v160006Ev, symObjAddr: 0xA98, symBinAddr: 0x100018D64, symSize: 0x2C }
  - { offsetInCU: 0x1453C, offset: 0x4B94B, size: 0x8, addend: 0x0, symName: __ZNSt3__110shared_ptrIN7CoTrain6LoggerEEC1B7v160006Ev, symObjAddr: 0xAC4, symBinAddr: 0x100018D90, symSize: 0x2C }
  - { offsetInCU: 0x14566, offset: 0x4B975, size: 0x8, addend: 0x0, symName: __ZNSt3__15mutexC2B7v160006Ev, symObjAddr: 0xAF0, symBinAddr: 0x100018DBC, symSize: 0x44 }
  - { offsetInCU: 0x14590, offset: 0x4B99F, size: 0x8, addend: 0x0, symName: __ZNSt3__15queueIN7CoTrain4TaskENS_5dequeIS2_NS_9allocatorIS2_EEEEEC2B7v160006Ev, symObjAddr: 0xB34, symBinAddr: 0x100018E00, symSize: 0x2C }
  - { offsetInCU: 0x145BA, offset: 0x4B9C9, size: 0x8, addend: 0x0, symName: __ZNSt3__15dequeIN7CoTrain4TaskENS_9allocatorIS2_EEEC1B7v160006Ev, symObjAddr: 0xB60, symBinAddr: 0x100018E2C, symSize: 0x2C }
  - { offsetInCU: 0x145E4, offset: 0x4B9F3, size: 0x8, addend: 0x0, symName: __ZNSt3__15dequeIN7CoTrain4TaskENS_9allocatorIS2_EEEC2B7v160006Ev, symObjAddr: 0xB8C, symBinAddr: 0x100018E58, symSize: 0x50 }
  - { offsetInCU: 0x1460E, offset: 0x4BA1D, size: 0x8, addend: 0x0, symName: __ZNSt3__114__split_bufferIPN7CoTrain4TaskENS_9allocatorIS3_EEEC1Ev, symObjAddr: 0xBDC, symBinAddr: 0x100018EA8, symSize: 0x2C }
  - { offsetInCU: 0x14646, offset: 0x4BA55, size: 0x8, addend: 0x0, symName: __ZNSt3__117__compressed_pairImNS_9allocatorIN7CoTrain4TaskEEEEC1B7v160006IiNS_18__default_init_tagEEEOT_OT0_, symObjAddr: 0xC08, symBinAddr: 0x100018ED4, symSize: 0x3C }
  - { offsetInCU: 0x146A0, offset: 0x4BAAF, size: 0x8, addend: 0x0, symName: __ZNSt3__114__split_bufferIPN7CoTrain4TaskENS_9allocatorIS3_EEEC2Ev, symObjAddr: 0xC50, symBinAddr: 0x100018F10, symSize: 0x50 }
  - { offsetInCU: 0x146D2, offset: 0x4BAE1, size: 0x8, addend: 0x0, symName: __ZNSt3__117__compressed_pairIPPN7CoTrain4TaskENS_9allocatorIS3_EEEC1B7v160006IDnNS_18__default_init_tagEEEOT_OT0_, symObjAddr: 0xCA0, symBinAddr: 0x100018F60, symSize: 0x3C }
  - { offsetInCU: 0x1472C, offset: 0x4BB3B, size: 0x8, addend: 0x0, symName: __ZNSt3__117__compressed_pairIPPN7CoTrain4TaskENS_9allocatorIS3_EEEC2B7v160006IDnNS_18__default_init_tagEEEOT_OT0_, symObjAddr: 0xCDC, symBinAddr: 0x100018F9C, symSize: 0x40 }
  - { offsetInCU: 0x14786, offset: 0x4BB95, size: 0x8, addend: 0x0, symName: __ZNSt3__122__compressed_pair_elemINS_9allocatorIPN7CoTrain4TaskEEELi1ELb1EEC2B7v160006ENS_18__default_init_tagE, symObjAddr: 0xD38, symBinAddr: 0x100018FDC, symSize: 0x2C }
  - { offsetInCU: 0x147BA, offset: 0x4BBC9, size: 0x8, addend: 0x0, symName: __ZNSt3__19allocatorIPN7CoTrain4TaskEEC2B7v160006Ev, symObjAddr: 0xD64, symBinAddr: 0x100019008, symSize: 0x2C }
  - { offsetInCU: 0x147E4, offset: 0x4BBF3, size: 0x8, addend: 0x0, symName: __ZNSt3__116__non_trivial_ifILb1ENS_9allocatorIPN7CoTrain4TaskEEEEC2B7v160006Ev, symObjAddr: 0xD90, symBinAddr: 0x100019034, symSize: 0x14 }
  - { offsetInCU: 0x1480E, offset: 0x4BC1D, size: 0x8, addend: 0x0, symName: __ZNSt3__117__compressed_pairImNS_9allocatorIN7CoTrain4TaskEEEEC2B7v160006IiNS_18__default_init_tagEEEOT_OT0_, symObjAddr: 0xDA4, symBinAddr: 0x100019048, symSize: 0x40 }
  - { offsetInCU: 0x14868, offset: 0x4BC77, size: 0x8, addend: 0x0, symName: __ZNSt3__122__compressed_pair_elemINS_9allocatorIN7CoTrain4TaskEEELi1ELb1EEC2B7v160006ENS_18__default_init_tagE, symObjAddr: 0xE08, symBinAddr: 0x100019088, symSize: 0x2C }
  - { offsetInCU: 0x1489C, offset: 0x4BCAB, size: 0x8, addend: 0x0, symName: __ZNSt3__19allocatorIN7CoTrain4TaskEEC2B7v160006Ev, symObjAddr: 0xE34, symBinAddr: 0x1000190B4, symSize: 0x2C }
  - { offsetInCU: 0x148C6, offset: 0x4BCD5, size: 0x8, addend: 0x0, symName: __ZNSt3__116__non_trivial_ifILb1ENS_9allocatorIN7CoTrain4TaskEEEEC2B7v160006Ev, symObjAddr: 0xE60, symBinAddr: 0x1000190E0, symSize: 0x14 }
  - { offsetInCU: 0x148F0, offset: 0x4BCFF, size: 0x8, addend: 0x0, symName: __ZNSt3__110shared_ptrIN7CoTrain6ThreadEEC2B7v160006Ev, symObjAddr: 0xE74, symBinAddr: 0x1000190F4, symSize: 0x1C }
  - { offsetInCU: 0x1491A, offset: 0x4BD29, size: 0x8, addend: 0x0, symName: __ZNSt3__110shared_ptrIN7CoTrain6LoggerEEC2B7v160006Ev, symObjAddr: 0xE90, symBinAddr: 0x100019110, symSize: 0x1C }
  - { offsetInCU: 0x14944, offset: 0x4BD53, size: 0x8, addend: 0x0, symName: __ZNSt3__110shared_ptrIN7CoTrain11LogMannagerEEC2IS2_vEEPT_, symObjAddr: 0xEAC, symBinAddr: 0x10001912C, symSize: 0xEC }
  - { offsetInCU: 0x14A43, offset: 0x4BE52, size: 0x8, addend: 0x0, symName: __ZNSt3__110unique_ptrIN7CoTrain11LogMannagerENS_14default_deleteIS2_EEEC1B7v160006ILb1EvEEPS2_, symObjAddr: 0xF98, symBinAddr: 0x100019218, symSize: 0x34 }
  - { offsetInCU: 0x14AA4, offset: 0x4BEB3, size: 0x8, addend: 0x0, symName: __ZNSt3__19allocatorIN7CoTrain11LogMannagerEEC1B7v160006Ev, symObjAddr: 0xFCC, symBinAddr: 0x10001924C, symSize: 0x2C }
  - { offsetInCU: 0x14B81, offset: 0x4BF90, size: 0x8, addend: 0x0, symName: __ZNSt3__120__shared_ptr_pointerIPN7CoTrain11LogMannagerENS_10shared_ptrIS2_E27__shared_ptr_default_deleteIS2_S2_EENS_9allocatorIS2_EEEC1B7v160006ES3_S7_S9_, symObjAddr: 0xFF8, symBinAddr: 0x100019278, symSize: 0x34 }
  - { offsetInCU: 0x14BD8, offset: 0x4BFE7, size: 0x8, addend: 0x0, symName: __ZNSt3__110unique_ptrIN7CoTrain11LogMannagerENS_14default_deleteIS2_EEE7releaseB7v160006Ev, symObjAddr: 0x102C, symBinAddr: 0x1000192AC, symSize: 0x44 }
  - { offsetInCU: 0x14C0D, offset: 0x4C01C, size: 0x8, addend: 0x0, symName: __ZNSt3__110shared_ptrIN7CoTrain11LogMannagerEE18__enable_weak_thisB7v160006Ez, symObjAddr: 0x1070, symBinAddr: 0x1000192F0, symSize: 0x10 }
  - { offsetInCU: 0x14C34, offset: 0x4C043, size: 0x8, addend: 0x0, symName: __ZNSt3__110unique_ptrIN7CoTrain11LogMannagerENS_14default_deleteIS2_EEED1B7v160006Ev, symObjAddr: 0x1080, symBinAddr: 0x100019300, symSize: 0x2C }
  - { offsetInCU: 0x14C5E, offset: 0x4C06D, size: 0x8, addend: 0x0, symName: __ZNSt3__110unique_ptrIN7CoTrain11LogMannagerENS_14default_deleteIS2_EEEC2B7v160006ILb1EvEEPS2_, symObjAddr: 0x10AC, symBinAddr: 0x10001932C, symSize: 0x44 }
  - { offsetInCU: 0x14CA8, offset: 0x4C0B7, size: 0x8, addend: 0x0, symName: __ZNSt3__117__compressed_pairIPN7CoTrain11LogMannagerENS_14default_deleteIS2_EEEC1B7v160006IRS3_NS_16__value_init_tagEEEOT_OT0_, symObjAddr: 0x10F0, symBinAddr: 0x100019370, symSize: 0x3C }
  - { offsetInCU: 0x14D02, offset: 0x4C111, size: 0x8, addend: 0x0, symName: __ZNSt3__117__compressed_pairIPN7CoTrain11LogMannagerENS_14default_deleteIS2_EEEC2B7v160006IRS3_NS_16__value_init_tagEEEOT_OT0_, symObjAddr: 0x112C, symBinAddr: 0x1000193AC, symSize: 0x40 }
  - { offsetInCU: 0x14D5C, offset: 0x4C16B, size: 0x8, addend: 0x0, symName: __ZNSt3__122__compressed_pair_elemIPN7CoTrain11LogMannagerELi0ELb0EEC2B7v160006IRS3_vEEOT_, symObjAddr: 0x116C, symBinAddr: 0x1000193EC, symSize: 0x24 }
  - { offsetInCU: 0x14D9F, offset: 0x4C1AE, size: 0x8, addend: 0x0, symName: __ZNSt3__122__compressed_pair_elemINS_14default_deleteIN7CoTrain11LogMannagerEEELi1ELb1EEC2B7v160006ENS_16__value_init_tagE, symObjAddr: 0x1190, symBinAddr: 0x100019410, symSize: 0x14 }
  - { offsetInCU: 0x14DD3, offset: 0x4C1E2, size: 0x8, addend: 0x0, symName: __ZNSt3__19allocatorIN7CoTrain11LogMannagerEEC2B7v160006Ev, symObjAddr: 0x11A4, symBinAddr: 0x100019424, symSize: 0x2C }
  - { offsetInCU: 0x14DFD, offset: 0x4C20C, size: 0x8, addend: 0x0, symName: __ZNSt3__116__non_trivial_ifILb1ENS_9allocatorIN7CoTrain11LogMannagerEEEEC2B7v160006Ev, symObjAddr: 0x11D0, symBinAddr: 0x100019450, symSize: 0x14 }
  - { offsetInCU: 0x14E27, offset: 0x4C236, size: 0x8, addend: 0x0, symName: __ZNSt3__120__shared_ptr_pointerIPN7CoTrain11LogMannagerENS_10shared_ptrIS2_E27__shared_ptr_default_deleteIS2_S2_EENS_9allocatorIS2_EEEC2B7v160006ES3_S7_S9_, symObjAddr: 0x11E4, symBinAddr: 0x100019464, symSize: 0xA8 }
  - { offsetInCU: 0x14E84, offset: 0x4C293, size: 0x8, addend: 0x0, symName: __ZNSt3__117__compressed_pairIPN7CoTrain11LogMannagerENS_10shared_ptrIS2_E27__shared_ptr_default_deleteIS2_S2_EEEC1B7v160006IRS3_S7_EEOT_OT0_, symObjAddr: 0x12E0, symBinAddr: 0x10001950C, symSize: 0x3C }
  - { offsetInCU: 0x14EEA, offset: 0x4C2F9, size: 0x8, addend: 0x0, symName: __ZNSt3__117__compressed_pairINS0_IPN7CoTrain11LogMannagerENS_10shared_ptrIS2_E27__shared_ptr_default_deleteIS2_S2_EEEENS_9allocatorIS2_EEEC1B7v160006IS8_SA_EEOT_OT0_, symObjAddr: 0x131C, symBinAddr: 0x100019548, symSize: 0x3C }
  - { offsetInCU: 0x14F44, offset: 0x4C353, size: 0x8, addend: 0x0, symName: __ZNSt3__120__shared_ptr_pointerIPN7CoTrain11LogMannagerENS_10shared_ptrIS2_E27__shared_ptr_default_deleteIS2_S2_EENS_9allocatorIS2_EEED1Ev, symObjAddr: 0x1358, symBinAddr: 0x100019584, symSize: 0x2C }
  - { offsetInCU: 0x14F70, offset: 0x4C37F, size: 0x8, addend: 0x0, symName: __ZNSt3__120__shared_ptr_pointerIPN7CoTrain11LogMannagerENS_10shared_ptrIS2_E27__shared_ptr_default_deleteIS2_S2_EENS_9allocatorIS2_EEED0Ev, symObjAddr: 0x1384, symBinAddr: 0x1000195B0, symSize: 0x30 }
  - { offsetInCU: 0x14F9C, offset: 0x4C3AB, size: 0x8, addend: 0x0, symName: __ZNSt3__120__shared_ptr_pointerIPN7CoTrain11LogMannagerENS_10shared_ptrIS2_E27__shared_ptr_default_deleteIS2_S2_EENS_9allocatorIS2_EEE16__on_zero_sharedEv, symObjAddr: 0x13B4, symBinAddr: 0x1000195E0, symSize: 0x64 }
  - { offsetInCU: 0x14FC3, offset: 0x4C3D2, size: 0x8, addend: 0x0, symName: __ZNKSt3__120__shared_ptr_pointerIPN7CoTrain11LogMannagerENS_10shared_ptrIS2_E27__shared_ptr_default_deleteIS2_S2_EENS_9allocatorIS2_EEE13__get_deleterERKSt9type_info, symObjAddr: 0x1418, symBinAddr: 0x100019644, symSize: 0x68 }
  - { offsetInCU: 0x14FF9, offset: 0x4C408, size: 0x8, addend: 0x0, symName: __ZNSt3__120__shared_ptr_pointerIPN7CoTrain11LogMannagerENS_10shared_ptrIS2_E27__shared_ptr_default_deleteIS2_S2_EENS_9allocatorIS2_EEE21__on_zero_shared_weakEv, symObjAddr: 0x1480, symBinAddr: 0x1000196AC, symSize: 0x60 }
  - { offsetInCU: 0x1503A, offset: 0x4C449, size: 0x8, addend: 0x0, symName: __ZNSt3__117__compressed_pairIPN7CoTrain11LogMannagerENS_10shared_ptrIS2_E27__shared_ptr_default_deleteIS2_S2_EEEC2B7v160006IRS3_S7_EEOT_OT0_, symObjAddr: 0x1510, symBinAddr: 0x10001970C, symSize: 0x44 }
  - { offsetInCU: 0x15094, offset: 0x4C4A3, size: 0x8, addend: 0x0, symName: __ZNSt3__122__compressed_pair_elemINS_10shared_ptrIN7CoTrain11LogMannagerEE27__shared_ptr_default_deleteIS3_S3_EELi1ELb1EEC2B7v160006IS6_vEEOT_, symObjAddr: 0x1554, symBinAddr: 0x100019750, symSize: 0x18 }
  - { offsetInCU: 0x150D7, offset: 0x4C4E6, size: 0x8, addend: 0x0, symName: __ZNSt3__117__compressed_pairINS0_IPN7CoTrain11LogMannagerENS_10shared_ptrIS2_E27__shared_ptr_default_deleteIS2_S2_EEEENS_9allocatorIS2_EEEC2B7v160006IS8_SA_EEOT_OT0_, symObjAddr: 0x156C, symBinAddr: 0x100019768, symSize: 0x44 }
  - { offsetInCU: 0x15131, offset: 0x4C540, size: 0x8, addend: 0x0, symName: __ZNSt3__122__compressed_pair_elemINS_17__compressed_pairIPN7CoTrain11LogMannagerENS_10shared_ptrIS3_E27__shared_ptr_default_deleteIS3_S3_EEEELi0ELb0EEC2B7v160006IS9_vEEOT_, symObjAddr: 0x15B0, symBinAddr: 0x1000197AC, symSize: 0x24 }
  - { offsetInCU: 0x15174, offset: 0x4C583, size: 0x8, addend: 0x0, symName: __ZNSt3__122__compressed_pair_elemINS_9allocatorIN7CoTrain11LogMannagerEEELi1ELb1EEC2B7v160006IS4_vEEOT_, symObjAddr: 0x15D4, symBinAddr: 0x1000197D0, symSize: 0x18 }
  - { offsetInCU: 0x151B7, offset: 0x4C5C6, size: 0x8, addend: 0x0, symName: __ZNSt3__120__shared_ptr_pointerIPN7CoTrain11LogMannagerENS_10shared_ptrIS2_E27__shared_ptr_default_deleteIS2_S2_EENS_9allocatorIS2_EEED2Ev, symObjAddr: 0x15EC, symBinAddr: 0x1000197E8, symSize: 0x2C }
  - { offsetInCU: 0x151E3, offset: 0x4C5F2, size: 0x8, addend: 0x0, symName: __ZNSt3__117__compressed_pairINS0_IPN7CoTrain11LogMannagerENS_10shared_ptrIS2_E27__shared_ptr_default_deleteIS2_S2_EEEENS_9allocatorIS2_EEE5firstB7v160006Ev, symObjAddr: 0x1618, symBinAddr: 0x100019814, symSize: 0x24 }
  - { offsetInCU: 0x15209, offset: 0x4C618, size: 0x8, addend: 0x0, symName: __ZNSt3__117__compressed_pairIPN7CoTrain11LogMannagerENS_10shared_ptrIS2_E27__shared_ptr_default_deleteIS2_S2_EEE6secondB7v160006Ev, symObjAddr: 0x163C, symBinAddr: 0x100019838, symSize: 0x24 }
  - { offsetInCU: 0x1522F, offset: 0x4C63E, size: 0x8, addend: 0x0, symName: __ZNKSt3__114default_deleteIN7CoTrain11LogMannagerEEclB7v160006EPS2_, symObjAddr: 0x1660, symBinAddr: 0x10001985C, symSize: 0x4C }
  - { offsetInCU: 0x15264, offset: 0x4C673, size: 0x8, addend: 0x0, symName: __ZNSt3__117__compressed_pairIPN7CoTrain11LogMannagerENS_10shared_ptrIS2_E27__shared_ptr_default_deleteIS2_S2_EEE5firstB7v160006Ev, symObjAddr: 0x16AC, symBinAddr: 0x1000198A8, symSize: 0x24 }
  - { offsetInCU: 0x1528A, offset: 0x4C699, size: 0x8, addend: 0x0, symName: __ZNSt3__122__compressed_pair_elemINS_17__compressed_pairIPN7CoTrain11LogMannagerENS_10shared_ptrIS3_E27__shared_ptr_default_deleteIS3_S3_EEEELi0ELb0EE5__getB7v160006Ev, symObjAddr: 0x16D0, symBinAddr: 0x1000198CC, symSize: 0x14 }
  - { offsetInCU: 0x152B0, offset: 0x4C6BF, size: 0x8, addend: 0x0, symName: __ZNSt3__122__compressed_pair_elemINS_10shared_ptrIN7CoTrain11LogMannagerEE27__shared_ptr_default_deleteIS3_S3_EELi1ELb1EE5__getB7v160006Ev, symObjAddr: 0x16E4, symBinAddr: 0x1000198E0, symSize: 0x14 }
  - { offsetInCU: 0x152D6, offset: 0x4C6E5, size: 0x8, addend: 0x0, symName: __ZNSt3__122__compressed_pair_elemIPN7CoTrain11LogMannagerELi0ELb0EE5__getB7v160006Ev, symObjAddr: 0x16F8, symBinAddr: 0x1000198F4, symSize: 0x14 }
  - { offsetInCU: 0x152FC, offset: 0x4C70B, size: 0x8, addend: 0x0, symName: __ZNKSt3__117__compressed_pairINS0_IPN7CoTrain11LogMannagerENS_10shared_ptrIS2_E27__shared_ptr_default_deleteIS2_S2_EEEENS_9allocatorIS2_EEE5firstB7v160006Ev, symObjAddr: 0x17E8, symBinAddr: 0x100019908, symSize: 0x24 }
  - { offsetInCU: 0x15322, offset: 0x4C731, size: 0x8, addend: 0x0, symName: __ZNKSt3__117__compressed_pairIPN7CoTrain11LogMannagerENS_10shared_ptrIS2_E27__shared_ptr_default_deleteIS2_S2_EEE6secondB7v160006Ev, symObjAddr: 0x180C, symBinAddr: 0x10001992C, symSize: 0x24 }
  - { offsetInCU: 0x15348, offset: 0x4C757, size: 0x8, addend: 0x0, symName: __ZNKSt3__122__compressed_pair_elemINS_17__compressed_pairIPN7CoTrain11LogMannagerENS_10shared_ptrIS3_E27__shared_ptr_default_deleteIS3_S3_EEEELi0ELb0EE5__getB7v160006Ev, symObjAddr: 0x1850, symBinAddr: 0x100019950, symSize: 0x14 }
  - { offsetInCU: 0x1536E, offset: 0x4C77D, size: 0x8, addend: 0x0, symName: __ZNKSt3__122__compressed_pair_elemINS_10shared_ptrIN7CoTrain11LogMannagerEE27__shared_ptr_default_deleteIS3_S3_EELi1ELb1EE5__getB7v160006Ev, symObjAddr: 0x1864, symBinAddr: 0x100019964, symSize: 0x14 }
  - { offsetInCU: 0x15394, offset: 0x4C7A3, size: 0x8, addend: 0x0, symName: __ZNSt3__117__compressed_pairINS0_IPN7CoTrain11LogMannagerENS_10shared_ptrIS2_E27__shared_ptr_default_deleteIS2_S2_EEEENS_9allocatorIS2_EEE6secondB7v160006Ev, symObjAddr: 0x1878, symBinAddr: 0x100019978, symSize: 0x24 }
  - { offsetInCU: 0x153E9, offset: 0x4C7F8, size: 0x8, addend: 0x0, symName: __ZNSt3__19allocatorINS_20__shared_ptr_pointerIPN7CoTrain11LogMannagerENS_10shared_ptrIS3_E27__shared_ptr_default_deleteIS3_S3_EENS0_IS3_EEEEEC1B7v160006IS3_EERKNS0_IT_EE, symObjAddr: 0x189C, symBinAddr: 0x10001999C, symSize: 0x34 }
  - { offsetInCU: 0x15426, offset: 0x4C835, size: 0x8, addend: 0x0, symName: __ZNSt3__19allocatorINS_20__shared_ptr_pointerIPN7CoTrain11LogMannagerENS_10shared_ptrIS3_E27__shared_ptr_default_deleteIS3_S3_EENS0_IS3_EEEEE10deallocateB7v160006EPSA_m, symObjAddr: 0x18D0, symBinAddr: 0x1000199D0, symSize: 0x40 }
  - { offsetInCU: 0x1546A, offset: 0x4C879, size: 0x8, addend: 0x0, symName: __ZNSt3__114pointer_traitsIPNS_20__shared_ptr_pointerIPN7CoTrain11LogMannagerENS_10shared_ptrIS3_E27__shared_ptr_default_deleteIS3_S3_EENS_9allocatorIS3_EEEEE10pointer_toB7v160006ERSB_, symObjAddr: 0x1910, symBinAddr: 0x100019A10, symSize: 0x14 }
  - { offsetInCU: 0x1548E, offset: 0x4C89D, size: 0x8, addend: 0x0, symName: __ZNSt3__122__compressed_pair_elemINS_9allocatorIN7CoTrain11LogMannagerEEELi1ELb1EE5__getB7v160006Ev, symObjAddr: 0x1924, symBinAddr: 0x100019A24, symSize: 0x14 }
  - { offsetInCU: 0x154B4, offset: 0x4C8C3, size: 0x8, addend: 0x0, symName: __ZNSt3__19allocatorINS_20__shared_ptr_pointerIPN7CoTrain11LogMannagerENS_10shared_ptrIS3_E27__shared_ptr_default_deleteIS3_S3_EENS0_IS3_EEEEEC2B7v160006IS3_EERKNS0_IT_EE, symObjAddr: 0x1938, symBinAddr: 0x100019A38, symSize: 0x30 }
  - { offsetInCU: 0x154F1, offset: 0x4C900, size: 0x8, addend: 0x0, symName: __ZNSt3__116__non_trivial_ifILb1ENS_9allocatorINS_20__shared_ptr_pointerIPN7CoTrain11LogMannagerENS_10shared_ptrIS4_E27__shared_ptr_default_deleteIS4_S4_EENS1_IS4_EEEEEEEC2B7v160006Ev, symObjAddr: 0x1968, symBinAddr: 0x100019A68, symSize: 0x14 }
  - { offsetInCU: 0x1551B, offset: 0x4C92A, size: 0x8, addend: 0x0, symName: __ZNSt3__117__compressed_pairIPN7CoTrain11LogMannagerENS_14default_deleteIS2_EEE5firstB7v160006Ev, symObjAddr: 0x1AA4, symBinAddr: 0x100019A7C, symSize: 0x24 }
  - { offsetInCU: 0x15541, offset: 0x4C950, size: 0x8, addend: 0x0, symName: __ZNSt3__110unique_ptrIN7CoTrain11LogMannagerENS_14default_deleteIS2_EEED2B7v160006Ev, symObjAddr: 0x1AC8, symBinAddr: 0x100019AA0, symSize: 0x30 }
  - { offsetInCU: 0x1556B, offset: 0x4C97A, size: 0x8, addend: 0x0, symName: __ZNSt3__110unique_ptrIN7CoTrain11LogMannagerENS_14default_deleteIS2_EEE5resetB7v160006EPS2_, symObjAddr: 0x1AF8, symBinAddr: 0x100019AD0, symSize: 0x78 }
  - { offsetInCU: 0x155AF, offset: 0x4C9BE, size: 0x8, addend: 0x0, symName: __ZNSt3__117__compressed_pairIPN7CoTrain11LogMannagerENS_14default_deleteIS2_EEE6secondB7v160006Ev, symObjAddr: 0x1B70, symBinAddr: 0x100019B48, symSize: 0x24 }
  - { offsetInCU: 0x155D5, offset: 0x4C9E4, size: 0x8, addend: 0x0, symName: __ZNSt3__122__compressed_pair_elemINS_14default_deleteIN7CoTrain11LogMannagerEEELi1ELb1EE5__getB7v160006Ev, symObjAddr: 0x1B94, symBinAddr: 0x100019B6C, symSize: 0x14 }
  - { offsetInCU: 0x155FB, offset: 0x4CA0A, size: 0x8, addend: 0x0, symName: __ZNSt3__110shared_ptrIN7CoTrain11LogMannagerEEC1B7v160006EOS3_, symObjAddr: 0x1BA8, symBinAddr: 0x100019B80, symSize: 0x34 }
  - { offsetInCU: 0x15634, offset: 0x4CA43, size: 0x8, addend: 0x0, symName: __ZNSt3__110shared_ptrIN7CoTrain11LogMannagerEE4swapB7v160006ERS3_, symObjAddr: 0x1BDC, symBinAddr: 0x100019BB4, symSize: 0x44 }
  - { offsetInCU: 0x15669, offset: 0x4CA78, size: 0x8, addend: 0x0, symName: __ZNSt3__110shared_ptrIN7CoTrain11LogMannagerEEC2B7v160006EOS3_, symObjAddr: 0x1C20, symBinAddr: 0x100019BF8, symSize: 0x40 }
  - { offsetInCU: 0x156A2, offset: 0x4CAB1, size: 0x8, addend: 0x0, symName: __ZN7CoTrain10ThreadPoolC2Ev, symObjAddr: 0x1CD8, symBinAddr: 0x100019C74, symSize: 0x70 }
  - { offsetInCU: 0x156CC, offset: 0x4CADB, size: 0x8, addend: 0x0, symName: __ZNSt3__114priority_queueIN7CoTrain4TaskENS_6vectorIS2_NS_9allocatorIS2_EEEENS1_11TaskCompareEEC1B7v160006Ev, symObjAddr: 0x1D48, symBinAddr: 0x100019CE4, symSize: 0x2C }
  - { offsetInCU: 0x156F6, offset: 0x4CB05, size: 0x8, addend: 0x0, symName: __ZNSt3__16vectorINS_10shared_ptrIN7CoTrain6ThreadEEENS_9allocatorIS4_EEEC1B7v160006Ev, symObjAddr: 0x1D74, symBinAddr: 0x100019D10, symSize: 0x2C }
  - { offsetInCU: 0x15720, offset: 0x4CB2F, size: 0x8, addend: 0x0, symName: __ZNSt3__110shared_ptrIN7CoTrain9SemaphoreEEC1B7v160006Ev, symObjAddr: 0x1DA0, symBinAddr: 0x100019D3C, symSize: 0x2C }
  - { offsetInCU: 0x1574A, offset: 0x4CB59, size: 0x8, addend: 0x0, symName: __ZNSt3__114priority_queueIN7CoTrain4TaskENS_6vectorIS2_NS_9allocatorIS2_EEEENS1_11TaskCompareEEC2B7v160006Ev, symObjAddr: 0x1DCC, symBinAddr: 0x100019D68, symSize: 0x2C }
  - { offsetInCU: 0x15774, offset: 0x4CB83, size: 0x8, addend: 0x0, symName: __ZNSt3__16vectorIN7CoTrain4TaskENS_9allocatorIS2_EEEC1B7v160006Ev, symObjAddr: 0x1DF8, symBinAddr: 0x100019D94, symSize: 0x2C }
  - { offsetInCU: 0x1579E, offset: 0x4CBAD, size: 0x8, addend: 0x0, symName: __ZNSt3__16vectorIN7CoTrain4TaskENS_9allocatorIS2_EEEC2B7v160006Ev, symObjAddr: 0x1E24, symBinAddr: 0x100019DC0, symSize: 0x58 }
  - { offsetInCU: 0x157C8, offset: 0x4CBD7, size: 0x8, addend: 0x0, symName: __ZNSt3__117__compressed_pairIPN7CoTrain4TaskENS_9allocatorIS2_EEEC1B7v160006IDnNS_18__default_init_tagEEEOT_OT0_, symObjAddr: 0x1E7C, symBinAddr: 0x100019E18, symSize: 0x3C }
  - { offsetInCU: 0x15822, offset: 0x4CC31, size: 0x8, addend: 0x0, symName: __ZNSt3__117__compressed_pairIPN7CoTrain4TaskENS_9allocatorIS2_EEEC2B7v160006IDnNS_18__default_init_tagEEEOT_OT0_, symObjAddr: 0x1EC8, symBinAddr: 0x100019E64, symSize: 0x40 }
  - { offsetInCU: 0x1587C, offset: 0x4CC8B, size: 0x8, addend: 0x0, symName: __ZNSt3__122__compressed_pair_elemIPN7CoTrain4TaskELi0ELb0EEC2B7v160006IDnvEEOT_, symObjAddr: 0x1F08, symBinAddr: 0x100019EA4, symSize: 0x1C }
  - { offsetInCU: 0x158BF, offset: 0x4CCCE, size: 0x8, addend: 0x0, symName: __ZNSt3__16vectorINS_10shared_ptrIN7CoTrain6ThreadEEENS_9allocatorIS4_EEEC2B7v160006Ev, symObjAddr: 0x1F24, symBinAddr: 0x100019EC0, symSize: 0x58 }
  - { offsetInCU: 0x158E9, offset: 0x4CCF8, size: 0x8, addend: 0x0, symName: __ZNSt3__117__compressed_pairIPNS_10shared_ptrIN7CoTrain6ThreadEEENS_9allocatorIS4_EEEC1B7v160006IDnNS_18__default_init_tagEEEOT_OT0_, symObjAddr: 0x1F7C, symBinAddr: 0x100019F18, symSize: 0x3C }
  - { offsetInCU: 0x15943, offset: 0x4CD52, size: 0x8, addend: 0x0, symName: __ZNSt3__117__compressed_pairIPNS_10shared_ptrIN7CoTrain6ThreadEEENS_9allocatorIS4_EEEC2B7v160006IDnNS_18__default_init_tagEEEOT_OT0_, symObjAddr: 0x1FC8, symBinAddr: 0x100019F64, symSize: 0x40 }
  - { offsetInCU: 0x1599D, offset: 0x4CDAC, size: 0x8, addend: 0x0, symName: __ZNSt3__122__compressed_pair_elemIPNS_10shared_ptrIN7CoTrain6ThreadEEELi0ELb0EEC2B7v160006IDnvEEOT_, symObjAddr: 0x2008, symBinAddr: 0x100019FA4, symSize: 0x1C }
  - { offsetInCU: 0x159E0, offset: 0x4CDEF, size: 0x8, addend: 0x0, symName: __ZNSt3__122__compressed_pair_elemINS_9allocatorINS_10shared_ptrIN7CoTrain6ThreadEEEEELi1ELb1EEC2B7v160006ENS_18__default_init_tagE, symObjAddr: 0x2024, symBinAddr: 0x100019FC0, symSize: 0x2C }
  - { offsetInCU: 0x15A14, offset: 0x4CE23, size: 0x8, addend: 0x0, symName: __ZNSt3__19allocatorINS_10shared_ptrIN7CoTrain6ThreadEEEEC2B7v160006Ev, symObjAddr: 0x2050, symBinAddr: 0x100019FEC, symSize: 0x2C }
  - { offsetInCU: 0x15A3E, offset: 0x4CE4D, size: 0x8, addend: 0x0, symName: __ZNSt3__116__non_trivial_ifILb1ENS_9allocatorINS_10shared_ptrIN7CoTrain6ThreadEEEEEEC2B7v160006Ev, symObjAddr: 0x207C, symBinAddr: 0x10001A018, symSize: 0x14 }
  - { offsetInCU: 0x15A68, offset: 0x4CE77, size: 0x8, addend: 0x0, symName: __ZNSt3__110shared_ptrIN7CoTrain9SemaphoreEEC2B7v160006Ev, symObjAddr: 0x2090, symBinAddr: 0x10001A02C, symSize: 0x1C }
  - { offsetInCU: 0x15A92, offset: 0x4CEA1, size: 0x8, addend: 0x0, symName: __ZN7CoTrain9TcpSocketC2Ev, symObjAddr: 0x20AC, symBinAddr: 0x10001A048, symSize: 0x64 }
  - { offsetInCU: 0x15ABC, offset: 0x4CECB, size: 0x8, addend: 0x0, symName: __ZN7CoTrain6SocketC2Ev, symObjAddr: 0x2110, symBinAddr: 0x10001A0AC, symSize: 0x44 }
  - { offsetInCU: 0x15AE8, offset: 0x4CEF7, size: 0x8, addend: 0x0, symName: __ZNSt3__110shared_ptrIN7CoTrain7AddressEEC1B7v160006Ev, symObjAddr: 0x2154, symBinAddr: 0x10001A0F0, symSize: 0x2C }
  - { offsetInCU: 0x15B12, offset: 0x4CF21, size: 0x8, addend: 0x0, symName: __ZNSt3__110shared_ptrIN7CoTrain7AddressEEC2B7v160006Ev, symObjAddr: 0x2180, symBinAddr: 0x10001A11C, symSize: 0x1C }
  - { offsetInCU: 0x15B3C, offset: 0x4CF4B, size: 0x8, addend: 0x0, symName: '__ZZ4mainEN3$_0D2Ev', symObjAddr: 0x22E0, symBinAddr: 0x10001A138, symSize: 0x30 }
  - { offsetInCU: 0x15B68, offset: 0x4CF77, size: 0x8, addend: 0x0, symName: __ZNSt3__110shared_ptrIN7CoTrain11LogMannagerEED2B7v160006Ev, symObjAddr: 0x2310, symBinAddr: 0x10001A168, symSize: 0x54 }
  - { offsetInCU: 0x15B92, offset: 0x4CFA1, size: 0x8, addend: 0x0, symName: __ZNSt3__110shared_ptrIN7CoTrain11LogMannagerEEC2B7v160006ERKS3_, symObjAddr: 0x244C, symBinAddr: 0x10001A1BC, symSize: 0x70 }
  - { offsetInCU: 0x15BCB, offset: 0x4CFDA, size: 0x8, addend: 0x0, symName: __ZNSt3__110shared_ptrIN7CoTrain7AddressEED2B7v160006Ev, symObjAddr: 0x258C, symBinAddr: 0x10001A22C, symSize: 0x54 }
  - { offsetInCU: 0x15BF5, offset: 0x4D004, size: 0x8, addend: 0x0, symName: __ZNSt3__110shared_ptrIN7CoTrain10ThreadPoolEEC2IS2_vEEPT_, symObjAddr: 0x25E0, symBinAddr: 0x10001A280, symSize: 0xEC }
  - { offsetInCU: 0x15CF4, offset: 0x4D103, size: 0x8, addend: 0x0, symName: __ZNSt3__110unique_ptrIN7CoTrain10ThreadPoolENS_14default_deleteIS2_EEEC1B7v160006ILb1EvEEPS2_, symObjAddr: 0x26CC, symBinAddr: 0x10001A36C, symSize: 0x34 }
  - { offsetInCU: 0x15D55, offset: 0x4D164, size: 0x8, addend: 0x0, symName: __ZNSt3__19allocatorIN7CoTrain10ThreadPoolEEC1B7v160006Ev, symObjAddr: 0x2700, symBinAddr: 0x10001A3A0, symSize: 0x2C }
  - { offsetInCU: 0x15E32, offset: 0x4D241, size: 0x8, addend: 0x0, symName: __ZNSt3__120__shared_ptr_pointerIPN7CoTrain10ThreadPoolENS_10shared_ptrIS2_E27__shared_ptr_default_deleteIS2_S2_EENS_9allocatorIS2_EEEC1B7v160006ES3_S7_S9_, symObjAddr: 0x272C, symBinAddr: 0x10001A3CC, symSize: 0x34 }
  - { offsetInCU: 0x15E89, offset: 0x4D298, size: 0x8, addend: 0x0, symName: __ZNSt3__110unique_ptrIN7CoTrain10ThreadPoolENS_14default_deleteIS2_EEE7releaseB7v160006Ev, symObjAddr: 0x2760, symBinAddr: 0x10001A400, symSize: 0x44 }
  - { offsetInCU: 0x15EBE, offset: 0x4D2CD, size: 0x8, addend: 0x0, symName: __ZNSt3__110shared_ptrIN7CoTrain10ThreadPoolEE18__enable_weak_thisB7v160006Ez, symObjAddr: 0x27A4, symBinAddr: 0x10001A444, symSize: 0x10 }
  - { offsetInCU: 0x15EE5, offset: 0x4D2F4, size: 0x8, addend: 0x0, symName: __ZNSt3__110unique_ptrIN7CoTrain10ThreadPoolENS_14default_deleteIS2_EEED1B7v160006Ev, symObjAddr: 0x27B4, symBinAddr: 0x10001A454, symSize: 0x2C }
  - { offsetInCU: 0x15F0F, offset: 0x4D31E, size: 0x8, addend: 0x0, symName: __ZNSt3__110unique_ptrIN7CoTrain10ThreadPoolENS_14default_deleteIS2_EEEC2B7v160006ILb1EvEEPS2_, symObjAddr: 0x27E0, symBinAddr: 0x10001A480, symSize: 0x44 }
  - { offsetInCU: 0x15F53, offset: 0x4D362, size: 0x8, addend: 0x0, symName: __ZNSt3__117__compressed_pairIPN7CoTrain10ThreadPoolENS_14default_deleteIS2_EEEC1B7v160006IRS3_NS_16__value_init_tagEEEOT_OT0_, symObjAddr: 0x2824, symBinAddr: 0x10001A4C4, symSize: 0x3C }
  - { offsetInCU: 0x15FAD, offset: 0x4D3BC, size: 0x8, addend: 0x0, symName: __ZNSt3__117__compressed_pairIPN7CoTrain10ThreadPoolENS_14default_deleteIS2_EEEC2B7v160006IRS3_NS_16__value_init_tagEEEOT_OT0_, symObjAddr: 0x2860, symBinAddr: 0x10001A500, symSize: 0x40 }
  - { offsetInCU: 0x16007, offset: 0x4D416, size: 0x8, addend: 0x0, symName: __ZNSt3__122__compressed_pair_elemIPN7CoTrain10ThreadPoolELi0ELb0EEC2B7v160006IRS3_vEEOT_, symObjAddr: 0x28A0, symBinAddr: 0x10001A540, symSize: 0x24 }
  - { offsetInCU: 0x1604A, offset: 0x4D459, size: 0x8, addend: 0x0, symName: __ZNSt3__122__compressed_pair_elemINS_14default_deleteIN7CoTrain10ThreadPoolEEELi1ELb1EEC2B7v160006ENS_16__value_init_tagE, symObjAddr: 0x28C4, symBinAddr: 0x10001A564, symSize: 0x14 }
  - { offsetInCU: 0x1607E, offset: 0x4D48D, size: 0x8, addend: 0x0, symName: __ZNSt3__19allocatorIN7CoTrain10ThreadPoolEEC2B7v160006Ev, symObjAddr: 0x28D8, symBinAddr: 0x10001A578, symSize: 0x2C }
  - { offsetInCU: 0x160A8, offset: 0x4D4B7, size: 0x8, addend: 0x0, symName: __ZNSt3__116__non_trivial_ifILb1ENS_9allocatorIN7CoTrain10ThreadPoolEEEEC2B7v160006Ev, symObjAddr: 0x2904, symBinAddr: 0x10001A5A4, symSize: 0x14 }
  - { offsetInCU: 0x160D2, offset: 0x4D4E1, size: 0x8, addend: 0x0, symName: __ZNSt3__120__shared_ptr_pointerIPN7CoTrain10ThreadPoolENS_10shared_ptrIS2_E27__shared_ptr_default_deleteIS2_S2_EENS_9allocatorIS2_EEEC2B7v160006ES3_S7_S9_, symObjAddr: 0x2918, symBinAddr: 0x10001A5B8, symSize: 0xA8 }
  - { offsetInCU: 0x1612F, offset: 0x4D53E, size: 0x8, addend: 0x0, symName: __ZNSt3__117__compressed_pairIPN7CoTrain10ThreadPoolENS_10shared_ptrIS2_E27__shared_ptr_default_deleteIS2_S2_EEEC1B7v160006IRS3_S7_EEOT_OT0_, symObjAddr: 0x29C0, symBinAddr: 0x10001A660, symSize: 0x3C }
  - { offsetInCU: 0x16195, offset: 0x4D5A4, size: 0x8, addend: 0x0, symName: __ZNSt3__117__compressed_pairINS0_IPN7CoTrain10ThreadPoolENS_10shared_ptrIS2_E27__shared_ptr_default_deleteIS2_S2_EEEENS_9allocatorIS2_EEEC1B7v160006IS8_SA_EEOT_OT0_, symObjAddr: 0x29FC, symBinAddr: 0x10001A69C, symSize: 0x3C }
  - { offsetInCU: 0x161EF, offset: 0x4D5FE, size: 0x8, addend: 0x0, symName: __ZNSt3__120__shared_ptr_pointerIPN7CoTrain10ThreadPoolENS_10shared_ptrIS2_E27__shared_ptr_default_deleteIS2_S2_EENS_9allocatorIS2_EEED1Ev, symObjAddr: 0x2A38, symBinAddr: 0x10001A6D8, symSize: 0x2C }
  - { offsetInCU: 0x1621B, offset: 0x4D62A, size: 0x8, addend: 0x0, symName: __ZNSt3__120__shared_ptr_pointerIPN7CoTrain10ThreadPoolENS_10shared_ptrIS2_E27__shared_ptr_default_deleteIS2_S2_EENS_9allocatorIS2_EEED0Ev, symObjAddr: 0x2A64, symBinAddr: 0x10001A704, symSize: 0x30 }
  - { offsetInCU: 0x16247, offset: 0x4D656, size: 0x8, addend: 0x0, symName: __ZNSt3__120__shared_ptr_pointerIPN7CoTrain10ThreadPoolENS_10shared_ptrIS2_E27__shared_ptr_default_deleteIS2_S2_EENS_9allocatorIS2_EEE16__on_zero_sharedEv, symObjAddr: 0x2A94, symBinAddr: 0x10001A734, symSize: 0x64 }
  - { offsetInCU: 0x1626E, offset: 0x4D67D, size: 0x8, addend: 0x0, symName: __ZNKSt3__120__shared_ptr_pointerIPN7CoTrain10ThreadPoolENS_10shared_ptrIS2_E27__shared_ptr_default_deleteIS2_S2_EENS_9allocatorIS2_EEE13__get_deleterERKSt9type_info, symObjAddr: 0x2AF8, symBinAddr: 0x10001A798, symSize: 0x68 }
  - { offsetInCU: 0x162A4, offset: 0x4D6B3, size: 0x8, addend: 0x0, symName: __ZNSt3__120__shared_ptr_pointerIPN7CoTrain10ThreadPoolENS_10shared_ptrIS2_E27__shared_ptr_default_deleteIS2_S2_EENS_9allocatorIS2_EEE21__on_zero_shared_weakEv, symObjAddr: 0x2B60, symBinAddr: 0x10001A800, symSize: 0x60 }
  - { offsetInCU: 0x162E5, offset: 0x4D6F4, size: 0x8, addend: 0x0, symName: __ZNSt3__117__compressed_pairIPN7CoTrain10ThreadPoolENS_10shared_ptrIS2_E27__shared_ptr_default_deleteIS2_S2_EEEC2B7v160006IRS3_S7_EEOT_OT0_, symObjAddr: 0x2BC0, symBinAddr: 0x10001A860, symSize: 0x44 }
  - { offsetInCU: 0x1633F, offset: 0x4D74E, size: 0x8, addend: 0x0, symName: __ZNSt3__122__compressed_pair_elemINS_10shared_ptrIN7CoTrain10ThreadPoolEE27__shared_ptr_default_deleteIS3_S3_EELi1ELb1EEC2B7v160006IS6_vEEOT_, symObjAddr: 0x2C04, symBinAddr: 0x10001A8A4, symSize: 0x18 }
  - { offsetInCU: 0x16382, offset: 0x4D791, size: 0x8, addend: 0x0, symName: __ZNSt3__117__compressed_pairINS0_IPN7CoTrain10ThreadPoolENS_10shared_ptrIS2_E27__shared_ptr_default_deleteIS2_S2_EEEENS_9allocatorIS2_EEEC2B7v160006IS8_SA_EEOT_OT0_, symObjAddr: 0x2C1C, symBinAddr: 0x10001A8BC, symSize: 0x44 }
  - { offsetInCU: 0x163DC, offset: 0x4D7EB, size: 0x8, addend: 0x0, symName: __ZNSt3__122__compressed_pair_elemINS_17__compressed_pairIPN7CoTrain10ThreadPoolENS_10shared_ptrIS3_E27__shared_ptr_default_deleteIS3_S3_EEEELi0ELb0EEC2B7v160006IS9_vEEOT_, symObjAddr: 0x2C60, symBinAddr: 0x10001A900, symSize: 0x24 }
  - { offsetInCU: 0x1641F, offset: 0x4D82E, size: 0x8, addend: 0x0, symName: __ZNSt3__122__compressed_pair_elemINS_9allocatorIN7CoTrain10ThreadPoolEEELi1ELb1EEC2B7v160006IS4_vEEOT_, symObjAddr: 0x2C84, symBinAddr: 0x10001A924, symSize: 0x18 }
  - { offsetInCU: 0x16462, offset: 0x4D871, size: 0x8, addend: 0x0, symName: __ZNSt3__120__shared_ptr_pointerIPN7CoTrain10ThreadPoolENS_10shared_ptrIS2_E27__shared_ptr_default_deleteIS2_S2_EENS_9allocatorIS2_EEED2Ev, symObjAddr: 0x2C9C, symBinAddr: 0x10001A93C, symSize: 0x2C }
  - { offsetInCU: 0x1648E, offset: 0x4D89D, size: 0x8, addend: 0x0, symName: __ZNSt3__117__compressed_pairINS0_IPN7CoTrain10ThreadPoolENS_10shared_ptrIS2_E27__shared_ptr_default_deleteIS2_S2_EEEENS_9allocatorIS2_EEE5firstB7v160006Ev, symObjAddr: 0x2CC8, symBinAddr: 0x10001A968, symSize: 0x24 }
  - { offsetInCU: 0x164B4, offset: 0x4D8C3, size: 0x8, addend: 0x0, symName: __ZNSt3__117__compressed_pairIPN7CoTrain10ThreadPoolENS_10shared_ptrIS2_E27__shared_ptr_default_deleteIS2_S2_EEE6secondB7v160006Ev, symObjAddr: 0x2CEC, symBinAddr: 0x10001A98C, symSize: 0x24 }
  - { offsetInCU: 0x164DA, offset: 0x4D8E9, size: 0x8, addend: 0x0, symName: __ZNKSt3__114default_deleteIN7CoTrain10ThreadPoolEEclB7v160006EPS2_, symObjAddr: 0x2D10, symBinAddr: 0x10001A9B0, symSize: 0x4C }
  - { offsetInCU: 0x1650F, offset: 0x4D91E, size: 0x8, addend: 0x0, symName: __ZNSt3__117__compressed_pairIPN7CoTrain10ThreadPoolENS_10shared_ptrIS2_E27__shared_ptr_default_deleteIS2_S2_EEE5firstB7v160006Ev, symObjAddr: 0x2D5C, symBinAddr: 0x10001A9FC, symSize: 0x24 }
  - { offsetInCU: 0x16535, offset: 0x4D944, size: 0x8, addend: 0x0, symName: __ZNSt3__122__compressed_pair_elemINS_17__compressed_pairIPN7CoTrain10ThreadPoolENS_10shared_ptrIS3_E27__shared_ptr_default_deleteIS3_S3_EEEELi0ELb0EE5__getB7v160006Ev, symObjAddr: 0x2D80, symBinAddr: 0x10001AA20, symSize: 0x14 }
  - { offsetInCU: 0x1655B, offset: 0x4D96A, size: 0x8, addend: 0x0, symName: __ZNSt3__122__compressed_pair_elemINS_10shared_ptrIN7CoTrain10ThreadPoolEE27__shared_ptr_default_deleteIS3_S3_EELi1ELb1EE5__getB7v160006Ev, symObjAddr: 0x2D94, symBinAddr: 0x10001AA34, symSize: 0x14 }
  - { offsetInCU: 0x16581, offset: 0x4D990, size: 0x8, addend: 0x0, symName: __ZNSt3__122__compressed_pair_elemIPN7CoTrain10ThreadPoolELi0ELb0EE5__getB7v160006Ev, symObjAddr: 0x2DA8, symBinAddr: 0x10001AA48, symSize: 0x14 }
  - { offsetInCU: 0x165A7, offset: 0x4D9B6, size: 0x8, addend: 0x0, symName: __ZNKSt3__117__compressed_pairINS0_IPN7CoTrain10ThreadPoolENS_10shared_ptrIS2_E27__shared_ptr_default_deleteIS2_S2_EEEENS_9allocatorIS2_EEE5firstB7v160006Ev, symObjAddr: 0x2DBC, symBinAddr: 0x10001AA5C, symSize: 0x24 }
  - { offsetInCU: 0x165CD, offset: 0x4D9DC, size: 0x8, addend: 0x0, symName: __ZNKSt3__117__compressed_pairIPN7CoTrain10ThreadPoolENS_10shared_ptrIS2_E27__shared_ptr_default_deleteIS2_S2_EEE6secondB7v160006Ev, symObjAddr: 0x2DE0, symBinAddr: 0x10001AA80, symSize: 0x24 }
  - { offsetInCU: 0x165F3, offset: 0x4DA02, size: 0x8, addend: 0x0, symName: __ZNKSt3__122__compressed_pair_elemINS_17__compressed_pairIPN7CoTrain10ThreadPoolENS_10shared_ptrIS3_E27__shared_ptr_default_deleteIS3_S3_EEEELi0ELb0EE5__getB7v160006Ev, symObjAddr: 0x2E04, symBinAddr: 0x10001AAA4, symSize: 0x14 }
  - { offsetInCU: 0x16619, offset: 0x4DA28, size: 0x8, addend: 0x0, symName: __ZNKSt3__122__compressed_pair_elemINS_10shared_ptrIN7CoTrain10ThreadPoolEE27__shared_ptr_default_deleteIS3_S3_EELi1ELb1EE5__getB7v160006Ev, symObjAddr: 0x2E18, symBinAddr: 0x10001AAB8, symSize: 0x14 }
  - { offsetInCU: 0x1663F, offset: 0x4DA4E, size: 0x8, addend: 0x0, symName: __ZNSt3__117__compressed_pairINS0_IPN7CoTrain10ThreadPoolENS_10shared_ptrIS2_E27__shared_ptr_default_deleteIS2_S2_EEEENS_9allocatorIS2_EEE6secondB7v160006Ev, symObjAddr: 0x2E2C, symBinAddr: 0x10001AACC, symSize: 0x24 }
  - { offsetInCU: 0x16694, offset: 0x4DAA3, size: 0x8, addend: 0x0, symName: __ZNSt3__19allocatorINS_20__shared_ptr_pointerIPN7CoTrain10ThreadPoolENS_10shared_ptrIS3_E27__shared_ptr_default_deleteIS3_S3_EENS0_IS3_EEEEEC1B7v160006IS3_EERKNS0_IT_EE, symObjAddr: 0x2E50, symBinAddr: 0x10001AAF0, symSize: 0x34 }
  - { offsetInCU: 0x166D1, offset: 0x4DAE0, size: 0x8, addend: 0x0, symName: __ZNSt3__19allocatorINS_20__shared_ptr_pointerIPN7CoTrain10ThreadPoolENS_10shared_ptrIS3_E27__shared_ptr_default_deleteIS3_S3_EENS0_IS3_EEEEE10deallocateB7v160006EPSA_m, symObjAddr: 0x2E84, symBinAddr: 0x10001AB24, symSize: 0x40 }
  - { offsetInCU: 0x16715, offset: 0x4DB24, size: 0x8, addend: 0x0, symName: __ZNSt3__114pointer_traitsIPNS_20__shared_ptr_pointerIPN7CoTrain10ThreadPoolENS_10shared_ptrIS3_E27__shared_ptr_default_deleteIS3_S3_EENS_9allocatorIS3_EEEEE10pointer_toB7v160006ERSB_, symObjAddr: 0x2EC4, symBinAddr: 0x10001AB64, symSize: 0x14 }
  - { offsetInCU: 0x16739, offset: 0x4DB48, size: 0x8, addend: 0x0, symName: __ZNSt3__122__compressed_pair_elemINS_9allocatorIN7CoTrain10ThreadPoolEEELi1ELb1EE5__getB7v160006Ev, symObjAddr: 0x2ED8, symBinAddr: 0x10001AB78, symSize: 0x14 }
  - { offsetInCU: 0x1675F, offset: 0x4DB6E, size: 0x8, addend: 0x0, symName: __ZNSt3__19allocatorINS_20__shared_ptr_pointerIPN7CoTrain10ThreadPoolENS_10shared_ptrIS3_E27__shared_ptr_default_deleteIS3_S3_EENS0_IS3_EEEEEC2B7v160006IS3_EERKNS0_IT_EE, symObjAddr: 0x2EEC, symBinAddr: 0x10001AB8C, symSize: 0x30 }
  - { offsetInCU: 0x1679C, offset: 0x4DBAB, size: 0x8, addend: 0x0, symName: __ZNSt3__116__non_trivial_ifILb1ENS_9allocatorINS_20__shared_ptr_pointerIPN7CoTrain10ThreadPoolENS_10shared_ptrIS4_E27__shared_ptr_default_deleteIS4_S4_EENS1_IS4_EEEEEEEC2B7v160006Ev, symObjAddr: 0x2F1C, symBinAddr: 0x10001ABBC, symSize: 0x14 }
  - { offsetInCU: 0x167C6, offset: 0x4DBD5, size: 0x8, addend: 0x0, symName: __ZNSt3__117__compressed_pairIPN7CoTrain10ThreadPoolENS_14default_deleteIS2_EEE5firstB7v160006Ev, symObjAddr: 0x2F30, symBinAddr: 0x10001ABD0, symSize: 0x24 }
  - { offsetInCU: 0x167EC, offset: 0x4DBFB, size: 0x8, addend: 0x0, symName: __ZNSt3__110unique_ptrIN7CoTrain10ThreadPoolENS_14default_deleteIS2_EEED2B7v160006Ev, symObjAddr: 0x2F54, symBinAddr: 0x10001ABF4, symSize: 0x30 }
  - { offsetInCU: 0x16816, offset: 0x4DC25, size: 0x8, addend: 0x0, symName: __ZNSt3__110unique_ptrIN7CoTrain10ThreadPoolENS_14default_deleteIS2_EEE5resetB7v160006EPS2_, symObjAddr: 0x2F84, symBinAddr: 0x10001AC24, symSize: 0x78 }
  - { offsetInCU: 0x1685A, offset: 0x4DC69, size: 0x8, addend: 0x0, symName: __ZNSt3__117__compressed_pairIPN7CoTrain10ThreadPoolENS_14default_deleteIS2_EEE6secondB7v160006Ev, symObjAddr: 0x2FFC, symBinAddr: 0x10001AC9C, symSize: 0x24 }
  - { offsetInCU: 0x16880, offset: 0x4DC8F, size: 0x8, addend: 0x0, symName: __ZNSt3__122__compressed_pair_elemINS_14default_deleteIN7CoTrain10ThreadPoolEEELi1ELb1EE5__getB7v160006Ev, symObjAddr: 0x3020, symBinAddr: 0x10001ACC0, symSize: 0x14 }
  - { offsetInCU: 0x168A6, offset: 0x4DCB5, size: 0x8, addend: 0x0, symName: __ZNSt3__110shared_ptrIN7CoTrain10ThreadPoolEED2B7v160006Ev, symObjAddr: 0x3034, symBinAddr: 0x10001ACD4, symSize: 0x54 }
  - { offsetInCU: 0x168D0, offset: 0x4DCDF, size: 0x8, addend: 0x0, symName: __ZNSt3__110shared_ptrIN7CoTrain6SocketEEC2INS1_9TcpSocketEvEEPT_, symObjAddr: 0x3248, symBinAddr: 0x10001AD28, symSize: 0xEC }
  - { offsetInCU: 0x169D5, offset: 0x4DDE4, size: 0x8, addend: 0x0, symName: __ZNSt3__110unique_ptrIN7CoTrain9TcpSocketENS_14default_deleteIS2_EEEC1B7v160006ILb1EvEEPS2_, symObjAddr: 0x3334, symBinAddr: 0x10001AE14, symSize: 0x34 }
  - { offsetInCU: 0x16A41, offset: 0x4DE50, size: 0x8, addend: 0x0, symName: __ZNSt3__19allocatorIN7CoTrain9TcpSocketEEC1B7v160006Ev, symObjAddr: 0x3368, symBinAddr: 0x10001AE48, symSize: 0x2C }
  - { offsetInCU: 0x16B1E, offset: 0x4DF2D, size: 0x8, addend: 0x0, symName: __ZNSt3__120__shared_ptr_pointerIPN7CoTrain9TcpSocketENS_10shared_ptrINS1_6SocketEE27__shared_ptr_default_deleteIS5_S2_EENS_9allocatorIS2_EEEC1B7v160006ES3_S8_SA_, symObjAddr: 0x3394, symBinAddr: 0x10001AE74, symSize: 0x34 }
  - { offsetInCU: 0x16B75, offset: 0x4DF84, size: 0x8, addend: 0x0, symName: __ZNSt3__110unique_ptrIN7CoTrain9TcpSocketENS_14default_deleteIS2_EEE7releaseB7v160006Ev, symObjAddr: 0x33C8, symBinAddr: 0x10001AEA8, symSize: 0x44 }
  - { offsetInCU: 0x16BAA, offset: 0x4DFB9, size: 0x8, addend: 0x0, symName: __ZNSt3__110shared_ptrIN7CoTrain6SocketEE18__enable_weak_thisB7v160006Ez, symObjAddr: 0x340C, symBinAddr: 0x10001AEEC, symSize: 0x10 }
  - { offsetInCU: 0x16BD1, offset: 0x4DFE0, size: 0x8, addend: 0x0, symName: __ZNSt3__110unique_ptrIN7CoTrain9TcpSocketENS_14default_deleteIS2_EEED1B7v160006Ev, symObjAddr: 0x341C, symBinAddr: 0x10001AEFC, symSize: 0x2C }
  - { offsetInCU: 0x16BFB, offset: 0x4E00A, size: 0x8, addend: 0x0, symName: __ZNSt3__110unique_ptrIN7CoTrain9TcpSocketENS_14default_deleteIS2_EEEC2B7v160006ILb1EvEEPS2_, symObjAddr: 0x3448, symBinAddr: 0x10001AF28, symSize: 0x44 }
  - { offsetInCU: 0x16C3F, offset: 0x4E04E, size: 0x8, addend: 0x0, symName: __ZNSt3__117__compressed_pairIPN7CoTrain9TcpSocketENS_14default_deleteIS2_EEEC1B7v160006IRS3_NS_16__value_init_tagEEEOT_OT0_, symObjAddr: 0x348C, symBinAddr: 0x10001AF6C, symSize: 0x3C }
  - { offsetInCU: 0x16C99, offset: 0x4E0A8, size: 0x8, addend: 0x0, symName: __ZNSt3__117__compressed_pairIPN7CoTrain9TcpSocketENS_14default_deleteIS2_EEEC2B7v160006IRS3_NS_16__value_init_tagEEEOT_OT0_, symObjAddr: 0x34C8, symBinAddr: 0x10001AFA8, symSize: 0x40 }
  - { offsetInCU: 0x16CF3, offset: 0x4E102, size: 0x8, addend: 0x0, symName: __ZNSt3__122__compressed_pair_elemIPN7CoTrain9TcpSocketELi0ELb0EEC2B7v160006IRS3_vEEOT_, symObjAddr: 0x3508, symBinAddr: 0x10001AFE8, symSize: 0x24 }
  - { offsetInCU: 0x16D36, offset: 0x4E145, size: 0x8, addend: 0x0, symName: __ZNSt3__122__compressed_pair_elemINS_14default_deleteIN7CoTrain9TcpSocketEEELi1ELb1EEC2B7v160006ENS_16__value_init_tagE, symObjAddr: 0x352C, symBinAddr: 0x10001B00C, symSize: 0x14 }
  - { offsetInCU: 0x16D6A, offset: 0x4E179, size: 0x8, addend: 0x0, symName: __ZNSt3__19allocatorIN7CoTrain9TcpSocketEEC2B7v160006Ev, symObjAddr: 0x3540, symBinAddr: 0x10001B020, symSize: 0x2C }
  - { offsetInCU: 0x16D94, offset: 0x4E1A3, size: 0x8, addend: 0x0, symName: __ZNSt3__116__non_trivial_ifILb1ENS_9allocatorIN7CoTrain9TcpSocketEEEEC2B7v160006Ev, symObjAddr: 0x356C, symBinAddr: 0x10001B04C, symSize: 0x14 }
  - { offsetInCU: 0x16DBE, offset: 0x4E1CD, size: 0x8, addend: 0x0, symName: __ZNSt3__120__shared_ptr_pointerIPN7CoTrain9TcpSocketENS_10shared_ptrINS1_6SocketEE27__shared_ptr_default_deleteIS5_S2_EENS_9allocatorIS2_EEEC2B7v160006ES3_S8_SA_, symObjAddr: 0x3580, symBinAddr: 0x10001B060, symSize: 0xA8 }
  - { offsetInCU: 0x16E1B, offset: 0x4E22A, size: 0x8, addend: 0x0, symName: __ZNSt3__117__compressed_pairIPN7CoTrain9TcpSocketENS_10shared_ptrINS1_6SocketEE27__shared_ptr_default_deleteIS5_S2_EEEC1B7v160006IRS3_S8_EEOT_OT0_, symObjAddr: 0x3628, symBinAddr: 0x10001B108, symSize: 0x3C }
  - { offsetInCU: 0x16E81, offset: 0x4E290, size: 0x8, addend: 0x0, symName: __ZNSt3__117__compressed_pairINS0_IPN7CoTrain9TcpSocketENS_10shared_ptrINS1_6SocketEE27__shared_ptr_default_deleteIS5_S2_EEEENS_9allocatorIS2_EEEC1B7v160006IS9_SB_EEOT_OT0_, symObjAddr: 0x3664, symBinAddr: 0x10001B144, symSize: 0x3C }
  - { offsetInCU: 0x16EDB, offset: 0x4E2EA, size: 0x8, addend: 0x0, symName: __ZNSt3__120__shared_ptr_pointerIPN7CoTrain9TcpSocketENS_10shared_ptrINS1_6SocketEE27__shared_ptr_default_deleteIS5_S2_EENS_9allocatorIS2_EEED1Ev, symObjAddr: 0x36A0, symBinAddr: 0x10001B180, symSize: 0x2C }
  - { offsetInCU: 0x16F07, offset: 0x4E316, size: 0x8, addend: 0x0, symName: __ZNSt3__120__shared_ptr_pointerIPN7CoTrain9TcpSocketENS_10shared_ptrINS1_6SocketEE27__shared_ptr_default_deleteIS5_S2_EENS_9allocatorIS2_EEED0Ev, symObjAddr: 0x36CC, symBinAddr: 0x10001B1AC, symSize: 0x30 }
  - { offsetInCU: 0x16F33, offset: 0x4E342, size: 0x8, addend: 0x0, symName: __ZNSt3__120__shared_ptr_pointerIPN7CoTrain9TcpSocketENS_10shared_ptrINS1_6SocketEE27__shared_ptr_default_deleteIS5_S2_EENS_9allocatorIS2_EEE16__on_zero_sharedEv, symObjAddr: 0x36FC, symBinAddr: 0x10001B1DC, symSize: 0x64 }
  - { offsetInCU: 0x16F5A, offset: 0x4E369, size: 0x8, addend: 0x0, symName: __ZNKSt3__120__shared_ptr_pointerIPN7CoTrain9TcpSocketENS_10shared_ptrINS1_6SocketEE27__shared_ptr_default_deleteIS5_S2_EENS_9allocatorIS2_EEE13__get_deleterERKSt9type_info, symObjAddr: 0x3760, symBinAddr: 0x10001B240, symSize: 0x68 }
  - { offsetInCU: 0x16F90, offset: 0x4E39F, size: 0x8, addend: 0x0, symName: __ZNSt3__120__shared_ptr_pointerIPN7CoTrain9TcpSocketENS_10shared_ptrINS1_6SocketEE27__shared_ptr_default_deleteIS5_S2_EENS_9allocatorIS2_EEE21__on_zero_shared_weakEv, symObjAddr: 0x37C8, symBinAddr: 0x10001B2A8, symSize: 0x60 }
  - { offsetInCU: 0x16FD1, offset: 0x4E3E0, size: 0x8, addend: 0x0, symName: __ZNSt3__117__compressed_pairIPN7CoTrain9TcpSocketENS_10shared_ptrINS1_6SocketEE27__shared_ptr_default_deleteIS5_S2_EEEC2B7v160006IRS3_S8_EEOT_OT0_, symObjAddr: 0x3828, symBinAddr: 0x10001B308, symSize: 0x44 }
  - { offsetInCU: 0x1702B, offset: 0x4E43A, size: 0x8, addend: 0x0, symName: __ZNSt3__122__compressed_pair_elemINS_10shared_ptrIN7CoTrain6SocketEE27__shared_ptr_default_deleteIS3_NS2_9TcpSocketEEELi1ELb1EEC2B7v160006IS7_vEEOT_, symObjAddr: 0x386C, symBinAddr: 0x10001B34C, symSize: 0x18 }
  - { offsetInCU: 0x1706E, offset: 0x4E47D, size: 0x8, addend: 0x0, symName: __ZNSt3__117__compressed_pairINS0_IPN7CoTrain9TcpSocketENS_10shared_ptrINS1_6SocketEE27__shared_ptr_default_deleteIS5_S2_EEEENS_9allocatorIS2_EEEC2B7v160006IS9_SB_EEOT_OT0_, symObjAddr: 0x3884, symBinAddr: 0x10001B364, symSize: 0x44 }
  - { offsetInCU: 0x170C8, offset: 0x4E4D7, size: 0x8, addend: 0x0, symName: __ZNSt3__122__compressed_pair_elemINS_17__compressed_pairIPN7CoTrain9TcpSocketENS_10shared_ptrINS2_6SocketEE27__shared_ptr_default_deleteIS6_S3_EEEELi0ELb0EEC2B7v160006ISA_vEEOT_, symObjAddr: 0x38C8, symBinAddr: 0x10001B3A8, symSize: 0x24 }
  - { offsetInCU: 0x1710B, offset: 0x4E51A, size: 0x8, addend: 0x0, symName: __ZNSt3__122__compressed_pair_elemINS_9allocatorIN7CoTrain9TcpSocketEEELi1ELb1EEC2B7v160006IS4_vEEOT_, symObjAddr: 0x38EC, symBinAddr: 0x10001B3CC, symSize: 0x18 }
  - { offsetInCU: 0x1714E, offset: 0x4E55D, size: 0x8, addend: 0x0, symName: __ZNSt3__120__shared_ptr_pointerIPN7CoTrain9TcpSocketENS_10shared_ptrINS1_6SocketEE27__shared_ptr_default_deleteIS5_S2_EENS_9allocatorIS2_EEED2Ev, symObjAddr: 0x3904, symBinAddr: 0x10001B3E4, symSize: 0x2C }
  - { offsetInCU: 0x1717A, offset: 0x4E589, size: 0x8, addend: 0x0, symName: __ZNSt3__117__compressed_pairINS0_IPN7CoTrain9TcpSocketENS_10shared_ptrINS1_6SocketEE27__shared_ptr_default_deleteIS5_S2_EEEENS_9allocatorIS2_EEE5firstB7v160006Ev, symObjAddr: 0x3930, symBinAddr: 0x10001B410, symSize: 0x24 }
  - { offsetInCU: 0x171A0, offset: 0x4E5AF, size: 0x8, addend: 0x0, symName: __ZNSt3__117__compressed_pairIPN7CoTrain9TcpSocketENS_10shared_ptrINS1_6SocketEE27__shared_ptr_default_deleteIS5_S2_EEE6secondB7v160006Ev, symObjAddr: 0x3954, symBinAddr: 0x10001B434, symSize: 0x24 }
  - { offsetInCU: 0x171C6, offset: 0x4E5D5, size: 0x8, addend: 0x0, symName: __ZNKSt3__114default_deleteIN7CoTrain9TcpSocketEEclB7v160006EPS2_, symObjAddr: 0x3978, symBinAddr: 0x10001B458, symSize: 0x4C }
  - { offsetInCU: 0x171FB, offset: 0x4E60A, size: 0x8, addend: 0x0, symName: __ZNSt3__117__compressed_pairIPN7CoTrain9TcpSocketENS_10shared_ptrINS1_6SocketEE27__shared_ptr_default_deleteIS5_S2_EEE5firstB7v160006Ev, symObjAddr: 0x39C4, symBinAddr: 0x10001B4A4, symSize: 0x24 }
  - { offsetInCU: 0x17221, offset: 0x4E630, size: 0x8, addend: 0x0, symName: __ZNSt3__122__compressed_pair_elemINS_17__compressed_pairIPN7CoTrain9TcpSocketENS_10shared_ptrINS2_6SocketEE27__shared_ptr_default_deleteIS6_S3_EEEELi0ELb0EE5__getB7v160006Ev, symObjAddr: 0x39E8, symBinAddr: 0x10001B4C8, symSize: 0x14 }
  - { offsetInCU: 0x17247, offset: 0x4E656, size: 0x8, addend: 0x0, symName: __ZNSt3__122__compressed_pair_elemINS_10shared_ptrIN7CoTrain6SocketEE27__shared_ptr_default_deleteIS3_NS2_9TcpSocketEEELi1ELb1EE5__getB7v160006Ev, symObjAddr: 0x39FC, symBinAddr: 0x10001B4DC, symSize: 0x14 }
  - { offsetInCU: 0x1726D, offset: 0x4E67C, size: 0x8, addend: 0x0, symName: __ZN7CoTrain9TcpSocketD1Ev, symObjAddr: 0x3A10, symBinAddr: 0x10001B4F0, symSize: 0x2C }
  - { offsetInCU: 0x17299, offset: 0x4E6A8, size: 0x8, addend: 0x0, symName: __ZN7CoTrain9TcpSocketD2Ev, symObjAddr: 0x3A3C, symBinAddr: 0x10001B51C, symSize: 0x54 }
  - { offsetInCU: 0x172C5, offset: 0x4E6D4, size: 0x8, addend: 0x0, symName: __ZN7CoTrain6SocketD2Ev, symObjAddr: 0x3A90, symBinAddr: 0x10001B570, symSize: 0x40 }
  - { offsetInCU: 0x172F1, offset: 0x4E700, size: 0x8, addend: 0x0, symName: __ZNSt3__122__compressed_pair_elemIPN7CoTrain9TcpSocketELi0ELb0EE5__getB7v160006Ev, symObjAddr: 0x3AD0, symBinAddr: 0x10001B5B0, symSize: 0x14 }
  - { offsetInCU: 0x17317, offset: 0x4E726, size: 0x8, addend: 0x0, symName: __ZNKSt3__117__compressed_pairINS0_IPN7CoTrain9TcpSocketENS_10shared_ptrINS1_6SocketEE27__shared_ptr_default_deleteIS5_S2_EEEENS_9allocatorIS2_EEE5firstB7v160006Ev, symObjAddr: 0x3AE4, symBinAddr: 0x10001B5C4, symSize: 0x24 }
  - { offsetInCU: 0x1733D, offset: 0x4E74C, size: 0x8, addend: 0x0, symName: __ZNKSt3__117__compressed_pairIPN7CoTrain9TcpSocketENS_10shared_ptrINS1_6SocketEE27__shared_ptr_default_deleteIS5_S2_EEE6secondB7v160006Ev, symObjAddr: 0x3B08, symBinAddr: 0x10001B5E8, symSize: 0x24 }
  - { offsetInCU: 0x17363, offset: 0x4E772, size: 0x8, addend: 0x0, symName: __ZNKSt3__122__compressed_pair_elemINS_17__compressed_pairIPN7CoTrain9TcpSocketENS_10shared_ptrINS2_6SocketEE27__shared_ptr_default_deleteIS6_S3_EEEELi0ELb0EE5__getB7v160006Ev, symObjAddr: 0x3B2C, symBinAddr: 0x10001B60C, symSize: 0x14 }
  - { offsetInCU: 0x17389, offset: 0x4E798, size: 0x8, addend: 0x0, symName: __ZNKSt3__122__compressed_pair_elemINS_10shared_ptrIN7CoTrain6SocketEE27__shared_ptr_default_deleteIS3_NS2_9TcpSocketEEELi1ELb1EE5__getB7v160006Ev, symObjAddr: 0x3B40, symBinAddr: 0x10001B620, symSize: 0x14 }
  - { offsetInCU: 0x173AF, offset: 0x4E7BE, size: 0x8, addend: 0x0, symName: __ZNSt3__117__compressed_pairINS0_IPN7CoTrain9TcpSocketENS_10shared_ptrINS1_6SocketEE27__shared_ptr_default_deleteIS5_S2_EEEENS_9allocatorIS2_EEE6secondB7v160006Ev, symObjAddr: 0x3B54, symBinAddr: 0x10001B634, symSize: 0x24 }
  - { offsetInCU: 0x17404, offset: 0x4E813, size: 0x8, addend: 0x0, symName: __ZNSt3__19allocatorINS_20__shared_ptr_pointerIPN7CoTrain9TcpSocketENS_10shared_ptrINS2_6SocketEE27__shared_ptr_default_deleteIS6_S3_EENS0_IS3_EEEEEC1B7v160006IS3_EERKNS0_IT_EE, symObjAddr: 0x3B78, symBinAddr: 0x10001B658, symSize: 0x34 }
  - { offsetInCU: 0x17441, offset: 0x4E850, size: 0x8, addend: 0x0, symName: __ZNSt3__19allocatorINS_20__shared_ptr_pointerIPN7CoTrain9TcpSocketENS_10shared_ptrINS2_6SocketEE27__shared_ptr_default_deleteIS6_S3_EENS0_IS3_EEEEE10deallocateB7v160006EPSB_m, symObjAddr: 0x3BAC, symBinAddr: 0x10001B68C, symSize: 0x40 }
  - { offsetInCU: 0x17485, offset: 0x4E894, size: 0x8, addend: 0x0, symName: __ZNSt3__114pointer_traitsIPNS_20__shared_ptr_pointerIPN7CoTrain9TcpSocketENS_10shared_ptrINS2_6SocketEE27__shared_ptr_default_deleteIS6_S3_EENS_9allocatorIS3_EEEEE10pointer_toB7v160006ERSC_, symObjAddr: 0x3BEC, symBinAddr: 0x10001B6CC, symSize: 0x14 }
  - { offsetInCU: 0x174A9, offset: 0x4E8B8, size: 0x8, addend: 0x0, symName: __ZNSt3__122__compressed_pair_elemINS_9allocatorIN7CoTrain9TcpSocketEEELi1ELb1EE5__getB7v160006Ev, symObjAddr: 0x3C00, symBinAddr: 0x10001B6E0, symSize: 0x14 }
  - { offsetInCU: 0x174CF, offset: 0x4E8DE, size: 0x8, addend: 0x0, symName: __ZNSt3__19allocatorINS_20__shared_ptr_pointerIPN7CoTrain9TcpSocketENS_10shared_ptrINS2_6SocketEE27__shared_ptr_default_deleteIS6_S3_EENS0_IS3_EEEEEC2B7v160006IS3_EERKNS0_IT_EE, symObjAddr: 0x3C14, symBinAddr: 0x10001B6F4, symSize: 0x30 }
  - { offsetInCU: 0x1750C, offset: 0x4E91B, size: 0x8, addend: 0x0, symName: __ZNSt3__116__non_trivial_ifILb1ENS_9allocatorINS_20__shared_ptr_pointerIPN7CoTrain9TcpSocketENS_10shared_ptrINS3_6SocketEE27__shared_ptr_default_deleteIS7_S4_EENS1_IS4_EEEEEEEC2B7v160006Ev, symObjAddr: 0x3C44, symBinAddr: 0x10001B724, symSize: 0x14 }
  - { offsetInCU: 0x17536, offset: 0x4E945, size: 0x8, addend: 0x0, symName: __ZNSt3__117__compressed_pairIPN7CoTrain9TcpSocketENS_14default_deleteIS2_EEE5firstB7v160006Ev, symObjAddr: 0x3C58, symBinAddr: 0x10001B738, symSize: 0x24 }
  - { offsetInCU: 0x1755C, offset: 0x4E96B, size: 0x8, addend: 0x0, symName: __ZNSt3__110unique_ptrIN7CoTrain9TcpSocketENS_14default_deleteIS2_EEED2B7v160006Ev, symObjAddr: 0x3C7C, symBinAddr: 0x10001B75C, symSize: 0x30 }
  - { offsetInCU: 0x17586, offset: 0x4E995, size: 0x8, addend: 0x0, symName: __ZNSt3__110unique_ptrIN7CoTrain9TcpSocketENS_14default_deleteIS2_EEE5resetB7v160006EPS2_, symObjAddr: 0x3CAC, symBinAddr: 0x10001B78C, symSize: 0x78 }
  - { offsetInCU: 0x175CA, offset: 0x4E9D9, size: 0x8, addend: 0x0, symName: __ZNSt3__117__compressed_pairIPN7CoTrain9TcpSocketENS_14default_deleteIS2_EEE6secondB7v160006Ev, symObjAddr: 0x3D24, symBinAddr: 0x10001B804, symSize: 0x24 }
  - { offsetInCU: 0x175F0, offset: 0x4E9FF, size: 0x8, addend: 0x0, symName: __ZNSt3__122__compressed_pair_elemINS_14default_deleteIN7CoTrain9TcpSocketEEELi1ELb1EE5__getB7v160006Ev, symObjAddr: 0x3D48, symBinAddr: 0x10001B828, symSize: 0x14 }
  - { offsetInCU: 0x17616, offset: 0x4EA25, size: 0x8, addend: 0x0, symName: __ZNSt3__110shared_ptrIN7CoTrain6SocketEED2B7v160006Ev, symObjAddr: 0x3D5C, symBinAddr: 0x10001B83C, symSize: 0x54 }
  - { offsetInCU: 0x17640, offset: 0x4EA4F, size: 0x8, addend: 0x0, symName: __ZNSt3__110shared_ptrIN7CoTrain7AddressEEC2INS1_11IPV4AddressEvEEPT_, symObjAddr: 0x3DB0, symBinAddr: 0x10001B890, symSize: 0xEC }
  - { offsetInCU: 0x17745, offset: 0x4EB54, size: 0x8, addend: 0x0, symName: __ZNSt3__110unique_ptrIN7CoTrain11IPV4AddressENS_14default_deleteIS2_EEEC1B7v160006ILb1EvEEPS2_, symObjAddr: 0x3E9C, symBinAddr: 0x10001B97C, symSize: 0x34 }
  - { offsetInCU: 0x177AC, offset: 0x4EBBB, size: 0x8, addend: 0x0, symName: __ZNSt3__19allocatorIN7CoTrain11IPV4AddressEEC1B7v160006Ev, symObjAddr: 0x3ED0, symBinAddr: 0x10001B9B0, symSize: 0x2C }
  - { offsetInCU: 0x17889, offset: 0x4EC98, size: 0x8, addend: 0x0, symName: __ZNSt3__120__shared_ptr_pointerIPN7CoTrain11IPV4AddressENS_10shared_ptrINS1_7AddressEE27__shared_ptr_default_deleteIS5_S2_EENS_9allocatorIS2_EEEC1B7v160006ES3_S8_SA_, symObjAddr: 0x3EFC, symBinAddr: 0x10001B9DC, symSize: 0x34 }
  - { offsetInCU: 0x178E0, offset: 0x4ECEF, size: 0x8, addend: 0x0, symName: __ZNSt3__110unique_ptrIN7CoTrain11IPV4AddressENS_14default_deleteIS2_EEE7releaseB7v160006Ev, symObjAddr: 0x3F30, symBinAddr: 0x10001BA10, symSize: 0x44 }
  - { offsetInCU: 0x17915, offset: 0x4ED24, size: 0x8, addend: 0x0, symName: __ZNSt3__110shared_ptrIN7CoTrain7AddressEE18__enable_weak_thisB7v160006Ez, symObjAddr: 0x3F74, symBinAddr: 0x10001BA54, symSize: 0x10 }
  - { offsetInCU: 0x1793C, offset: 0x4ED4B, size: 0x8, addend: 0x0, symName: __ZNSt3__110unique_ptrIN7CoTrain11IPV4AddressENS_14default_deleteIS2_EEED1B7v160006Ev, symObjAddr: 0x3F84, symBinAddr: 0x10001BA64, symSize: 0x2C }
  - { offsetInCU: 0x17966, offset: 0x4ED75, size: 0x8, addend: 0x0, symName: __ZNSt3__110unique_ptrIN7CoTrain11IPV4AddressENS_14default_deleteIS2_EEEC2B7v160006ILb1EvEEPS2_, symObjAddr: 0x3FB0, symBinAddr: 0x10001BA90, symSize: 0x44 }
  - { offsetInCU: 0x179AA, offset: 0x4EDB9, size: 0x8, addend: 0x0, symName: __ZNSt3__117__compressed_pairIPN7CoTrain11IPV4AddressENS_14default_deleteIS2_EEEC1B7v160006IRS3_NS_16__value_init_tagEEEOT_OT0_, symObjAddr: 0x3FF4, symBinAddr: 0x10001BAD4, symSize: 0x3C }
  - { offsetInCU: 0x17A04, offset: 0x4EE13, size: 0x8, addend: 0x0, symName: __ZNSt3__117__compressed_pairIPN7CoTrain11IPV4AddressENS_14default_deleteIS2_EEEC2B7v160006IRS3_NS_16__value_init_tagEEEOT_OT0_, symObjAddr: 0x4030, symBinAddr: 0x10001BB10, symSize: 0x40 }
  - { offsetInCU: 0x17A5E, offset: 0x4EE6D, size: 0x8, addend: 0x0, symName: __ZNSt3__122__compressed_pair_elemIPN7CoTrain11IPV4AddressELi0ELb0EEC2B7v160006IRS3_vEEOT_, symObjAddr: 0x4070, symBinAddr: 0x10001BB50, symSize: 0x24 }
  - { offsetInCU: 0x17AA1, offset: 0x4EEB0, size: 0x8, addend: 0x0, symName: __ZNSt3__122__compressed_pair_elemINS_14default_deleteIN7CoTrain11IPV4AddressEEELi1ELb1EEC2B7v160006ENS_16__value_init_tagE, symObjAddr: 0x4094, symBinAddr: 0x10001BB74, symSize: 0x14 }
  - { offsetInCU: 0x17AD5, offset: 0x4EEE4, size: 0x8, addend: 0x0, symName: __ZNSt3__19allocatorIN7CoTrain11IPV4AddressEEC2B7v160006Ev, symObjAddr: 0x40A8, symBinAddr: 0x10001BB88, symSize: 0x2C }
  - { offsetInCU: 0x17AFF, offset: 0x4EF0E, size: 0x8, addend: 0x0, symName: __ZNSt3__116__non_trivial_ifILb1ENS_9allocatorIN7CoTrain11IPV4AddressEEEEC2B7v160006Ev, symObjAddr: 0x40D4, symBinAddr: 0x10001BBB4, symSize: 0x14 }
  - { offsetInCU: 0x17B29, offset: 0x4EF38, size: 0x8, addend: 0x0, symName: __ZNSt3__120__shared_ptr_pointerIPN7CoTrain11IPV4AddressENS_10shared_ptrINS1_7AddressEE27__shared_ptr_default_deleteIS5_S2_EENS_9allocatorIS2_EEEC2B7v160006ES3_S8_SA_, symObjAddr: 0x40E8, symBinAddr: 0x10001BBC8, symSize: 0xA8 }
  - { offsetInCU: 0x17B86, offset: 0x4EF95, size: 0x8, addend: 0x0, symName: __ZNSt3__117__compressed_pairIPN7CoTrain11IPV4AddressENS_10shared_ptrINS1_7AddressEE27__shared_ptr_default_deleteIS5_S2_EEEC1B7v160006IRS3_S8_EEOT_OT0_, symObjAddr: 0x4190, symBinAddr: 0x10001BC70, symSize: 0x3C }
  - { offsetInCU: 0x17BEC, offset: 0x4EFFB, size: 0x8, addend: 0x0, symName: __ZNSt3__117__compressed_pairINS0_IPN7CoTrain11IPV4AddressENS_10shared_ptrINS1_7AddressEE27__shared_ptr_default_deleteIS5_S2_EEEENS_9allocatorIS2_EEEC1B7v160006IS9_SB_EEOT_OT0_, symObjAddr: 0x41CC, symBinAddr: 0x10001BCAC, symSize: 0x3C }
  - { offsetInCU: 0x17C46, offset: 0x4F055, size: 0x8, addend: 0x0, symName: __ZNSt3__120__shared_ptr_pointerIPN7CoTrain11IPV4AddressENS_10shared_ptrINS1_7AddressEE27__shared_ptr_default_deleteIS5_S2_EENS_9allocatorIS2_EEED1Ev, symObjAddr: 0x4208, symBinAddr: 0x10001BCE8, symSize: 0x2C }
  - { offsetInCU: 0x17C72, offset: 0x4F081, size: 0x8, addend: 0x0, symName: __ZNSt3__120__shared_ptr_pointerIPN7CoTrain11IPV4AddressENS_10shared_ptrINS1_7AddressEE27__shared_ptr_default_deleteIS5_S2_EENS_9allocatorIS2_EEED0Ev, symObjAddr: 0x4234, symBinAddr: 0x10001BD14, symSize: 0x30 }
